
LV_BMS.elf:     file format elf32-littlearm

Sections:
Idx Name          Size      VMA       LMA       File off  Algn
  0 .text         00002284  00000000  00000000  00010000  2**2
                  CONTENTS, ALLOC, LOAD, READONLY, CODE
  1 .relocate     000000f0  20000000  00002284  00020000  2**2
                  CONTENTS, ALLOC, LOAD, DATA
  2 .bss          00000208  200000f0  00002374  000200f0  2**2
                  ALLOC
  3 .stack        00002000  200002f8  0000257c  000200f0  2**0
                  ALLOC
  4 .ARM.attributes 00000028  00000000  00000000  000200f0  2**0
                  CONTENTS, READONLY
  5 .comment      00000059  00000000  00000000  00020118  2**0
                  CONTENTS, READONLY
  6 .debug_info   0002bd75  00000000  00000000  00020171  2**0
                  CONTENTS, READONLY, DEBUGGING
  7 .debug_abbrev 00003aae  00000000  00000000  0004bee6  2**0
                  CONTENTS, READONLY, DEBUGGING
  8 .debug_loc    000107fb  00000000  00000000  0004f994  2**0
                  CONTENTS, READONLY, DEBUGGING
  9 .debug_aranges 00000e40  00000000  00000000  0006018f  2**0
                  CONTENTS, READONLY, DEBUGGING
 10 .debug_ranges 00001418  00000000  00000000  00060fcf  2**0
                  CONTENTS, READONLY, DEBUGGING
 11 .debug_macro  000214b9  00000000  00000000  000623e7  2**0
                  CONTENTS, READONLY, DEBUGGING
 12 .debug_line   00016f31  00000000  00000000  000838a0  2**0
                  CONTENTS, READONLY, DEBUGGING
 13 .debug_str    0009d95d  00000000  00000000  0009a7d1  2**0
                  CONTENTS, READONLY, DEBUGGING
 14 .debug_frame  0000252c  00000000  00000000  00138130  2**2
                  CONTENTS, READONLY, DEBUGGING

Disassembly of section .text:

00000000 <exception_table>:
       0:	f8 22 00 20 95 02 00 00 91 02 00 00 91 02 00 00     .". ............
	...
      2c:	91 02 00 00 00 00 00 00 00 00 00 00 91 02 00 00     ................
      3c:	91 02 00 00 91 02 00 00 91 02 00 00 91 02 00 00     ................
      4c:	91 02 00 00 91 02 00 00 91 02 00 00 91 02 00 00     ................
      5c:	91 02 00 00 91 02 00 00 91 02 00 00 91 02 00 00     ................
      6c:	91 02 00 00 91 02 00 00 b9 13 00 00 91 02 00 00     ................
      7c:	5d 10 00 00 91 02 00 00 91 02 00 00 91 02 00 00     ]...............
      8c:	91 02 00 00 91 02 00 00 91 02 00 00 91 02 00 00     ................
      9c:	91 02 00 00 91 02 00 00 91 02 00 00 91 02 00 00     ................
      ac:	91 02 00 00 91 02 00 00 91 02 00 00 91 02 00 00     ................

000000bc <__do_global_dtors_aux>:
      bc:	b510      	push	{r4, lr}
      be:	4c06      	ldr	r4, [pc, #24]	; (d8 <__do_global_dtors_aux+0x1c>)
      c0:	7823      	ldrb	r3, [r4, #0]
      c2:	2b00      	cmp	r3, #0
      c4:	d107      	bne.n	d6 <__do_global_dtors_aux+0x1a>
      c6:	4b05      	ldr	r3, [pc, #20]	; (dc <__do_global_dtors_aux+0x20>)
      c8:	2b00      	cmp	r3, #0
      ca:	d002      	beq.n	d2 <__do_global_dtors_aux+0x16>
      cc:	4804      	ldr	r0, [pc, #16]	; (e0 <__do_global_dtors_aux+0x24>)
      ce:	e000      	b.n	d2 <__do_global_dtors_aux+0x16>
      d0:	bf00      	nop
      d2:	2301      	movs	r3, #1
      d4:	7023      	strb	r3, [r4, #0]
      d6:	bd10      	pop	{r4, pc}
      d8:	200000f0 	.word	0x200000f0
      dc:	00000000 	.word	0x00000000
      e0:	00002284 	.word	0x00002284

000000e4 <frame_dummy>:
      e4:	4b08      	ldr	r3, [pc, #32]	; (108 <frame_dummy+0x24>)
      e6:	b510      	push	{r4, lr}
      e8:	2b00      	cmp	r3, #0
      ea:	d003      	beq.n	f4 <frame_dummy+0x10>
      ec:	4907      	ldr	r1, [pc, #28]	; (10c <frame_dummy+0x28>)
      ee:	4808      	ldr	r0, [pc, #32]	; (110 <frame_dummy+0x2c>)
      f0:	e000      	b.n	f4 <frame_dummy+0x10>
      f2:	bf00      	nop
      f4:	4807      	ldr	r0, [pc, #28]	; (114 <frame_dummy+0x30>)
      f6:	6803      	ldr	r3, [r0, #0]
      f8:	2b00      	cmp	r3, #0
      fa:	d100      	bne.n	fe <frame_dummy+0x1a>
      fc:	bd10      	pop	{r4, pc}
      fe:	4b06      	ldr	r3, [pc, #24]	; (118 <frame_dummy+0x34>)
     100:	2b00      	cmp	r3, #0
     102:	d0fb      	beq.n	fc <frame_dummy+0x18>
     104:	4798      	blx	r3
     106:	e7f9      	b.n	fc <frame_dummy+0x18>
     108:	00000000 	.word	0x00000000
     10c:	200000f4 	.word	0x200000f4
     110:	00002284 	.word	0x00002284
     114:	00002284 	.word	0x00002284
     118:	00000000 	.word	0x00000000

0000011c <atmel_start_init>:

/**
 * Initializes MCU, drivers and middleware in the project
 **/
void atmel_start_init(void)
{
     11c:	b510      	push	{r4, lr}
	system_init();
     11e:	4b01      	ldr	r3, [pc, #4]	; (124 <atmel_start_init+0x8>)
     120:	4798      	blx	r3
}
     122:	bd10      	pop	{r4, pc}
     124:	000005fd 	.word	0x000005fd

00000128 <usart_return>:
	 	serial_receiving = 0;
	 	serial_complete = 0;
}

void usart_return(uint8_t rx[], uint8_t tx[])
{
     128:	b570      	push	{r4, r5, r6, lr}
     12a:	0005      	movs	r5, r0
     12c:	000c      	movs	r4, r1
	
			if(rx[0] == 'o'){
     12e:	7803      	ldrb	r3, [r0, #0]
     130:	2b6f      	cmp	r3, #111	; 0x6f
     132:	d010      	beq.n	156 <usart_return+0x2e>
				gpio_set_pin_level(led_2, true);
			}
			
			
		//copy message to tx buffer
		memcpy(&tx[17], &rx[0], SERIAL_BUF_SIZE);
     134:	0020      	movs	r0, r4
     136:	3011      	adds	r0, #17
     138:	22c8      	movs	r2, #200	; 0xc8
     13a:	0029      	movs	r1, r5
     13c:	4b09      	ldr	r3, [pc, #36]	; (164 <usart_return+0x3c>)
     13e:	4798      	blx	r3

		
		//print
		io_write(&USART_0.io, tx, strlen(rx) + 16);
     140:	0028      	movs	r0, r5
     142:	4b09      	ldr	r3, [pc, #36]	; (168 <usart_return+0x40>)
     144:	4798      	blx	r3
     146:	0002      	movs	r2, r0
     148:	3210      	adds	r2, #16
     14a:	b292      	uxth	r2, r2
     14c:	0021      	movs	r1, r4
     14e:	4807      	ldr	r0, [pc, #28]	; (16c <usart_return+0x44>)
     150:	4b07      	ldr	r3, [pc, #28]	; (170 <usart_return+0x48>)
     152:	4798      	blx	r3
		//io_write(&USART_0.io, msg, total_bytes + 16);
		//clear memory
		memset(&rx, 0x00, SERIAL_BUF_SIZE);
	
}
     154:	bd70      	pop	{r4, r5, r6, pc}
	((Port *)hw)->Group[submodule_index].DIRTGL.reg = mask;
}

static inline void hri_port_set_OUT_reg(const void *const hw, uint8_t submodule_index, hri_port_out_reg_t mask)
{
	((Port *)hw)->Group[submodule_index].OUTSET.reg = mask;
     156:	2180      	movs	r1, #128	; 0x80
     158:	0409      	lsls	r1, r1, #16
     15a:	3329      	adds	r3, #41	; 0x29
     15c:	22c0      	movs	r2, #192	; 0xc0
     15e:	05d2      	lsls	r2, r2, #23
     160:	50d1      	str	r1, [r2, r3]
     162:	e7e7      	b.n	134 <usart_return+0xc>
     164:	000020a9 	.word	0x000020a9
     168:	000020cb 	.word	0x000020cb
     16c:	20000268 	.word	0x20000268
     170:	00000805 	.word	0x00000805

00000174 <usart_send>:

void usart_send(uint8_t *str1)
{
     174:	b570      	push	{r4, r5, r6, lr}
     176:	0005      	movs	r5, r0

	
	
	memcpy(&tx_buffer[17], &str1[0], SERIAL_BUF_SIZE);
     178:	4c0a      	ldr	r4, [pc, #40]	; (1a4 <usart_send+0x30>)
     17a:	22c8      	movs	r2, #200	; 0xc8
     17c:	0001      	movs	r1, r0
     17e:	0020      	movs	r0, r4
     180:	4b09      	ldr	r3, [pc, #36]	; (1a8 <usart_send+0x34>)
     182:	4798      	blx	r3
	//print
	io_write(&USART_0.io, tx_buffer, (17  + strlen(str1)));
     184:	0028      	movs	r0, r5
     186:	4b09      	ldr	r3, [pc, #36]	; (1ac <usart_send+0x38>)
     188:	4798      	blx	r3
     18a:	3011      	adds	r0, #17
     18c:	b282      	uxth	r2, r0
     18e:	0021      	movs	r1, r4
     190:	3911      	subs	r1, #17
     192:	4807      	ldr	r0, [pc, #28]	; (1b0 <usart_send+0x3c>)
     194:	4b07      	ldr	r3, [pc, #28]	; (1b4 <usart_send+0x40>)
     196:	4798      	blx	r3
	//io_write(&USART_0.io, msg, total_bytes + 16);
	//clear memory
	memset(&rx_buffer, 0x00, SERIAL_BUF_SIZE);
     198:	22c8      	movs	r2, #200	; 0xc8
     19a:	2100      	movs	r1, #0
     19c:	4806      	ldr	r0, [pc, #24]	; (1b8 <usart_send+0x44>)
     19e:	4b07      	ldr	r3, [pc, #28]	; (1bc <usart_send+0x48>)
     1a0:	4798      	blx	r3
	
}
     1a2:	bd70      	pop	{r4, r5, r6, pc}
     1a4:	20000025 	.word	0x20000025
     1a8:	000020a9 	.word	0x000020a9
     1ac:	000020cb 	.word	0x000020cb
     1b0:	20000268 	.word	0x20000268
     1b4:	00000805 	.word	0x00000805
     1b8:	20000154 	.word	0x20000154
     1bc:	000020bb 	.word	0x000020bb

000001c0 <usart_done>:
{
     1c0:	b510      	push	{r4, lr}
	if(rx_buffer[0] == 'o' && rx_buffer[1] == 'n'){
     1c2:	4b27      	ldr	r3, [pc, #156]	; (260 <usart_done+0xa0>)
     1c4:	781b      	ldrb	r3, [r3, #0]
     1c6:	2b6f      	cmp	r3, #111	; 0x6f
     1c8:	d011      	beq.n	1ee <usart_done+0x2e>
	else if(rx_buffer[0] == 'o' && rx_buffer[1] == 'f' && rx_buffer[2] =='f'){
     1ca:	4b25      	ldr	r3, [pc, #148]	; (260 <usart_done+0xa0>)
     1cc:	781b      	ldrb	r3, [r3, #0]
     1ce:	2b6f      	cmp	r3, #111	; 0x6f
     1d0:	d01e      	beq.n	210 <usart_done+0x50>
	 else if (rx_buffer[0] == 'a' && rx_buffer[1] == 'd' && rx_buffer[2] =='c'){
     1d2:	4b23      	ldr	r3, [pc, #140]	; (260 <usart_done+0xa0>)
     1d4:	781b      	ldrb	r3, [r3, #0]
     1d6:	2b61      	cmp	r3, #97	; 0x61
     1d8:	d02a      	beq.n	230 <usart_done+0x70>
		 usart_return(rx_buffer, tx_buffer);
     1da:	4922      	ldr	r1, [pc, #136]	; (264 <usart_done+0xa4>)
     1dc:	4820      	ldr	r0, [pc, #128]	; (260 <usart_done+0xa0>)
     1de:	4b22      	ldr	r3, [pc, #136]	; (268 <usart_done+0xa8>)
     1e0:	4798      	blx	r3
	 	serial_receiving = 0;
     1e2:	2300      	movs	r3, #0
     1e4:	4a21      	ldr	r2, [pc, #132]	; (26c <usart_done+0xac>)
     1e6:	7013      	strb	r3, [r2, #0]
	 	serial_complete = 0;
     1e8:	4a21      	ldr	r2, [pc, #132]	; (270 <usart_done+0xb0>)
     1ea:	7013      	strb	r3, [r2, #0]
}
     1ec:	bd10      	pop	{r4, pc}
	if(rx_buffer[0] == 'o' && rx_buffer[1] == 'n'){
     1ee:	4b1c      	ldr	r3, [pc, #112]	; (260 <usart_done+0xa0>)
     1f0:	785b      	ldrb	r3, [r3, #1]
     1f2:	2b6e      	cmp	r3, #110	; 0x6e
     1f4:	d1e9      	bne.n	1ca <usart_done+0xa>
     1f6:	2220      	movs	r2, #32
     1f8:	23c0      	movs	r3, #192	; 0xc0
     1fa:	05db      	lsls	r3, r3, #23
     1fc:	619a      	str	r2, [r3, #24]
		usart_send("Relay ON");
     1fe:	481d      	ldr	r0, [pc, #116]	; (274 <usart_done+0xb4>)
     200:	4c1d      	ldr	r4, [pc, #116]	; (278 <usart_done+0xb8>)
     202:	47a0      	blx	r4
		delay_ms(50);
     204:	2032      	movs	r0, #50	; 0x32
     206:	4b1d      	ldr	r3, [pc, #116]	; (27c <usart_done+0xbc>)
     208:	4798      	blx	r3
		usart_send("Relay test");
     20a:	481d      	ldr	r0, [pc, #116]	; (280 <usart_done+0xc0>)
     20c:	47a0      	blx	r4
	if(rx_buffer[0] == 'o' && rx_buffer[1] == 'n'){
     20e:	e7e8      	b.n	1e2 <usart_done+0x22>
	else if(rx_buffer[0] == 'o' && rx_buffer[1] == 'f' && rx_buffer[2] =='f'){
     210:	4b13      	ldr	r3, [pc, #76]	; (260 <usart_done+0xa0>)
     212:	785b      	ldrb	r3, [r3, #1]
     214:	2b66      	cmp	r3, #102	; 0x66
     216:	d1dc      	bne.n	1d2 <usart_done+0x12>
     218:	4b11      	ldr	r3, [pc, #68]	; (260 <usart_done+0xa0>)
     21a:	789b      	ldrb	r3, [r3, #2]
     21c:	2b66      	cmp	r3, #102	; 0x66
     21e:	d1d8      	bne.n	1d2 <usart_done+0x12>
	((Port *)hw)->Group[submodule_index].OUTCLR.reg = ~data;
}

static inline void hri_port_clear_OUT_reg(const void *const hw, uint8_t submodule_index, hri_port_out_reg_t mask)
{
	((Port *)hw)->Group[submodule_index].OUTCLR.reg = mask;
     220:	2220      	movs	r2, #32
     222:	23c0      	movs	r3, #192	; 0xc0
     224:	05db      	lsls	r3, r3, #23
     226:	615a      	str	r2, [r3, #20]
		usart_send("LED OFF");
     228:	4816      	ldr	r0, [pc, #88]	; (284 <usart_done+0xc4>)
     22a:	4b13      	ldr	r3, [pc, #76]	; (278 <usart_done+0xb8>)
     22c:	4798      	blx	r3
	else if(rx_buffer[0] == 'o' && rx_buffer[1] == 'f' && rx_buffer[2] =='f'){
     22e:	e7d8      	b.n	1e2 <usart_done+0x22>
	 else if (rx_buffer[0] == 'a' && rx_buffer[1] == 'd' && rx_buffer[2] =='c'){
     230:	4b0b      	ldr	r3, [pc, #44]	; (260 <usart_done+0xa0>)
     232:	785b      	ldrb	r3, [r3, #1]
     234:	2b64      	cmp	r3, #100	; 0x64
     236:	d1d0      	bne.n	1da <usart_done+0x1a>
     238:	4b09      	ldr	r3, [pc, #36]	; (260 <usart_done+0xa0>)
     23a:	789b      	ldrb	r3, [r3, #2]
     23c:	2b63      	cmp	r3, #99	; 0x63
     23e:	d1cc      	bne.n	1da <usart_done+0x1a>
	((Port *)hw)->Group[submodule_index].OUTSET.reg = mask;
     240:	2180      	movs	r1, #128	; 0x80
     242:	03c9      	lsls	r1, r1, #15
     244:	3335      	adds	r3, #53	; 0x35
     246:	22c0      	movs	r2, #192	; 0xc0
     248:	05d2      	lsls	r2, r2, #23
     24a:	50d1      	str	r1, [r2, r3]
		 usart_send(" ADC value is:");
     24c:	480e      	ldr	r0, [pc, #56]	; (288 <usart_done+0xc8>)
     24e:	4c0a      	ldr	r4, [pc, #40]	; (278 <usart_done+0xb8>)
     250:	47a0      	blx	r4
		 delay_ms(50);
     252:	2032      	movs	r0, #50	; 0x32
     254:	4b09      	ldr	r3, [pc, #36]	; (27c <usart_done+0xbc>)
     256:	4798      	blx	r3
		 usart_send("1GA");
     258:	480c      	ldr	r0, [pc, #48]	; (28c <usart_done+0xcc>)
     25a:	47a0      	blx	r4
	 else if (rx_buffer[0] == 'a' && rx_buffer[1] == 'd' && rx_buffer[2] =='c'){
     25c:	e7c1      	b.n	1e2 <usart_done+0x22>
     25e:	46c0      	nop			; (mov r8, r8)
     260:	20000154 	.word	0x20000154
     264:	20000014 	.word	0x20000014
     268:	00000129 	.word	0x00000129
     26c:	20000150 	.word	0x20000150
     270:	2000021c 	.word	0x2000021c
     274:	000020d8 	.word	0x000020d8
     278:	00000175 	.word	0x00000175
     27c:	000007e5 	.word	0x000007e5
     280:	000020e4 	.word	0x000020e4
     284:	000020f0 	.word	0x000020f0
     288:	000020f8 	.word	0x000020f8
     28c:	00002108 	.word	0x00002108

00000290 <Dummy_Handler>:

/**
 * \brief Default interrupt handler for unused IRQs.
 */
void Dummy_Handler(void)
{
     290:	e7fe      	b.n	290 <Dummy_Handler>
	...

00000294 <Reset_Handler>:
{
     294:	b510      	push	{r4, lr}
        if (pSrc != pDest) {
     296:	4a17      	ldr	r2, [pc, #92]	; (2f4 <Reset_Handler+0x60>)
     298:	4b17      	ldr	r3, [pc, #92]	; (2f8 <Reset_Handler+0x64>)
     29a:	429a      	cmp	r2, r3
     29c:	d011      	beq.n	2c2 <Reset_Handler+0x2e>
                for (; pDest < &_erelocate;) {
     29e:	001a      	movs	r2, r3
     2a0:	4b16      	ldr	r3, [pc, #88]	; (2fc <Reset_Handler+0x68>)
     2a2:	429a      	cmp	r2, r3
     2a4:	d20d      	bcs.n	2c2 <Reset_Handler+0x2e>
     2a6:	4a16      	ldr	r2, [pc, #88]	; (300 <Reset_Handler+0x6c>)
     2a8:	3303      	adds	r3, #3
     2aa:	1a9b      	subs	r3, r3, r2
     2ac:	089b      	lsrs	r3, r3, #2
     2ae:	3301      	adds	r3, #1
     2b0:	009b      	lsls	r3, r3, #2
     2b2:	2200      	movs	r2, #0
                        *pDest++ = *pSrc++;
     2b4:	4810      	ldr	r0, [pc, #64]	; (2f8 <Reset_Handler+0x64>)
     2b6:	490f      	ldr	r1, [pc, #60]	; (2f4 <Reset_Handler+0x60>)
     2b8:	588c      	ldr	r4, [r1, r2]
     2ba:	5084      	str	r4, [r0, r2]
     2bc:	3204      	adds	r2, #4
                for (; pDest < &_erelocate;) {
     2be:	429a      	cmp	r2, r3
     2c0:	d1fa      	bne.n	2b8 <Reset_Handler+0x24>
        for (pDest = &_szero; pDest < &_ezero;) {
     2c2:	4a10      	ldr	r2, [pc, #64]	; (304 <Reset_Handler+0x70>)
     2c4:	4b10      	ldr	r3, [pc, #64]	; (308 <Reset_Handler+0x74>)
     2c6:	429a      	cmp	r2, r3
     2c8:	d20a      	bcs.n	2e0 <Reset_Handler+0x4c>
     2ca:	43d3      	mvns	r3, r2
     2cc:	490e      	ldr	r1, [pc, #56]	; (308 <Reset_Handler+0x74>)
     2ce:	185b      	adds	r3, r3, r1
     2d0:	2103      	movs	r1, #3
     2d2:	438b      	bics	r3, r1
     2d4:	3304      	adds	r3, #4
     2d6:	189b      	adds	r3, r3, r2
                *pDest++ = 0;
     2d8:	2100      	movs	r1, #0
     2da:	c202      	stmia	r2!, {r1}
        for (pDest = &_szero; pDest < &_ezero;) {
     2dc:	4293      	cmp	r3, r2
     2de:	d1fc      	bne.n	2da <Reset_Handler+0x46>
        SCB->VTOR = ((uint32_t) pSrc & SCB_VTOR_TBLOFF_Msk);
     2e0:	4a0a      	ldr	r2, [pc, #40]	; (30c <Reset_Handler+0x78>)
     2e2:	21ff      	movs	r1, #255	; 0xff
     2e4:	4b0a      	ldr	r3, [pc, #40]	; (310 <Reset_Handler+0x7c>)
     2e6:	438b      	bics	r3, r1
     2e8:	6093      	str	r3, [r2, #8]
        __libc_init_array();
     2ea:	4b0a      	ldr	r3, [pc, #40]	; (314 <Reset_Handler+0x80>)
     2ec:	4798      	blx	r3
        main();
     2ee:	4b0a      	ldr	r3, [pc, #40]	; (318 <Reset_Handler+0x84>)
     2f0:	4798      	blx	r3
     2f2:	e7fe      	b.n	2f2 <Reset_Handler+0x5e>
     2f4:	00002284 	.word	0x00002284
     2f8:	20000000 	.word	0x20000000
     2fc:	200000f0 	.word	0x200000f0
     300:	20000004 	.word	0x20000004
     304:	200000f0 	.word	0x200000f0
     308:	200002f8 	.word	0x200002f8
     30c:	e000ed00 	.word	0xe000ed00
     310:	00000000 	.word	0x00000000
     314:	00002061 	.word	0x00002061
     318:	000016e1 	.word	0x000016e1

0000031c <ADC_0_PORT_init>:
     31c:	b510      	push	{r4, lr}
     31e:	2204      	movs	r2, #4
     320:	23c0      	movs	r3, #192	; 0xc0
     322:	05db      	lsls	r3, r3, #23
     324:	605a      	str	r2, [r3, #4]
     326:	2182      	movs	r1, #130	; 0x82
     328:	05c9      	lsls	r1, r1, #23
     32a:	4b0a      	ldr	r3, [pc, #40]	; (354 <ADC_0_PORT_init+0x38>)
     32c:	628b      	str	r3, [r1, #40]	; 0x28
     32e:	23c0      	movs	r3, #192	; 0xc0
     330:	061b      	lsls	r3, r3, #24
     332:	628b      	str	r3, [r1, #40]	; 0x28
     334:	2342      	movs	r3, #66	; 0x42
     336:	5cca      	ldrb	r2, [r1, r3]
     338:	2001      	movs	r0, #1
     33a:	4382      	bics	r2, r0
     33c:	4302      	orrs	r2, r0
     33e:	b2d2      	uxtb	r2, r2
     340:	54ca      	strb	r2, [r1, r3]
     342:	2231      	movs	r2, #49	; 0x31
     344:	5c8b      	ldrb	r3, [r1, r2]
     346:	240f      	movs	r4, #15
     348:	43a3      	bics	r3, r4
     34a:	4303      	orrs	r3, r0
     34c:	b2db      	uxtb	r3, r3
     34e:	548b      	strb	r3, [r1, r2]
     350:	bd10      	pop	{r4, pc}
     352:	46c0      	nop			; (mov r8, r8)
     354:	40000004 	.word	0x40000004

00000358 <ADC_0_CLOCK_init>:
     358:	4a05      	ldr	r2, [pc, #20]	; (370 <ADC_0_CLOCK_init+0x18>)
     35a:	69d1      	ldr	r1, [r2, #28]
     35c:	2380      	movs	r3, #128	; 0x80
     35e:	029b      	lsls	r3, r3, #10
     360:	430b      	orrs	r3, r1
     362:	61d3      	str	r3, [r2, #28]
     364:	2140      	movs	r1, #64	; 0x40
     366:	2382      	movs	r3, #130	; 0x82
     368:	005b      	lsls	r3, r3, #1
     36a:	4a02      	ldr	r2, [pc, #8]	; (374 <ADC_0_CLOCK_init+0x1c>)
     36c:	50d1      	str	r1, [r2, r3]
     36e:	4770      	bx	lr
     370:	40000800 	.word	0x40000800
     374:	40001c00 	.word	0x40001c00

00000378 <ADC_0_init>:
     378:	b510      	push	{r4, lr}
     37a:	4b06      	ldr	r3, [pc, #24]	; (394 <ADC_0_init+0x1c>)
     37c:	4798      	blx	r3
     37e:	4b06      	ldr	r3, [pc, #24]	; (398 <ADC_0_init+0x20>)
     380:	4798      	blx	r3
     382:	4b06      	ldr	r3, [pc, #24]	; (39c <ADC_0_init+0x24>)
     384:	4798      	blx	r3
     386:	0002      	movs	r2, r0
     388:	4905      	ldr	r1, [pc, #20]	; (3a0 <ADC_0_init+0x28>)
     38a:	4806      	ldr	r0, [pc, #24]	; (3a4 <ADC_0_init+0x2c>)
     38c:	4b06      	ldr	r3, [pc, #24]	; (3a8 <ADC_0_init+0x30>)
     38e:	4798      	blx	r3
     390:	bd10      	pop	{r4, pc}
     392:	46c0      	nop			; (mov r8, r8)
     394:	00000359 	.word	0x00000359
     398:	0000031d 	.word	0x0000031d
     39c:	00000f49 	.word	0x00000f49
     3a0:	42004400 	.word	0x42004400
     3a4:	2000024c 	.word	0x2000024c
     3a8:	00000721 	.word	0x00000721

000003ac <SPI_0_PORT_init>:
     3ac:	b5f0      	push	{r4, r5, r6, r7, lr}
     3ae:	46c6      	mov	lr, r8
     3b0:	b500      	push	{lr}
     3b2:	24c0      	movs	r4, #192	; 0xc0
     3b4:	05e4      	lsls	r4, r4, #23
     3b6:	2380      	movs	r3, #128	; 0x80
     3b8:	005b      	lsls	r3, r3, #1
     3ba:	6063      	str	r3, [r4, #4]
     3bc:	2382      	movs	r3, #130	; 0x82
     3be:	05db      	lsls	r3, r3, #23
     3c0:	4a23      	ldr	r2, [pc, #140]	; (450 <SPI_0_PORT_init+0xa4>)
     3c2:	629a      	str	r2, [r3, #40]	; 0x28
     3c4:	4a23      	ldr	r2, [pc, #140]	; (454 <SPI_0_PORT_init+0xa8>)
     3c6:	629a      	str	r2, [r3, #40]	; 0x28
     3c8:	2148      	movs	r1, #72	; 0x48
     3ca:	5c5a      	ldrb	r2, [r3, r1]
     3cc:	2004      	movs	r0, #4
     3ce:	4382      	bics	r2, r0
     3d0:	545a      	strb	r2, [r3, r1]
     3d2:	5c5a      	ldrb	r2, [r3, r1]
     3d4:	2601      	movs	r6, #1
     3d6:	43b2      	bics	r2, r6
     3d8:	2501      	movs	r5, #1
     3da:	432a      	orrs	r2, r5
     3dc:	b2d2      	uxtb	r2, r2
     3de:	545a      	strb	r2, [r3, r1]
     3e0:	3914      	subs	r1, #20
     3e2:	5c5a      	ldrb	r2, [r3, r1]
     3e4:	300b      	adds	r0, #11
     3e6:	4684      	mov	ip, r0
     3e8:	4382      	bics	r2, r0
     3ea:	2703      	movs	r7, #3
     3ec:	433a      	orrs	r2, r7
     3ee:	b2d2      	uxtb	r2, r2
     3f0:	545a      	strb	r2, [r3, r1]
     3f2:	2280      	movs	r2, #128	; 0x80
     3f4:	00d2      	lsls	r2, r2, #3
     3f6:	6162      	str	r2, [r4, #20]
     3f8:	60a2      	str	r2, [r4, #8]
     3fa:	4a17      	ldr	r2, [pc, #92]	; (458 <SPI_0_PORT_init+0xac>)
     3fc:	629a      	str	r2, [r3, #40]	; 0x28
     3fe:	22c0      	movs	r2, #192	; 0xc0
     400:	0612      	lsls	r2, r2, #24
     402:	4690      	mov	r8, r2
     404:	629a      	str	r2, [r3, #40]	; 0x28
     406:	3116      	adds	r1, #22
     408:	5c58      	ldrb	r0, [r3, r1]
     40a:	43b0      	bics	r0, r6
     40c:	4328      	orrs	r0, r5
     40e:	b2c0      	uxtb	r0, r0
     410:	5458      	strb	r0, [r3, r1]
     412:	2035      	movs	r0, #53	; 0x35
     414:	5c19      	ldrb	r1, [r3, r0]
     416:	4662      	mov	r2, ip
     418:	4391      	bics	r1, r2
     41a:	4339      	orrs	r1, r7
     41c:	b2c9      	uxtb	r1, r1
     41e:	5419      	strb	r1, [r3, r0]
     420:	2180      	movs	r1, #128	; 0x80
     422:	0109      	lsls	r1, r1, #4
     424:	6161      	str	r1, [r4, #20]
     426:	60a1      	str	r1, [r4, #8]
     428:	490c      	ldr	r1, [pc, #48]	; (45c <SPI_0_PORT_init+0xb0>)
     42a:	6299      	str	r1, [r3, #40]	; 0x28
     42c:	4642      	mov	r2, r8
     42e:	629a      	str	r2, [r3, #40]	; 0x28
     430:	214b      	movs	r1, #75	; 0x4b
     432:	5c5a      	ldrb	r2, [r3, r1]
     434:	43b2      	bics	r2, r6
     436:	432a      	orrs	r2, r5
     438:	b2d2      	uxtb	r2, r2
     43a:	545a      	strb	r2, [r3, r1]
     43c:	5c1a      	ldrb	r2, [r3, r0]
     43e:	393c      	subs	r1, #60	; 0x3c
     440:	400a      	ands	r2, r1
     442:	3121      	adds	r1, #33	; 0x21
     444:	430a      	orrs	r2, r1
     446:	541a      	strb	r2, [r3, r0]
     448:	bc04      	pop	{r2}
     44a:	4690      	mov	r8, r2
     44c:	bdf0      	pop	{r4, r5, r6, r7, pc}
     44e:	46c0      	nop			; (mov r8, r8)
     450:	40020100 	.word	0x40020100
     454:	c0020000 	.word	0xc0020000
     458:	40000400 	.word	0x40000400
     45c:	40000800 	.word	0x40000800

00000460 <SPI_0_CLOCK_init>:
     460:	4b05      	ldr	r3, [pc, #20]	; (478 <SPI_0_CLOCK_init+0x18>)
     462:	2240      	movs	r2, #64	; 0x40
     464:	21d4      	movs	r1, #212	; 0xd4
     466:	505a      	str	r2, [r3, r1]
     468:	390c      	subs	r1, #12
     46a:	505a      	str	r2, [r3, r1]
     46c:	4a03      	ldr	r2, [pc, #12]	; (47c <SPI_0_CLOCK_init+0x1c>)
     46e:	69d3      	ldr	r3, [r2, #28]
     470:	39c0      	subs	r1, #192	; 0xc0
     472:	430b      	orrs	r3, r1
     474:	61d3      	str	r3, [r2, #28]
     476:	4770      	bx	lr
     478:	40001c00 	.word	0x40001c00
     47c:	40000800 	.word	0x40000800

00000480 <SPI_0_init>:
     480:	b510      	push	{r4, lr}
     482:	4b04      	ldr	r3, [pc, #16]	; (494 <SPI_0_init+0x14>)
     484:	4798      	blx	r3
     486:	4904      	ldr	r1, [pc, #16]	; (498 <SPI_0_init+0x18>)
     488:	4804      	ldr	r0, [pc, #16]	; (49c <SPI_0_init+0x1c>)
     48a:	4b05      	ldr	r3, [pc, #20]	; (4a0 <SPI_0_init+0x20>)
     48c:	4798      	blx	r3
     48e:	4b05      	ldr	r3, [pc, #20]	; (4a4 <SPI_0_init+0x24>)
     490:	4798      	blx	r3
     492:	bd10      	pop	{r4, pc}
     494:	00000461 	.word	0x00000461
     498:	42000c00 	.word	0x42000c00
     49c:	20000250 	.word	0x20000250
     4a0:	0000086d 	.word	0x0000086d
     4a4:	000003ad 	.word	0x000003ad

000004a8 <USART_0_CLOCK_init>:
     4a8:	4b05      	ldr	r3, [pc, #20]	; (4c0 <USART_0_CLOCK_init+0x18>)
     4aa:	2240      	movs	r2, #64	; 0x40
     4ac:	21dc      	movs	r1, #220	; 0xdc
     4ae:	505a      	str	r2, [r3, r1]
     4b0:	3914      	subs	r1, #20
     4b2:	505a      	str	r2, [r3, r1]
     4b4:	4a03      	ldr	r2, [pc, #12]	; (4c4 <USART_0_CLOCK_init+0x1c>)
     4b6:	69d3      	ldr	r3, [r2, #28]
     4b8:	39a8      	subs	r1, #168	; 0xa8
     4ba:	430b      	orrs	r3, r1
     4bc:	61d3      	str	r3, [r2, #28]
     4be:	4770      	bx	lr
     4c0:	40001c00 	.word	0x40001c00
     4c4:	40000800 	.word	0x40000800

000004c8 <USART_0_PORT_init>:
     4c8:	b530      	push	{r4, r5, lr}
     4ca:	2382      	movs	r3, #130	; 0x82
     4cc:	05db      	lsls	r3, r3, #23
     4ce:	22c8      	movs	r2, #200	; 0xc8
     4d0:	5c99      	ldrb	r1, [r3, r2]
     4d2:	2501      	movs	r5, #1
     4d4:	43a9      	bics	r1, r5
     4d6:	2401      	movs	r4, #1
     4d8:	4321      	orrs	r1, r4
     4da:	b2c9      	uxtb	r1, r1
     4dc:	5499      	strb	r1, [r3, r2]
     4de:	20b4      	movs	r0, #180	; 0xb4
     4e0:	5c19      	ldrb	r1, [r3, r0]
     4e2:	3ab9      	subs	r2, #185	; 0xb9
     4e4:	4391      	bics	r1, r2
     4e6:	3a0c      	subs	r2, #12
     4e8:	4311      	orrs	r1, r2
     4ea:	5419      	strb	r1, [r3, r0]
     4ec:	21c9      	movs	r1, #201	; 0xc9
     4ee:	5c5a      	ldrb	r2, [r3, r1]
     4f0:	43aa      	bics	r2, r5
     4f2:	4322      	orrs	r2, r4
     4f4:	b2d2      	uxtb	r2, r2
     4f6:	545a      	strb	r2, [r3, r1]
     4f8:	5c1a      	ldrb	r2, [r3, r0]
     4fa:	39ba      	subs	r1, #186	; 0xba
     4fc:	400a      	ands	r2, r1
     4fe:	3121      	adds	r1, #33	; 0x21
     500:	430a      	orrs	r2, r1
     502:	541a      	strb	r2, [r3, r0]
     504:	bd30      	pop	{r4, r5, pc}
	...

00000508 <USART_0_init>:
     508:	b510      	push	{r4, lr}
     50a:	b082      	sub	sp, #8
     50c:	4b06      	ldr	r3, [pc, #24]	; (528 <USART_0_init+0x20>)
     50e:	4798      	blx	r3
     510:	2300      	movs	r3, #0
     512:	9300      	str	r3, [sp, #0]
     514:	3310      	adds	r3, #16
     516:	4a05      	ldr	r2, [pc, #20]	; (52c <USART_0_init+0x24>)
     518:	4905      	ldr	r1, [pc, #20]	; (530 <USART_0_init+0x28>)
     51a:	4806      	ldr	r0, [pc, #24]	; (534 <USART_0_init+0x2c>)
     51c:	4c06      	ldr	r4, [pc, #24]	; (538 <USART_0_init+0x30>)
     51e:	47a0      	blx	r4
     520:	4b06      	ldr	r3, [pc, #24]	; (53c <USART_0_init+0x34>)
     522:	4798      	blx	r3
     524:	b002      	add	sp, #8
     526:	bd10      	pop	{r4, pc}
     528:	000004a9 	.word	0x000004a9
     52c:	2000010c 	.word	0x2000010c
     530:	42001400 	.word	0x42001400
     534:	20000268 	.word	0x20000268
     538:	00000b79 	.word	0x00000b79
     53c:	000004c9 	.word	0x000004c9

00000540 <CAN_0_PORT_init>:
     540:	b530      	push	{r4, r5, lr}
     542:	2382      	movs	r3, #130	; 0x82
     544:	05db      	lsls	r3, r3, #23
     546:	2259      	movs	r2, #89	; 0x59
     548:	5c99      	ldrb	r1, [r3, r2]
     54a:	2501      	movs	r5, #1
     54c:	43a9      	bics	r1, r5
     54e:	2401      	movs	r4, #1
     550:	4321      	orrs	r1, r4
     552:	b2c9      	uxtb	r1, r1
     554:	5499      	strb	r1, [r3, r2]
     556:	203c      	movs	r0, #60	; 0x3c
     558:	5c19      	ldrb	r1, [r3, r0]
     55a:	3a4a      	subs	r2, #74	; 0x4a
     55c:	4011      	ands	r1, r2
     55e:	3251      	adds	r2, #81	; 0x51
     560:	4311      	orrs	r1, r2
     562:	5419      	strb	r1, [r3, r0]
     564:	2158      	movs	r1, #88	; 0x58
     566:	5c5a      	ldrb	r2, [r3, r1]
     568:	43aa      	bics	r2, r5
     56a:	4322      	orrs	r2, r4
     56c:	b2d2      	uxtb	r2, r2
     56e:	545a      	strb	r2, [r3, r1]
     570:	5c1a      	ldrb	r2, [r3, r0]
     572:	3949      	subs	r1, #73	; 0x49
     574:	438a      	bics	r2, r1
     576:	3909      	subs	r1, #9
     578:	430a      	orrs	r2, r1
     57a:	541a      	strb	r2, [r3, r0]
     57c:	bd30      	pop	{r4, r5, pc}
	...

00000580 <CAN_0_init>:
     580:	b510      	push	{r4, lr}
     582:	4a08      	ldr	r2, [pc, #32]	; (5a4 <CAN_0_init+0x24>)
     584:	6911      	ldr	r1, [r2, #16]
     586:	2380      	movs	r3, #128	; 0x80
     588:	005b      	lsls	r3, r3, #1
     58a:	430b      	orrs	r3, r1
     58c:	6113      	str	r3, [r2, #16]
     58e:	2140      	movs	r1, #64	; 0x40
     590:	23e8      	movs	r3, #232	; 0xe8
     592:	4a05      	ldr	r2, [pc, #20]	; (5a8 <CAN_0_init+0x28>)
     594:	50d1      	str	r1, [r2, r3]
     596:	4905      	ldr	r1, [pc, #20]	; (5ac <CAN_0_init+0x2c>)
     598:	4805      	ldr	r0, [pc, #20]	; (5b0 <CAN_0_init+0x30>)
     59a:	4b06      	ldr	r3, [pc, #24]	; (5b4 <CAN_0_init+0x34>)
     59c:	4798      	blx	r3
     59e:	4b06      	ldr	r3, [pc, #24]	; (5b8 <CAN_0_init+0x38>)
     5a0:	4798      	blx	r3
     5a2:	bd10      	pop	{r4, pc}
     5a4:	40000800 	.word	0x40000800
     5a8:	40001c00 	.word	0x40001c00
     5ac:	42001c00 	.word	0x42001c00
     5b0:	20000220 	.word	0x20000220
     5b4:	00000795 	.word	0x00000795
     5b8:	00000541 	.word	0x00000541

000005bc <TEMPERATURE_SENSOR_0_CLOCK_init>:
     5bc:	4a05      	ldr	r2, [pc, #20]	; (5d4 <TEMPERATURE_SENSOR_0_CLOCK_init+0x18>)
     5be:	6951      	ldr	r1, [r2, #20]
     5c0:	2380      	movs	r3, #128	; 0x80
     5c2:	015b      	lsls	r3, r3, #5
     5c4:	430b      	orrs	r3, r1
     5c6:	6153      	str	r3, [r2, #20]
     5c8:	2140      	movs	r1, #64	; 0x40
     5ca:	2394      	movs	r3, #148	; 0x94
     5cc:	4a02      	ldr	r2, [pc, #8]	; (5d8 <TEMPERATURE_SENSOR_0_CLOCK_init+0x1c>)
     5ce:	50d1      	str	r1, [r2, r3]
     5d0:	4770      	bx	lr
     5d2:	46c0      	nop			; (mov r8, r8)
     5d4:	40000800 	.word	0x40000800
     5d8:	40001c00 	.word	0x40001c00

000005dc <TEMPERATURE_SENSOR_0_init>:
     5dc:	b510      	push	{r4, lr}
     5de:	4b03      	ldr	r3, [pc, #12]	; (5ec <TEMPERATURE_SENSOR_0_init+0x10>)
     5e0:	4798      	blx	r3
     5e2:	4903      	ldr	r1, [pc, #12]	; (5f0 <TEMPERATURE_SENSOR_0_init+0x14>)
     5e4:	4803      	ldr	r0, [pc, #12]	; (5f4 <TEMPERATURE_SENSOR_0_init+0x18>)
     5e6:	4b04      	ldr	r3, [pc, #16]	; (5f8 <TEMPERATURE_SENSOR_0_init+0x1c>)
     5e8:	4798      	blx	r3
     5ea:	bd10      	pop	{r4, pc}
     5ec:	000005bd 	.word	0x000005bd
     5f0:	40003000 	.word	0x40003000
     5f4:	20000248 	.word	0x20000248
     5f8:	00000981 	.word	0x00000981

000005fc <system_init>:
     5fc:	b5f0      	push	{r4, r5, r6, r7, lr}
     5fe:	46c6      	mov	lr, r8
     600:	b500      	push	{lr}
     602:	4b39      	ldr	r3, [pc, #228]	; (6e8 <system_init+0xec>)
     604:	4798      	blx	r3
     606:	22c0      	movs	r2, #192	; 0xc0
     608:	05d2      	lsls	r2, r2, #23
     60a:	2320      	movs	r3, #32
     60c:	6153      	str	r3, [r2, #20]
     60e:	6093      	str	r3, [r2, #8]
     610:	2382      	movs	r3, #130	; 0x82
     612:	05db      	lsls	r3, r3, #23
     614:	4935      	ldr	r1, [pc, #212]	; (6ec <system_init+0xf0>)
     616:	6299      	str	r1, [r3, #40]	; 0x28
     618:	21c0      	movs	r1, #192	; 0xc0
     61a:	0609      	lsls	r1, r1, #24
     61c:	6299      	str	r1, [r3, #40]	; 0x28
     61e:	2445      	movs	r4, #69	; 0x45
     620:	5d19      	ldrb	r1, [r3, r4]
     622:	2001      	movs	r0, #1
     624:	4381      	bics	r1, r0
     626:	5519      	strb	r1, [r3, r4]
     628:	2180      	movs	r1, #128	; 0x80
     62a:	0509      	lsls	r1, r1, #20
     62c:	6151      	str	r1, [r2, #20]
     62e:	6091      	str	r1, [r2, #8]
     630:	2480      	movs	r4, #128	; 0x80
     632:	05e4      	lsls	r4, r4, #23
     634:	629c      	str	r4, [r3, #40]	; 0x28
     636:	492e      	ldr	r1, [pc, #184]	; (6f0 <system_init+0xf4>)
     638:	6299      	str	r1, [r3, #40]	; 0x28
     63a:	255b      	movs	r5, #91	; 0x5b
     63c:	5d59      	ldrb	r1, [r3, r5]
     63e:	4381      	bics	r1, r0
     640:	5559      	strb	r1, [r3, r5]
     642:	2180      	movs	r1, #128	; 0x80
     644:	0549      	lsls	r1, r1, #21
     646:	6151      	str	r1, [r2, #20]
     648:	6091      	str	r1, [r2, #8]
     64a:	629c      	str	r4, [r3, #40]	; 0x28
     64c:	4929      	ldr	r1, [pc, #164]	; (6f4 <system_init+0xf8>)
     64e:	6299      	str	r1, [r3, #40]	; 0x28
     650:	3501      	adds	r5, #1
     652:	5d59      	ldrb	r1, [r3, r5]
     654:	4381      	bics	r1, r0
     656:	5559      	strb	r1, [r3, r5]
     658:	2184      	movs	r1, #132	; 0x84
     65a:	4688      	mov	r8, r1
     65c:	2704      	movs	r7, #4
     65e:	5057      	str	r7, [r2, r1]
     660:	3124      	adds	r1, #36	; 0x24
     662:	4d25      	ldr	r5, [pc, #148]	; (6f8 <system_init+0xfc>)
     664:	505d      	str	r5, [r3, r1]
     666:	4d25      	ldr	r5, [pc, #148]	; (6fc <system_init+0x100>)
     668:	46ac      	mov	ip, r5
     66a:	505d      	str	r5, [r3, r1]
     66c:	25c2      	movs	r5, #194	; 0xc2
     66e:	5d5e      	ldrb	r6, [r3, r5]
     670:	43be      	bics	r6, r7
     672:	555e      	strb	r6, [r3, r5]
     674:	5d5e      	ldrb	r6, [r3, r5]
     676:	4386      	bics	r6, r0
     678:	555e      	strb	r6, [r3, r5]
     67a:	3dba      	subs	r5, #186	; 0xba
     67c:	4646      	mov	r6, r8
     67e:	5195      	str	r5, [r2, r6]
     680:	4d1f      	ldr	r5, [pc, #124]	; (700 <system_init+0x104>)
     682:	505d      	str	r5, [r3, r1]
     684:	4665      	mov	r5, ip
     686:	505d      	str	r5, [r3, r1]
     688:	25c3      	movs	r5, #195	; 0xc3
     68a:	5d5e      	ldrb	r6, [r3, r5]
     68c:	43be      	bics	r6, r7
     68e:	555e      	strb	r6, [r3, r5]
     690:	5d5e      	ldrb	r6, [r3, r5]
     692:	4386      	bics	r6, r0
     694:	555e      	strb	r6, [r3, r5]
     696:	3790      	adds	r7, #144	; 0x90
     698:	2580      	movs	r5, #128	; 0x80
     69a:	03ed      	lsls	r5, r5, #15
     69c:	51d5      	str	r5, [r2, r7]
     69e:	2688      	movs	r6, #136	; 0x88
     6a0:	46b0      	mov	r8, r6
     6a2:	5195      	str	r5, [r2, r6]
     6a4:	505c      	str	r4, [r3, r1]
     6a6:	4d17      	ldr	r5, [pc, #92]	; (704 <system_init+0x108>)
     6a8:	505d      	str	r5, [r3, r1]
     6aa:	25d6      	movs	r5, #214	; 0xd6
     6ac:	46ac      	mov	ip, r5
     6ae:	5d5d      	ldrb	r5, [r3, r5]
     6b0:	4385      	bics	r5, r0
     6b2:	4666      	mov	r6, ip
     6b4:	559d      	strb	r5, [r3, r6]
     6b6:	2580      	movs	r5, #128	; 0x80
     6b8:	042d      	lsls	r5, r5, #16
     6ba:	51d5      	str	r5, [r2, r7]
     6bc:	4646      	mov	r6, r8
     6be:	5195      	str	r5, [r2, r6]
     6c0:	505c      	str	r4, [r3, r1]
     6c2:	4a11      	ldr	r2, [pc, #68]	; (708 <system_init+0x10c>)
     6c4:	505a      	str	r2, [r3, r1]
     6c6:	312f      	adds	r1, #47	; 0x2f
     6c8:	5c5a      	ldrb	r2, [r3, r1]
     6ca:	4382      	bics	r2, r0
     6cc:	545a      	strb	r2, [r3, r1]
     6ce:	4b0f      	ldr	r3, [pc, #60]	; (70c <system_init+0x110>)
     6d0:	4798      	blx	r3
     6d2:	4b0f      	ldr	r3, [pc, #60]	; (710 <system_init+0x114>)
     6d4:	4798      	blx	r3
     6d6:	4b0f      	ldr	r3, [pc, #60]	; (714 <system_init+0x118>)
     6d8:	4798      	blx	r3
     6da:	4b0f      	ldr	r3, [pc, #60]	; (718 <system_init+0x11c>)
     6dc:	4798      	blx	r3
     6de:	4b0f      	ldr	r3, [pc, #60]	; (71c <system_init+0x120>)
     6e0:	4798      	blx	r3
     6e2:	bc04      	pop	{r2}
     6e4:	4690      	mov	r8, r2
     6e6:	bdf0      	pop	{r4, r5, r6, r7, pc}
     6e8:	000010f1 	.word	0x000010f1
     6ec:	40000020 	.word	0x40000020
     6f0:	c0000800 	.word	0xc0000800
     6f4:	c0001000 	.word	0xc0001000
     6f8:	40020004 	.word	0x40020004
     6fc:	c0020000 	.word	0xc0020000
     700:	40020008 	.word	0x40020008
     704:	c0000040 	.word	0xc0000040
     708:	c0000080 	.word	0xc0000080
     70c:	00000379 	.word	0x00000379
     710:	00000481 	.word	0x00000481
     714:	00000509 	.word	0x00000509
     718:	00000581 	.word	0x00000581
     71c:	000005dd 	.word	0x000005dd

00000720 <adc_sync_init>:
     720:	b570      	push	{r4, r5, r6, lr}
     722:	0004      	movs	r4, r0
     724:	000d      	movs	r5, r1
     726:	2800      	cmp	r0, #0
     728:	d00c      	beq.n	744 <adc_sync_init+0x24>
     72a:	0008      	movs	r0, r1
     72c:	1e43      	subs	r3, r0, #1
     72e:	4198      	sbcs	r0, r3
     730:	b2c0      	uxtb	r0, r0
     732:	2239      	movs	r2, #57	; 0x39
     734:	4904      	ldr	r1, [pc, #16]	; (748 <adc_sync_init+0x28>)
     736:	4b05      	ldr	r3, [pc, #20]	; (74c <adc_sync_init+0x2c>)
     738:	4798      	blx	r3
     73a:	0029      	movs	r1, r5
     73c:	0020      	movs	r0, r4
     73e:	4b04      	ldr	r3, [pc, #16]	; (750 <adc_sync_init+0x30>)
     740:	4798      	blx	r3
     742:	bd70      	pop	{r4, r5, r6, pc}
     744:	2000      	movs	r0, #0
     746:	e7f4      	b.n	732 <adc_sync_init+0x12>
     748:	0000210c 	.word	0x0000210c
     74c:	00000cb5 	.word	0x00000cb5
     750:	00000f11 	.word	0x00000f11

00000754 <atomic_enter_critical>:
 */
__STATIC_FORCEINLINE uint32_t __get_PRIMASK(void)
{
  uint32_t result;

  __ASM volatile ("MRS %0, primask" : "=r" (result) :: "memory");
     754:	f3ef 8310 	mrs	r3, PRIMASK
     758:	6003      	str	r3, [r0, #0]
  __ASM volatile ("cpsid i" : : : "memory");
     75a:	b672      	cpsid	i
  \details Ensures the apparent order of the explicit memory operations before
           and after the instruction, without ensuring their completion.
 */
__STATIC_FORCEINLINE void __DMB(void)
{
  __ASM volatile ("dmb 0xF":::"memory");
     75c:	f3bf 8f5f 	dmb	sy
     760:	4770      	bx	lr

00000762 <atomic_leave_critical>:
     762:	f3bf 8f5f 	dmb	sy
     766:	6803      	ldr	r3, [r0, #0]
  __ASM volatile ("MSR primask, %0" : : "r" (priMask) : "memory");
     768:	f383 8810 	msr	PRIMASK, r3
     76c:	4770      	bx	lr

0000076e <can_tx_done>:
     76e:	b510      	push	{r4, lr}
     770:	69c3      	ldr	r3, [r0, #28]
     772:	2b00      	cmp	r3, #0
     774:	d000      	beq.n	778 <can_tx_done+0xa>
     776:	4798      	blx	r3
     778:	bd10      	pop	{r4, pc}

0000077a <can_rx_done>:
     77a:	b510      	push	{r4, lr}
     77c:	6a03      	ldr	r3, [r0, #32]
     77e:	2b00      	cmp	r3, #0
     780:	d000      	beq.n	784 <can_rx_done+0xa>
     782:	4798      	blx	r3
     784:	bd10      	pop	{r4, pc}

00000786 <can_irq_handler>:
     786:	b510      	push	{r4, lr}
     788:	6a43      	ldr	r3, [r0, #36]	; 0x24
     78a:	2b00      	cmp	r3, #0
     78c:	d000      	beq.n	790 <can_irq_handler+0xa>
     78e:	4798      	blx	r3
     790:	bd10      	pop	{r4, pc}
	...

00000794 <can_async_init>:
     794:	b570      	push	{r4, r5, r6, lr}
     796:	0005      	movs	r5, r0
     798:	000c      	movs	r4, r1
     79a:	2800      	cmp	r0, #0
     79c:	d014      	beq.n	7c8 <can_async_init+0x34>
     79e:	0008      	movs	r0, r1
     7a0:	1e43      	subs	r3, r0, #1
     7a2:	4198      	sbcs	r0, r3
     7a4:	b2c0      	uxtb	r0, r0
     7a6:	2241      	movs	r2, #65	; 0x41
     7a8:	4908      	ldr	r1, [pc, #32]	; (7cc <can_async_init+0x38>)
     7aa:	4b09      	ldr	r3, [pc, #36]	; (7d0 <can_async_init+0x3c>)
     7ac:	4798      	blx	r3
     7ae:	0021      	movs	r1, r4
     7b0:	0028      	movs	r0, r5
     7b2:	4b08      	ldr	r3, [pc, #32]	; (7d4 <can_async_init+0x40>)
     7b4:	4798      	blx	r3
     7b6:	2800      	cmp	r0, #0
     7b8:	d105      	bne.n	7c6 <can_async_init+0x32>
     7ba:	4b07      	ldr	r3, [pc, #28]	; (7d8 <can_async_init+0x44>)
     7bc:	606b      	str	r3, [r5, #4]
     7be:	4b07      	ldr	r3, [pc, #28]	; (7dc <can_async_init+0x48>)
     7c0:	60ab      	str	r3, [r5, #8]
     7c2:	4b07      	ldr	r3, [pc, #28]	; (7e0 <can_async_init+0x4c>)
     7c4:	60eb      	str	r3, [r5, #12]
     7c6:	bd70      	pop	{r4, r5, r6, pc}
     7c8:	2000      	movs	r0, #0
     7ca:	e7ec      	b.n	7a6 <can_async_init+0x12>
     7cc:	00002128 	.word	0x00002128
     7d0:	00000cb5 	.word	0x00000cb5
     7d4:	00000f4d 	.word	0x00000f4d
     7d8:	0000076f 	.word	0x0000076f
     7dc:	0000077b 	.word	0x0000077b
     7e0:	00000787 	.word	0x00000787

000007e4 <delay_ms>:
     7e4:	b510      	push	{r4, lr}
     7e6:	4b04      	ldr	r3, [pc, #16]	; (7f8 <delay_ms+0x14>)
     7e8:	681c      	ldr	r4, [r3, #0]
     7ea:	4b04      	ldr	r3, [pc, #16]	; (7fc <delay_ms+0x18>)
     7ec:	4798      	blx	r3
     7ee:	0001      	movs	r1, r0
     7f0:	0020      	movs	r0, r4
     7f2:	4b03      	ldr	r3, [pc, #12]	; (800 <delay_ms+0x1c>)
     7f4:	4798      	blx	r3
     7f6:	bd10      	pop	{r4, pc}
     7f8:	2000011c 	.word	0x2000011c
     7fc:	000010c9 	.word	0x000010c9
     800:	000010e9 	.word	0x000010e9

00000804 <io_write>:
     804:	b570      	push	{r4, r5, r6, lr}
     806:	0006      	movs	r6, r0
     808:	000c      	movs	r4, r1
     80a:	0015      	movs	r5, r2
     80c:	2800      	cmp	r0, #0
     80e:	d00d      	beq.n	82c <io_write+0x28>
     810:	0008      	movs	r0, r1
     812:	1e43      	subs	r3, r0, #1
     814:	4198      	sbcs	r0, r3
     816:	b2c0      	uxtb	r0, r0
     818:	2234      	movs	r2, #52	; 0x34
     81a:	4905      	ldr	r1, [pc, #20]	; (830 <io_write+0x2c>)
     81c:	4b05      	ldr	r3, [pc, #20]	; (834 <io_write+0x30>)
     81e:	4798      	blx	r3
     820:	6833      	ldr	r3, [r6, #0]
     822:	002a      	movs	r2, r5
     824:	0021      	movs	r1, r4
     826:	0030      	movs	r0, r6
     828:	4798      	blx	r3
     82a:	bd70      	pop	{r4, r5, r6, pc}
     82c:	2000      	movs	r0, #0
     82e:	e7f3      	b.n	818 <io_write+0x14>
     830:	00002144 	.word	0x00002144
     834:	00000cb5 	.word	0x00000cb5

00000838 <io_read>:
     838:	b570      	push	{r4, r5, r6, lr}
     83a:	0006      	movs	r6, r0
     83c:	000c      	movs	r4, r1
     83e:	0015      	movs	r5, r2
     840:	2800      	cmp	r0, #0
     842:	d00d      	beq.n	860 <io_read+0x28>
     844:	0008      	movs	r0, r1
     846:	1e43      	subs	r3, r0, #1
     848:	4198      	sbcs	r0, r3
     84a:	b2c0      	uxtb	r0, r0
     84c:	223d      	movs	r2, #61	; 0x3d
     84e:	4905      	ldr	r1, [pc, #20]	; (864 <io_read+0x2c>)
     850:	4b05      	ldr	r3, [pc, #20]	; (868 <io_read+0x30>)
     852:	4798      	blx	r3
     854:	6873      	ldr	r3, [r6, #4]
     856:	002a      	movs	r2, r5
     858:	0021      	movs	r1, r4
     85a:	0030      	movs	r0, r6
     85c:	4798      	blx	r3
     85e:	bd70      	pop	{r4, r5, r6, pc}
     860:	2000      	movs	r0, #0
     862:	e7f3      	b.n	84c <io_read+0x14>
     864:	00002144 	.word	0x00002144
     868:	00000cb5 	.word	0x00000cb5

0000086c <spi_m_sync_init>:
     86c:	b570      	push	{r4, r5, r6, lr}
     86e:	0004      	movs	r4, r0
     870:	000d      	movs	r5, r1
     872:	2800      	cmp	r0, #0
     874:	d016      	beq.n	8a4 <spi_m_sync_init+0x38>
     876:	0008      	movs	r0, r1
     878:	1e43      	subs	r3, r0, #1
     87a:	4198      	sbcs	r0, r3
     87c:	b2c0      	uxtb	r0, r0
     87e:	2240      	movs	r2, #64	; 0x40
     880:	4909      	ldr	r1, [pc, #36]	; (8a8 <spi_m_sync_init+0x3c>)
     882:	4b0a      	ldr	r3, [pc, #40]	; (8ac <spi_m_sync_init+0x40>)
     884:	4798      	blx	r3
     886:	6065      	str	r5, [r4, #4]
     888:	1d20      	adds	r0, r4, #4
     88a:	0029      	movs	r1, r5
     88c:	4b08      	ldr	r3, [pc, #32]	; (8b0 <spi_m_sync_init+0x44>)
     88e:	4798      	blx	r3
     890:	2800      	cmp	r0, #0
     892:	db06      	blt.n	8a2 <spi_m_sync_init+0x36>
     894:	4b07      	ldr	r3, [pc, #28]	; (8b4 <spi_m_sync_init+0x48>)
     896:	82a3      	strh	r3, [r4, #20]
     898:	4b07      	ldr	r3, [pc, #28]	; (8b8 <spi_m_sync_init+0x4c>)
     89a:	6123      	str	r3, [r4, #16]
     89c:	4b07      	ldr	r3, [pc, #28]	; (8bc <spi_m_sync_init+0x50>)
     89e:	60e3      	str	r3, [r4, #12]
     8a0:	2000      	movs	r0, #0
     8a2:	bd70      	pop	{r4, r5, r6, pc}
     8a4:	2000      	movs	r0, #0
     8a6:	e7ea      	b.n	87e <spi_m_sync_init+0x12>
     8a8:	00002158 	.word	0x00002158
     8ac:	00000cb5 	.word	0x00000cb5
     8b0:	00001425 	.word	0x00001425
     8b4:	ffff8000 	.word	0xffff8000
     8b8:	00000945 	.word	0x00000945
     8bc:	00000909 	.word	0x00000909

000008c0 <spi_m_sync_transfer>:
     8c0:	b530      	push	{r4, r5, lr}
     8c2:	b087      	sub	sp, #28
     8c4:	0004      	movs	r4, r0
     8c6:	000d      	movs	r5, r1
     8c8:	2800      	cmp	r0, #0
     8ca:	d014      	beq.n	8f6 <spi_m_sync_transfer+0x36>
     8cc:	0008      	movs	r0, r1
     8ce:	1e43      	subs	r3, r0, #1
     8d0:	4198      	sbcs	r0, r3
     8d2:	b2c0      	uxtb	r0, r0
     8d4:	22b3      	movs	r2, #179	; 0xb3
     8d6:	4909      	ldr	r1, [pc, #36]	; (8fc <spi_m_sync_transfer+0x3c>)
     8d8:	4b09      	ldr	r3, [pc, #36]	; (900 <spi_m_sync_transfer+0x40>)
     8da:	4798      	blx	r3
     8dc:	682b      	ldr	r3, [r5, #0]
     8de:	9303      	str	r3, [sp, #12]
     8e0:	686b      	ldr	r3, [r5, #4]
     8e2:	9304      	str	r3, [sp, #16]
     8e4:	68ab      	ldr	r3, [r5, #8]
     8e6:	9301      	str	r3, [sp, #4]
     8e8:	9305      	str	r3, [sp, #20]
     8ea:	1d20      	adds	r0, r4, #4
     8ec:	a903      	add	r1, sp, #12
     8ee:	4b05      	ldr	r3, [pc, #20]	; (904 <spi_m_sync_transfer+0x44>)
     8f0:	4798      	blx	r3
     8f2:	b007      	add	sp, #28
     8f4:	bd30      	pop	{r4, r5, pc}
     8f6:	2000      	movs	r0, #0
     8f8:	e7ec      	b.n	8d4 <spi_m_sync_transfer+0x14>
     8fa:	46c0      	nop			; (mov r8, r8)
     8fc:	00002158 	.word	0x00002158
     900:	00000cb5 	.word	0x00000cb5
     904:	0000151d 	.word	0x0000151d

00000908 <_spi_m_sync_io_write>:
     908:	b570      	push	{r4, r5, r6, lr}
     90a:	b084      	sub	sp, #16
     90c:	0004      	movs	r4, r0
     90e:	000e      	movs	r6, r1
     910:	0015      	movs	r5, r2
     912:	1e43      	subs	r3, r0, #1
     914:	4198      	sbcs	r0, r3
     916:	b2c0      	uxtb	r0, r0
     918:	22a3      	movs	r2, #163	; 0xa3
     91a:	4907      	ldr	r1, [pc, #28]	; (938 <_spi_m_sync_io_write+0x30>)
     91c:	4b07      	ldr	r3, [pc, #28]	; (93c <_spi_m_sync_io_write+0x34>)
     91e:	4798      	blx	r3
     920:	2300      	movs	r3, #0
     922:	9302      	str	r3, [sp, #8]
     924:	9601      	str	r6, [sp, #4]
     926:	9503      	str	r5, [sp, #12]
     928:	0020      	movs	r0, r4
     92a:	380c      	subs	r0, #12
     92c:	a901      	add	r1, sp, #4
     92e:	4b04      	ldr	r3, [pc, #16]	; (940 <_spi_m_sync_io_write+0x38>)
     930:	4798      	blx	r3
     932:	b004      	add	sp, #16
     934:	bd70      	pop	{r4, r5, r6, pc}
     936:	46c0      	nop			; (mov r8, r8)
     938:	00002158 	.word	0x00002158
     93c:	00000cb5 	.word	0x00000cb5
     940:	000008c1 	.word	0x000008c1

00000944 <_spi_m_sync_io_read>:
     944:	b570      	push	{r4, r5, r6, lr}
     946:	b084      	sub	sp, #16
     948:	0004      	movs	r4, r0
     94a:	000e      	movs	r6, r1
     94c:	0015      	movs	r5, r2
     94e:	1e43      	subs	r3, r0, #1
     950:	4198      	sbcs	r0, r3
     952:	b2c0      	uxtb	r0, r0
     954:	2287      	movs	r2, #135	; 0x87
     956:	4907      	ldr	r1, [pc, #28]	; (974 <_spi_m_sync_io_read+0x30>)
     958:	4b07      	ldr	r3, [pc, #28]	; (978 <_spi_m_sync_io_read+0x34>)
     95a:	4798      	blx	r3
     95c:	9602      	str	r6, [sp, #8]
     95e:	2300      	movs	r3, #0
     960:	9301      	str	r3, [sp, #4]
     962:	9503      	str	r5, [sp, #12]
     964:	0020      	movs	r0, r4
     966:	380c      	subs	r0, #12
     968:	a901      	add	r1, sp, #4
     96a:	4b04      	ldr	r3, [pc, #16]	; (97c <_spi_m_sync_io_read+0x38>)
     96c:	4798      	blx	r3
     96e:	b004      	add	sp, #16
     970:	bd70      	pop	{r4, r5, r6, pc}
     972:	46c0      	nop			; (mov r8, r8)
     974:	00002158 	.word	0x00002158
     978:	00000cb5 	.word	0x00000cb5
     97c:	000008c1 	.word	0x000008c1

00000980 <temp_sync_init>:
     980:	b570      	push	{r4, r5, r6, lr}
     982:	0004      	movs	r4, r0
     984:	000d      	movs	r5, r1
     986:	2800      	cmp	r0, #0
     988:	d00c      	beq.n	9a4 <temp_sync_init+0x24>
     98a:	0008      	movs	r0, r1
     98c:	1e43      	subs	r3, r0, #1
     98e:	4198      	sbcs	r0, r3
     990:	b2c0      	uxtb	r0, r0
     992:	222b      	movs	r2, #43	; 0x2b
     994:	4904      	ldr	r1, [pc, #16]	; (9a8 <temp_sync_init+0x28>)
     996:	4b05      	ldr	r3, [pc, #20]	; (9ac <temp_sync_init+0x2c>)
     998:	4798      	blx	r3
     99a:	0029      	movs	r1, r5
     99c:	0020      	movs	r0, r4
     99e:	4b04      	ldr	r3, [pc, #16]	; (9b0 <temp_sync_init+0x30>)
     9a0:	4798      	blx	r3
     9a2:	bd70      	pop	{r4, r5, r6, pc}
     9a4:	2000      	movs	r0, #0
     9a6:	e7f4      	b.n	992 <temp_sync_init+0x12>
     9a8:	00002174 	.word	0x00002174
     9ac:	00000cb5 	.word	0x00000cb5
     9b0:	0000162d 	.word	0x0000162d

000009b4 <usart_transmission_complete>:
     9b4:	b510      	push	{r4, lr}
     9b6:	3808      	subs	r0, #8
     9b8:	2300      	movs	r3, #0
     9ba:	6303      	str	r3, [r0, #48]	; 0x30
     9bc:	6a43      	ldr	r3, [r0, #36]	; 0x24
     9be:	2b00      	cmp	r3, #0
     9c0:	d000      	beq.n	9c4 <usart_transmission_complete+0x10>
     9c2:	4798      	blx	r3
     9c4:	bd10      	pop	{r4, pc}

000009c6 <usart_error>:
     9c6:	b510      	push	{r4, lr}
     9c8:	3808      	subs	r0, #8
     9ca:	2300      	movs	r3, #0
     9cc:	6303      	str	r3, [r0, #48]	; 0x30
     9ce:	6ac3      	ldr	r3, [r0, #44]	; 0x2c
     9d0:	2b00      	cmp	r3, #0
     9d2:	d000      	beq.n	9d6 <usart_error+0x10>
     9d4:	4798      	blx	r3
     9d6:	bd10      	pop	{r4, pc}

000009d8 <usart_fill_rx_buffer>:
     9d8:	b510      	push	{r4, lr}
     9da:	0004      	movs	r4, r0
     9dc:	302c      	adds	r0, #44	; 0x2c
     9de:	4b04      	ldr	r3, [pc, #16]	; (9f0 <usart_fill_rx_buffer+0x18>)
     9e0:	4798      	blx	r3
     9e2:	6a23      	ldr	r3, [r4, #32]
     9e4:	3c08      	subs	r4, #8
     9e6:	2b00      	cmp	r3, #0
     9e8:	d001      	beq.n	9ee <usart_fill_rx_buffer+0x16>
     9ea:	0020      	movs	r0, r4
     9ec:	4798      	blx	r3
     9ee:	bd10      	pop	{r4, pc}
     9f0:	00000d59 	.word	0x00000d59

000009f4 <usart_async_write>:
     9f4:	b570      	push	{r4, r5, r6, lr}
     9f6:	0004      	movs	r4, r0
     9f8:	000e      	movs	r6, r1
     9fa:	0015      	movs	r5, r2
     9fc:	2800      	cmp	r0, #0
     9fe:	d01d      	beq.n	a3c <usart_async_write+0x48>
     a00:	2900      	cmp	r1, #0
     a02:	d01d      	beq.n	a40 <usart_async_write+0x4c>
     a04:	0010      	movs	r0, r2
     a06:	1e43      	subs	r3, r0, #1
     a08:	4198      	sbcs	r0, r3
     a0a:	223c      	movs	r2, #60	; 0x3c
     a0c:	32ff      	adds	r2, #255	; 0xff
     a0e:	490f      	ldr	r1, [pc, #60]	; (a4c <usart_async_write+0x58>)
     a10:	4b0f      	ldr	r3, [pc, #60]	; (a50 <usart_async_write+0x5c>)
     a12:	4798      	blx	r3
     a14:	2344      	movs	r3, #68	; 0x44
     a16:	5ae2      	ldrh	r2, [r4, r3]
     a18:	3308      	adds	r3, #8
     a1a:	5ae3      	ldrh	r3, [r4, r3]
     a1c:	429a      	cmp	r2, r3
     a1e:	d111      	bne.n	a44 <usart_async_write+0x50>
     a20:	64a6      	str	r6, [r4, #72]	; 0x48
     a22:	234c      	movs	r3, #76	; 0x4c
     a24:	52e5      	strh	r5, [r4, r3]
     a26:	2200      	movs	r2, #0
     a28:	3b08      	subs	r3, #8
     a2a:	52e2      	strh	r2, [r4, r3]
     a2c:	3b43      	subs	r3, #67	; 0x43
     a2e:	6323      	str	r3, [r4, #48]	; 0x30
     a30:	0020      	movs	r0, r4
     a32:	3008      	adds	r0, #8
     a34:	4b07      	ldr	r3, [pc, #28]	; (a54 <usart_async_write+0x60>)
     a36:	4798      	blx	r3
     a38:	0028      	movs	r0, r5
     a3a:	bd70      	pop	{r4, r5, r6, pc}
     a3c:	2000      	movs	r0, #0
     a3e:	e7e4      	b.n	a0a <usart_async_write+0x16>
     a40:	2000      	movs	r0, #0
     a42:	e7e2      	b.n	a0a <usart_async_write+0x16>
     a44:	201c      	movs	r0, #28
     a46:	4240      	negs	r0, r0
     a48:	e7f7      	b.n	a3a <usart_async_write+0x46>
     a4a:	46c0      	nop			; (mov r8, r8)
     a4c:	00002190 	.word	0x00002190
     a50:	00000cb5 	.word	0x00000cb5
     a54:	00001335 	.word	0x00001335

00000a58 <usart_process_byte_sent>:
     a58:	b570      	push	{r4, r5, r6, lr}
     a5a:	0004      	movs	r4, r0
     a5c:	0001      	movs	r1, r0
     a5e:	3908      	subs	r1, #8
     a60:	8f83      	ldrh	r3, [r0, #60]	; 0x3c
     a62:	224c      	movs	r2, #76	; 0x4c
     a64:	5a8a      	ldrh	r2, [r1, r2]
     a66:	429a      	cmp	r2, r3
     a68:	d00c      	beq.n	a84 <usart_process_byte_sent+0x2c>
     a6a:	000a      	movs	r2, r1
     a6c:	6c89      	ldr	r1, [r1, #72]	; 0x48
     a6e:	1c5d      	adds	r5, r3, #1
     a70:	2044      	movs	r0, #68	; 0x44
     a72:	5215      	strh	r5, [r2, r0]
     a74:	5cc9      	ldrb	r1, [r1, r3]
     a76:	0020      	movs	r0, r4
     a78:	4b04      	ldr	r3, [pc, #16]	; (a8c <usart_process_byte_sent+0x34>)
     a7a:	4798      	blx	r3
     a7c:	0020      	movs	r0, r4
     a7e:	4b04      	ldr	r3, [pc, #16]	; (a90 <usart_process_byte_sent+0x38>)
     a80:	4798      	blx	r3
     a82:	bd70      	pop	{r4, r5, r6, pc}
     a84:	4b03      	ldr	r3, [pc, #12]	; (a94 <usart_process_byte_sent+0x3c>)
     a86:	4798      	blx	r3
     a88:	e7fb      	b.n	a82 <usart_process_byte_sent+0x2a>
     a8a:	46c0      	nop			; (mov r8, r8)
     a8c:	0000132d 	.word	0x0000132d
     a90:	00001335 	.word	0x00001335
     a94:	0000133d 	.word	0x0000133d

00000a98 <usart_async_read>:
     a98:	b5f0      	push	{r4, r5, r6, r7, lr}
     a9a:	46ce      	mov	lr, r9
     a9c:	4647      	mov	r7, r8
     a9e:	b580      	push	{r7, lr}
     aa0:	b085      	sub	sp, #20
     aa2:	0005      	movs	r5, r0
     aa4:	000e      	movs	r6, r1
     aa6:	0017      	movs	r7, r2
     aa8:	2800      	cmp	r0, #0
     aaa:	d015      	beq.n	ad8 <usart_async_read+0x40>
     aac:	2900      	cmp	r1, #0
     aae:	d013      	beq.n	ad8 <usart_async_read+0x40>
     ab0:	2a00      	cmp	r2, #0
     ab2:	d12a      	bne.n	b0a <usart_async_read+0x72>
     ab4:	22ac      	movs	r2, #172	; 0xac
     ab6:	0052      	lsls	r2, r2, #1
     ab8:	4929      	ldr	r1, [pc, #164]	; (b60 <usart_async_read+0xc8>)
     aba:	2000      	movs	r0, #0
     abc:	4b29      	ldr	r3, [pc, #164]	; (b64 <usart_async_read+0xcc>)
     abe:	4798      	blx	r3
     ac0:	a803      	add	r0, sp, #12
     ac2:	4b29      	ldr	r3, [pc, #164]	; (b68 <usart_async_read+0xd0>)
     ac4:	4798      	blx	r3
     ac6:	0028      	movs	r0, r5
     ac8:	3034      	adds	r0, #52	; 0x34
     aca:	4b28      	ldr	r3, [pc, #160]	; (b6c <usart_async_read+0xd4>)
     acc:	4798      	blx	r3
     ace:	a803      	add	r0, sp, #12
     ad0:	4b27      	ldr	r3, [pc, #156]	; (b70 <usart_async_read+0xd8>)
     ad2:	4798      	blx	r3
     ad4:	2500      	movs	r5, #0
     ad6:	e03c      	b.n	b52 <usart_async_read+0xba>
     ad8:	22ac      	movs	r2, #172	; 0xac
     ada:	0052      	lsls	r2, r2, #1
     adc:	4920      	ldr	r1, [pc, #128]	; (b60 <usart_async_read+0xc8>)
     ade:	2000      	movs	r0, #0
     ae0:	4b20      	ldr	r3, [pc, #128]	; (b64 <usart_async_read+0xcc>)
     ae2:	4798      	blx	r3
     ae4:	a803      	add	r0, sp, #12
     ae6:	4b20      	ldr	r3, [pc, #128]	; (b68 <usart_async_read+0xd0>)
     ae8:	4798      	blx	r3
     aea:	3534      	adds	r5, #52	; 0x34
     aec:	0028      	movs	r0, r5
     aee:	9501      	str	r5, [sp, #4]
     af0:	4b1e      	ldr	r3, [pc, #120]	; (b6c <usart_async_read+0xd4>)
     af2:	4798      	blx	r3
     af4:	4680      	mov	r8, r0
     af6:	a803      	add	r0, sp, #12
     af8:	4b1d      	ldr	r3, [pc, #116]	; (b70 <usart_async_read+0xd8>)
     afa:	4798      	blx	r3
     afc:	2500      	movs	r5, #0
     afe:	4643      	mov	r3, r8
     b00:	2b00      	cmp	r3, #0
     b02:	d026      	beq.n	b52 <usart_async_read+0xba>
     b04:	2f00      	cmp	r7, #0
     b06:	d116      	bne.n	b36 <usart_async_read+0x9e>
     b08:	e023      	b.n	b52 <usart_async_read+0xba>
     b0a:	22ac      	movs	r2, #172	; 0xac
     b0c:	0052      	lsls	r2, r2, #1
     b0e:	4914      	ldr	r1, [pc, #80]	; (b60 <usart_async_read+0xc8>)
     b10:	2001      	movs	r0, #1
     b12:	4b14      	ldr	r3, [pc, #80]	; (b64 <usart_async_read+0xcc>)
     b14:	4798      	blx	r3
     b16:	a803      	add	r0, sp, #12
     b18:	4b13      	ldr	r3, [pc, #76]	; (b68 <usart_async_read+0xd0>)
     b1a:	4798      	blx	r3
     b1c:	3534      	adds	r5, #52	; 0x34
     b1e:	0028      	movs	r0, r5
     b20:	9501      	str	r5, [sp, #4]
     b22:	4b12      	ldr	r3, [pc, #72]	; (b6c <usart_async_read+0xd4>)
     b24:	4798      	blx	r3
     b26:	4680      	mov	r8, r0
     b28:	a803      	add	r0, sp, #12
     b2a:	4b11      	ldr	r3, [pc, #68]	; (b70 <usart_async_read+0xd8>)
     b2c:	4798      	blx	r3
     b2e:	4643      	mov	r3, r8
     b30:	2500      	movs	r5, #0
     b32:	2b00      	cmp	r3, #0
     b34:	d00d      	beq.n	b52 <usart_async_read+0xba>
     b36:	2400      	movs	r4, #0
     b38:	4b0e      	ldr	r3, [pc, #56]	; (b74 <usart_async_read+0xdc>)
     b3a:	4699      	mov	r9, r3
     b3c:	1c65      	adds	r5, r4, #1
     b3e:	b2ad      	uxth	r5, r5
     b40:	1931      	adds	r1, r6, r4
     b42:	9801      	ldr	r0, [sp, #4]
     b44:	47c8      	blx	r9
     b46:	3401      	adds	r4, #1
     b48:	4544      	cmp	r4, r8
     b4a:	d202      	bcs.n	b52 <usart_async_read+0xba>
     b4c:	b2a3      	uxth	r3, r4
     b4e:	429f      	cmp	r7, r3
     b50:	d8f4      	bhi.n	b3c <usart_async_read+0xa4>
     b52:	0028      	movs	r0, r5
     b54:	b005      	add	sp, #20
     b56:	bc0c      	pop	{r2, r3}
     b58:	4690      	mov	r8, r2
     b5a:	4699      	mov	r9, r3
     b5c:	bdf0      	pop	{r4, r5, r6, r7, pc}
     b5e:	46c0      	nop			; (mov r8, r8)
     b60:	00002190 	.word	0x00002190
     b64:	00000cb5 	.word	0x00000cb5
     b68:	00000755 	.word	0x00000755
     b6c:	00000d99 	.word	0x00000d99
     b70:	00000763 	.word	0x00000763
     b74:	00000d11 	.word	0x00000d11

00000b78 <usart_async_init>:
     b78:	b5f8      	push	{r3, r4, r5, r6, r7, lr}
     b7a:	0004      	movs	r4, r0
     b7c:	000d      	movs	r5, r1
     b7e:	0016      	movs	r6, r2
     b80:	001f      	movs	r7, r3
     b82:	2800      	cmp	r0, #0
     b84:	d026      	beq.n	bd4 <usart_async_init+0x5c>
     b86:	2900      	cmp	r1, #0
     b88:	d026      	beq.n	bd8 <usart_async_init+0x60>
     b8a:	2a00      	cmp	r2, #0
     b8c:	d026      	beq.n	bdc <usart_async_init+0x64>
     b8e:	0018      	movs	r0, r3
     b90:	1e43      	subs	r3, r0, #1
     b92:	4198      	sbcs	r0, r3
     b94:	223a      	movs	r2, #58	; 0x3a
     b96:	4914      	ldr	r1, [pc, #80]	; (be8 <usart_async_init+0x70>)
     b98:	4b14      	ldr	r3, [pc, #80]	; (bec <usart_async_init+0x74>)
     b9a:	4798      	blx	r3
     b9c:	0020      	movs	r0, r4
     b9e:	3034      	adds	r0, #52	; 0x34
     ba0:	003a      	movs	r2, r7
     ba2:	0031      	movs	r1, r6
     ba4:	4b12      	ldr	r3, [pc, #72]	; (bf0 <usart_async_init+0x78>)
     ba6:	4798      	blx	r3
     ba8:	2800      	cmp	r0, #0
     baa:	d119      	bne.n	be0 <usart_async_init+0x68>
     bac:	0020      	movs	r0, r4
     bae:	3008      	adds	r0, #8
     bb0:	0029      	movs	r1, r5
     bb2:	4b10      	ldr	r3, [pc, #64]	; (bf4 <usart_async_init+0x7c>)
     bb4:	4798      	blx	r3
     bb6:	2800      	cmp	r0, #0
     bb8:	d10b      	bne.n	bd2 <usart_async_init+0x5a>
     bba:	4b0f      	ldr	r3, [pc, #60]	; (bf8 <usart_async_init+0x80>)
     bbc:	6063      	str	r3, [r4, #4]
     bbe:	4b0f      	ldr	r3, [pc, #60]	; (bfc <usart_async_init+0x84>)
     bc0:	6023      	str	r3, [r4, #0]
     bc2:	4b0f      	ldr	r3, [pc, #60]	; (c00 <usart_async_init+0x88>)
     bc4:	60a3      	str	r3, [r4, #8]
     bc6:	4b0f      	ldr	r3, [pc, #60]	; (c04 <usart_async_init+0x8c>)
     bc8:	60e3      	str	r3, [r4, #12]
     bca:	4b0f      	ldr	r3, [pc, #60]	; (c08 <usart_async_init+0x90>)
     bcc:	6123      	str	r3, [r4, #16]
     bce:	4b0f      	ldr	r3, [pc, #60]	; (c0c <usart_async_init+0x94>)
     bd0:	6163      	str	r3, [r4, #20]
     bd2:	bdf8      	pop	{r3, r4, r5, r6, r7, pc}
     bd4:	2000      	movs	r0, #0
     bd6:	e7dd      	b.n	b94 <usart_async_init+0x1c>
     bd8:	2000      	movs	r0, #0
     bda:	e7db      	b.n	b94 <usart_async_init+0x1c>
     bdc:	2000      	movs	r0, #0
     bde:	e7d9      	b.n	b94 <usart_async_init+0x1c>
     be0:	200d      	movs	r0, #13
     be2:	4240      	negs	r0, r0
     be4:	e7f5      	b.n	bd2 <usart_async_init+0x5a>
     be6:	46c0      	nop			; (mov r8, r8)
     be8:	00002190 	.word	0x00002190
     bec:	00000cb5 	.word	0x00000cb5
     bf0:	00000cbd 	.word	0x00000cbd
     bf4:	0000129d 	.word	0x0000129d
     bf8:	00000a99 	.word	0x00000a99
     bfc:	000009f5 	.word	0x000009f5
     c00:	00000a59 	.word	0x00000a59
     c04:	000009d9 	.word	0x000009d9
     c08:	000009b5 	.word	0x000009b5
     c0c:	000009c7 	.word	0x000009c7

00000c10 <usart_async_enable>:
     c10:	b510      	push	{r4, lr}
     c12:	0004      	movs	r4, r0
     c14:	1e43      	subs	r3, r0, #1
     c16:	4198      	sbcs	r0, r3
     c18:	b2c0      	uxtb	r0, r0
     c1a:	2261      	movs	r2, #97	; 0x61
     c1c:	4904      	ldr	r1, [pc, #16]	; (c30 <usart_async_enable+0x20>)
     c1e:	4b05      	ldr	r3, [pc, #20]	; (c34 <usart_async_enable+0x24>)
     c20:	4798      	blx	r3
     c22:	0020      	movs	r0, r4
     c24:	3008      	adds	r0, #8
     c26:	4b04      	ldr	r3, [pc, #16]	; (c38 <usart_async_enable+0x28>)
     c28:	4798      	blx	r3
     c2a:	2000      	movs	r0, #0
     c2c:	bd10      	pop	{r4, pc}
     c2e:	46c0      	nop			; (mov r8, r8)
     c30:	00002190 	.word	0x00002190
     c34:	00000cb5 	.word	0x00000cb5
     c38:	00001319 	.word	0x00001319

00000c3c <usart_async_register_callback>:
     c3c:	b570      	push	{r4, r5, r6, lr}
     c3e:	0005      	movs	r5, r0
     c40:	000e      	movs	r6, r1
     c42:	0014      	movs	r4, r2
     c44:	1e43      	subs	r3, r0, #1
     c46:	4198      	sbcs	r0, r3
     c48:	b2c0      	uxtb	r0, r0
     c4a:	2283      	movs	r2, #131	; 0x83
     c4c:	4916      	ldr	r1, [pc, #88]	; (ca8 <usart_async_register_callback+0x6c>)
     c4e:	4b17      	ldr	r3, [pc, #92]	; (cac <usart_async_register_callback+0x70>)
     c50:	4798      	blx	r3
     c52:	2e01      	cmp	r6, #1
     c54:	d011      	beq.n	c7a <usart_async_register_callback+0x3e>
     c56:	2e00      	cmp	r6, #0
     c58:	d004      	beq.n	c64 <usart_async_register_callback+0x28>
     c5a:	2e02      	cmp	r6, #2
     c5c:	d018      	beq.n	c90 <usart_async_register_callback+0x54>
     c5e:	200d      	movs	r0, #13
     c60:	4240      	negs	r0, r0
     c62:	e009      	b.n	c78 <usart_async_register_callback+0x3c>
     c64:	62ac      	str	r4, [r5, #40]	; 0x28
     c66:	1e62      	subs	r2, r4, #1
     c68:	4194      	sbcs	r4, r2
     c6a:	b2e2      	uxtb	r2, r4
     c6c:	0028      	movs	r0, r5
     c6e:	3008      	adds	r0, #8
     c70:	2101      	movs	r1, #1
     c72:	4b0f      	ldr	r3, [pc, #60]	; (cb0 <usart_async_register_callback+0x74>)
     c74:	4798      	blx	r3
     c76:	2000      	movs	r0, #0
     c78:	bd70      	pop	{r4, r5, r6, pc}
     c7a:	626c      	str	r4, [r5, #36]	; 0x24
     c7c:	1e62      	subs	r2, r4, #1
     c7e:	4194      	sbcs	r4, r2
     c80:	b2e2      	uxtb	r2, r4
     c82:	0028      	movs	r0, r5
     c84:	3008      	adds	r0, #8
     c86:	2102      	movs	r1, #2
     c88:	4b09      	ldr	r3, [pc, #36]	; (cb0 <usart_async_register_callback+0x74>)
     c8a:	4798      	blx	r3
     c8c:	2000      	movs	r0, #0
     c8e:	e7f3      	b.n	c78 <usart_async_register_callback+0x3c>
     c90:	62ec      	str	r4, [r5, #44]	; 0x2c
     c92:	1e62      	subs	r2, r4, #1
     c94:	4194      	sbcs	r4, r2
     c96:	b2e2      	uxtb	r2, r4
     c98:	0028      	movs	r0, r5
     c9a:	3008      	adds	r0, #8
     c9c:	2103      	movs	r1, #3
     c9e:	4b04      	ldr	r3, [pc, #16]	; (cb0 <usart_async_register_callback+0x74>)
     ca0:	4798      	blx	r3
     ca2:	2000      	movs	r0, #0
     ca4:	e7e8      	b.n	c78 <usart_async_register_callback+0x3c>
     ca6:	46c0      	nop			; (mov r8, r8)
     ca8:	00002190 	.word	0x00002190
     cac:	00000cb5 	.word	0x00000cb5
     cb0:	00001345 	.word	0x00001345

00000cb4 <assert>:
     cb4:	2800      	cmp	r0, #0
     cb6:	d100      	bne.n	cba <assert+0x6>
     cb8:	be00      	bkpt	0x0000
     cba:	4770      	bx	lr

00000cbc <ringbuffer_init>:
     cbc:	b570      	push	{r4, r5, r6, lr}
     cbe:	0004      	movs	r4, r0
     cc0:	000e      	movs	r6, r1
     cc2:	0015      	movs	r5, r2
     cc4:	2800      	cmp	r0, #0
     cc6:	d00b      	beq.n	ce0 <ringbuffer_init+0x24>
     cc8:	2900      	cmp	r1, #0
     cca:	d018      	beq.n	cfe <ringbuffer_init+0x42>
     ccc:	2001      	movs	r0, #1
     cce:	2a00      	cmp	r2, #0
     cd0:	d107      	bne.n	ce2 <ringbuffer_init+0x26>
     cd2:	2228      	movs	r2, #40	; 0x28
     cd4:	490c      	ldr	r1, [pc, #48]	; (d08 <ringbuffer_init+0x4c>)
     cd6:	2000      	movs	r0, #0
     cd8:	4b0c      	ldr	r3, [pc, #48]	; (d0c <ringbuffer_init+0x50>)
     cda:	4798      	blx	r3
     cdc:	1e6b      	subs	r3, r5, #1
     cde:	e007      	b.n	cf0 <ringbuffer_init+0x34>
     ce0:	2000      	movs	r0, #0
     ce2:	2228      	movs	r2, #40	; 0x28
     ce4:	4908      	ldr	r1, [pc, #32]	; (d08 <ringbuffer_init+0x4c>)
     ce6:	4b09      	ldr	r3, [pc, #36]	; (d0c <ringbuffer_init+0x50>)
     ce8:	4798      	blx	r3
     cea:	1e6b      	subs	r3, r5, #1
     cec:	422b      	tst	r3, r5
     cee:	d108      	bne.n	d02 <ringbuffer_init+0x46>
     cf0:	6063      	str	r3, [r4, #4]
     cf2:	2300      	movs	r3, #0
     cf4:	60a3      	str	r3, [r4, #8]
     cf6:	60e3      	str	r3, [r4, #12]
     cf8:	6026      	str	r6, [r4, #0]
     cfa:	2000      	movs	r0, #0
     cfc:	bd70      	pop	{r4, r5, r6, pc}
     cfe:	2000      	movs	r0, #0
     d00:	e7ef      	b.n	ce2 <ringbuffer_init+0x26>
     d02:	200d      	movs	r0, #13
     d04:	4240      	negs	r0, r0
     d06:	e7f9      	b.n	cfc <ringbuffer_init+0x40>
     d08:	000021b0 	.word	0x000021b0
     d0c:	00000cb5 	.word	0x00000cb5

00000d10 <ringbuffer_get>:
     d10:	b570      	push	{r4, r5, r6, lr}
     d12:	0004      	movs	r4, r0
     d14:	000d      	movs	r5, r1
     d16:	2800      	cmp	r0, #0
     d18:	d015      	beq.n	d46 <ringbuffer_get+0x36>
     d1a:	0008      	movs	r0, r1
     d1c:	1e43      	subs	r3, r0, #1
     d1e:	4198      	sbcs	r0, r3
     d20:	b2c0      	uxtb	r0, r0
     d22:	2240      	movs	r2, #64	; 0x40
     d24:	490a      	ldr	r1, [pc, #40]	; (d50 <ringbuffer_get+0x40>)
     d26:	4b0b      	ldr	r3, [pc, #44]	; (d54 <ringbuffer_get+0x44>)
     d28:	4798      	blx	r3
     d2a:	68a3      	ldr	r3, [r4, #8]
     d2c:	68e2      	ldr	r2, [r4, #12]
     d2e:	429a      	cmp	r2, r3
     d30:	d00b      	beq.n	d4a <ringbuffer_get+0x3a>
     d32:	6862      	ldr	r2, [r4, #4]
     d34:	4013      	ands	r3, r2
     d36:	6822      	ldr	r2, [r4, #0]
     d38:	5cd3      	ldrb	r3, [r2, r3]
     d3a:	702b      	strb	r3, [r5, #0]
     d3c:	68a3      	ldr	r3, [r4, #8]
     d3e:	3301      	adds	r3, #1
     d40:	60a3      	str	r3, [r4, #8]
     d42:	2000      	movs	r0, #0
     d44:	bd70      	pop	{r4, r5, r6, pc}
     d46:	2000      	movs	r0, #0
     d48:	e7eb      	b.n	d22 <ringbuffer_get+0x12>
     d4a:	200a      	movs	r0, #10
     d4c:	4240      	negs	r0, r0
     d4e:	e7f9      	b.n	d44 <ringbuffer_get+0x34>
     d50:	000021b0 	.word	0x000021b0
     d54:	00000cb5 	.word	0x00000cb5

00000d58 <ringbuffer_put>:
     d58:	b570      	push	{r4, r5, r6, lr}
     d5a:	0004      	movs	r4, r0
     d5c:	000d      	movs	r5, r1
     d5e:	1e43      	subs	r3, r0, #1
     d60:	4198      	sbcs	r0, r3
     d62:	b2c0      	uxtb	r0, r0
     d64:	2251      	movs	r2, #81	; 0x51
     d66:	490a      	ldr	r1, [pc, #40]	; (d90 <ringbuffer_put+0x38>)
     d68:	4b0a      	ldr	r3, [pc, #40]	; (d94 <ringbuffer_put+0x3c>)
     d6a:	4798      	blx	r3
     d6c:	6863      	ldr	r3, [r4, #4]
     d6e:	68e2      	ldr	r2, [r4, #12]
     d70:	4013      	ands	r3, r2
     d72:	6822      	ldr	r2, [r4, #0]
     d74:	54d5      	strb	r5, [r2, r3]
     d76:	68e3      	ldr	r3, [r4, #12]
     d78:	6861      	ldr	r1, [r4, #4]
     d7a:	68a2      	ldr	r2, [r4, #8]
     d7c:	1a9a      	subs	r2, r3, r2
     d7e:	428a      	cmp	r2, r1
     d80:	d901      	bls.n	d86 <ringbuffer_put+0x2e>
     d82:	1a59      	subs	r1, r3, r1
     d84:	60a1      	str	r1, [r4, #8]
     d86:	3301      	adds	r3, #1
     d88:	60e3      	str	r3, [r4, #12]
     d8a:	2000      	movs	r0, #0
     d8c:	bd70      	pop	{r4, r5, r6, pc}
     d8e:	46c0      	nop			; (mov r8, r8)
     d90:	000021b0 	.word	0x000021b0
     d94:	00000cb5 	.word	0x00000cb5

00000d98 <ringbuffer_num>:
     d98:	b510      	push	{r4, lr}
     d9a:	0004      	movs	r4, r0
     d9c:	1e43      	subs	r3, r0, #1
     d9e:	4198      	sbcs	r0, r3
     da0:	b2c0      	uxtb	r0, r0
     da2:	2267      	movs	r2, #103	; 0x67
     da4:	4903      	ldr	r1, [pc, #12]	; (db4 <ringbuffer_num+0x1c>)
     da6:	4b04      	ldr	r3, [pc, #16]	; (db8 <ringbuffer_num+0x20>)
     da8:	4798      	blx	r3
     daa:	68e0      	ldr	r0, [r4, #12]
     dac:	68a3      	ldr	r3, [r4, #8]
     dae:	1ac0      	subs	r0, r0, r3
     db0:	bd10      	pop	{r4, pc}
     db2:	46c0      	nop			; (mov r8, r8)
     db4:	000021b0 	.word	0x000021b0
     db8:	00000cb5 	.word	0x00000cb5

00000dbc <_adc_init>:
     dbc:	b510      	push	{r4, lr}
     dbe:	8c03      	ldrh	r3, [r0, #32]
     dc0:	07db      	lsls	r3, r3, #31
     dc2:	d418      	bmi.n	df6 <_adc_init+0x3a>
     dc4:	2203      	movs	r2, #3
     dc6:	8c03      	ldrh	r3, [r0, #32]
     dc8:	4213      	tst	r3, r2
     dca:	d1fc      	bne.n	dc6 <_adc_init+0xa>
     dcc:	7803      	ldrb	r3, [r0, #0]
     dce:	079b      	lsls	r3, r3, #30
     dd0:	d50b      	bpl.n	dea <_adc_init+0x2e>
     dd2:	7803      	ldrb	r3, [r0, #0]
     dd4:	2202      	movs	r2, #2
     dd6:	4393      	bics	r3, r2
     dd8:	7003      	strb	r3, [r0, #0]
     dda:	3201      	adds	r2, #1
     ddc:	8c03      	ldrh	r3, [r0, #32]
     dde:	4213      	tst	r3, r2
     de0:	d1fc      	bne.n	ddc <_adc_init+0x20>
     de2:	2202      	movs	r2, #2
     de4:	8c03      	ldrh	r3, [r0, #32]
     de6:	4213      	tst	r3, r2
     de8:	d1fc      	bne.n	de4 <_adc_init+0x28>
     dea:	2301      	movs	r3, #1
     dec:	7003      	strb	r3, [r0, #0]
     dee:	2203      	movs	r2, #3
     df0:	8c03      	ldrh	r3, [r0, #32]
     df2:	4213      	tst	r3, r2
     df4:	d1fc      	bne.n	df0 <_adc_init+0x34>
     df6:	2201      	movs	r2, #1
     df8:	8c03      	ldrh	r3, [r0, #32]
     dfa:	4213      	tst	r3, r2
     dfc:	d1fc      	bne.n	df8 <_adc_init+0x3c>
     dfe:	00ca      	lsls	r2, r1, #3
     e00:	1a52      	subs	r2, r2, r1
     e02:	0092      	lsls	r2, r2, #2
     e04:	4b36      	ldr	r3, [pc, #216]	; (ee0 <_adc_init+0x124>)
     e06:	189b      	adds	r3, r3, r2
     e08:	789a      	ldrb	r2, [r3, #2]
     e0a:	7042      	strb	r2, [r0, #1]
     e0c:	78da      	ldrb	r2, [r3, #3]
     e0e:	7082      	strb	r2, [r0, #2]
     e10:	791a      	ldrb	r2, [r3, #4]
     e12:	70c2      	strb	r2, [r0, #3]
     e14:	88db      	ldrh	r3, [r3, #6]
     e16:	8103      	strh	r3, [r0, #8]
     e18:	8c03      	ldrh	r3, [r0, #32]
     e1a:	055b      	lsls	r3, r3, #21
     e1c:	d1fc      	bne.n	e18 <_adc_init+0x5c>
     e1e:	00cb      	lsls	r3, r1, #3
     e20:	1a5b      	subs	r3, r3, r1
     e22:	009b      	lsls	r3, r3, #2
     e24:	4a2e      	ldr	r2, [pc, #184]	; (ee0 <_adc_init+0x124>)
     e26:	18d3      	adds	r3, r2, r3
     e28:	891b      	ldrh	r3, [r3, #8]
     e2a:	8143      	strh	r3, [r0, #10]
     e2c:	8c03      	ldrh	r3, [r0, #32]
     e2e:	055b      	lsls	r3, r3, #21
     e30:	d1fc      	bne.n	e2c <_adc_init+0x70>
     e32:	00cb      	lsls	r3, r1, #3
     e34:	1a5b      	subs	r3, r3, r1
     e36:	009b      	lsls	r3, r3, #2
     e38:	4a29      	ldr	r2, [pc, #164]	; (ee0 <_adc_init+0x124>)
     e3a:	18d3      	adds	r3, r2, r3
     e3c:	7a9b      	ldrb	r3, [r3, #10]
     e3e:	7303      	strb	r3, [r0, #12]
     e40:	8c03      	ldrh	r3, [r0, #32]
     e42:	055b      	lsls	r3, r3, #21
     e44:	d1fc      	bne.n	e40 <_adc_init+0x84>
     e46:	00cb      	lsls	r3, r1, #3
     e48:	1a5b      	subs	r3, r3, r1
     e4a:	009b      	lsls	r3, r3, #2
     e4c:	4a24      	ldr	r2, [pc, #144]	; (ee0 <_adc_init+0x124>)
     e4e:	18d3      	adds	r3, r2, r3
     e50:	7adb      	ldrb	r3, [r3, #11]
     e52:	7343      	strb	r3, [r0, #13]
     e54:	8c03      	ldrh	r3, [r0, #32]
     e56:	055b      	lsls	r3, r3, #21
     e58:	d1fc      	bne.n	e54 <_adc_init+0x98>
     e5a:	00cb      	lsls	r3, r1, #3
     e5c:	1a5b      	subs	r3, r3, r1
     e5e:	009b      	lsls	r3, r3, #2
     e60:	4a1f      	ldr	r2, [pc, #124]	; (ee0 <_adc_init+0x124>)
     e62:	18d3      	adds	r3, r2, r3
     e64:	899b      	ldrh	r3, [r3, #12]
     e66:	81c3      	strh	r3, [r0, #14]
     e68:	2240      	movs	r2, #64	; 0x40
     e6a:	8c03      	ldrh	r3, [r0, #32]
     e6c:	4213      	tst	r3, r2
     e6e:	d1fc      	bne.n	e6a <_adc_init+0xae>
     e70:	00cb      	lsls	r3, r1, #3
     e72:	1a5b      	subs	r3, r3, r1
     e74:	009b      	lsls	r3, r3, #2
     e76:	4a1a      	ldr	r2, [pc, #104]	; (ee0 <_adc_init+0x124>)
     e78:	18d3      	adds	r3, r2, r3
     e7a:	89db      	ldrh	r3, [r3, #14]
     e7c:	8203      	strh	r3, [r0, #16]
     e7e:	2280      	movs	r2, #128	; 0x80
     e80:	8c03      	ldrh	r3, [r0, #32]
     e82:	4213      	tst	r3, r2
     e84:	d1fc      	bne.n	e80 <_adc_init+0xc4>
     e86:	00cb      	lsls	r3, r1, #3
     e88:	1a5b      	subs	r3, r3, r1
     e8a:	009b      	lsls	r3, r3, #2
     e8c:	4a14      	ldr	r2, [pc, #80]	; (ee0 <_adc_init+0x124>)
     e8e:	18d3      	adds	r3, r2, r3
     e90:	8a1b      	ldrh	r3, [r3, #16]
     e92:	8243      	strh	r3, [r0, #18]
     e94:	2280      	movs	r2, #128	; 0x80
     e96:	0052      	lsls	r2, r2, #1
     e98:	8c03      	ldrh	r3, [r0, #32]
     e9a:	4213      	tst	r3, r2
     e9c:	d1fc      	bne.n	e98 <_adc_init+0xdc>
     e9e:	00cb      	lsls	r3, r1, #3
     ea0:	1a5b      	subs	r3, r3, r1
     ea2:	009b      	lsls	r3, r3, #2
     ea4:	4a0e      	ldr	r2, [pc, #56]	; (ee0 <_adc_init+0x124>)
     ea6:	18d3      	adds	r3, r2, r3
     ea8:	8a5b      	ldrh	r3, [r3, #18]
     eaa:	8283      	strh	r3, [r0, #20]
     eac:	2280      	movs	r2, #128	; 0x80
     eae:	0092      	lsls	r2, r2, #2
     eb0:	8c03      	ldrh	r3, [r0, #32]
     eb2:	4213      	tst	r3, r2
     eb4:	d1fc      	bne.n	eb0 <_adc_init+0xf4>
     eb6:	4c0a      	ldr	r4, [pc, #40]	; (ee0 <_adc_init+0x124>)
     eb8:	00cb      	lsls	r3, r1, #3
     eba:	1a5a      	subs	r2, r3, r1
     ebc:	0092      	lsls	r2, r2, #2
     ebe:	18a2      	adds	r2, r4, r2
     ec0:	7d12      	ldrb	r2, [r2, #20]
     ec2:	7702      	strb	r2, [r0, #28]
     ec4:	2200      	movs	r2, #0
     ec6:	6282      	str	r2, [r0, #40]	; 0x28
     ec8:	1a59      	subs	r1, r3, r1
     eca:	0089      	lsls	r1, r1, #2
     ecc:	1861      	adds	r1, r4, r1
     ece:	784b      	ldrb	r3, [r1, #1]
     ed0:	7003      	strb	r3, [r0, #0]
     ed2:	3203      	adds	r2, #3
     ed4:	8c03      	ldrh	r3, [r0, #32]
     ed6:	4213      	tst	r3, r2
     ed8:	d1fc      	bne.n	ed4 <_adc_init+0x118>
     eda:	2000      	movs	r0, #0
     edc:	bd10      	pop	{r4, pc}
     ede:	46c0      	nop			; (mov r8, r8)
     ee0:	000021d4 	.word	0x000021d4

00000ee4 <_adc_get_regs>:
     ee4:	b510      	push	{r4, lr}
     ee6:	4b07      	ldr	r3, [pc, #28]	; (f04 <_adc_get_regs+0x20>)
     ee8:	469c      	mov	ip, r3
     eea:	4460      	add	r0, ip
     eec:	0a80      	lsrs	r0, r0, #10
     eee:	b2c0      	uxtb	r0, r0
     ef0:	2800      	cmp	r0, #0
     ef2:	d004      	beq.n	efe <_adc_get_regs+0x1a>
     ef4:	228d      	movs	r2, #141	; 0x8d
     ef6:	4904      	ldr	r1, [pc, #16]	; (f08 <_adc_get_regs+0x24>)
     ef8:	2000      	movs	r0, #0
     efa:	4b04      	ldr	r3, [pc, #16]	; (f0c <_adc_get_regs+0x28>)
     efc:	4798      	blx	r3
     efe:	2000      	movs	r0, #0
     f00:	bd10      	pop	{r4, pc}
     f02:	46c0      	nop			; (mov r8, r8)
     f04:	bdffbc00 	.word	0xbdffbc00
     f08:	000021f0 	.word	0x000021f0
     f0c:	00000cb5 	.word	0x00000cb5

00000f10 <_adc_sync_init>:
     f10:	b570      	push	{r4, r5, r6, lr}
     f12:	0005      	movs	r5, r0
     f14:	000c      	movs	r4, r1
     f16:	1e43      	subs	r3, r0, #1
     f18:	4198      	sbcs	r0, r3
     f1a:	b2c0      	uxtb	r0, r0
     f1c:	22d4      	movs	r2, #212	; 0xd4
     f1e:	4906      	ldr	r1, [pc, #24]	; (f38 <_adc_sync_init+0x28>)
     f20:	4b06      	ldr	r3, [pc, #24]	; (f3c <_adc_sync_init+0x2c>)
     f22:	4798      	blx	r3
     f24:	602c      	str	r4, [r5, #0]
     f26:	0020      	movs	r0, r4
     f28:	4b05      	ldr	r3, [pc, #20]	; (f40 <_adc_sync_init+0x30>)
     f2a:	4798      	blx	r3
     f2c:	0001      	movs	r1, r0
     f2e:	0020      	movs	r0, r4
     f30:	4b04      	ldr	r3, [pc, #16]	; (f44 <_adc_sync_init+0x34>)
     f32:	4798      	blx	r3
     f34:	bd70      	pop	{r4, r5, r6, pc}
     f36:	46c0      	nop			; (mov r8, r8)
     f38:	000021f0 	.word	0x000021f0
     f3c:	00000cb5 	.word	0x00000cb5
     f40:	00000ee5 	.word	0x00000ee5
     f44:	00000dbd 	.word	0x00000dbd

00000f48 <_adc_get_adc_sync>:
     f48:	2000      	movs	r0, #0
     f4a:	4770      	bx	lr

00000f4c <_can_async_init>:
     f4c:	b5f0      	push	{r4, r5, r6, r7, lr}
     f4e:	6001      	str	r1, [r0, #0]
     f50:	698b      	ldr	r3, [r1, #24]
     f52:	2201      	movs	r2, #1
     f54:	4313      	orrs	r3, r2
     f56:	618b      	str	r3, [r1, #24]
     f58:	6802      	ldr	r2, [r0, #0]
     f5a:	2401      	movs	r4, #1
     f5c:	6993      	ldr	r3, [r2, #24]
     f5e:	421c      	tst	r4, r3
     f60:	d0fc      	beq.n	f5c <_can_async_init+0x10>
     f62:	6993      	ldr	r3, [r2, #24]
     f64:	2402      	movs	r4, #2
     f66:	4323      	orrs	r3, r4
     f68:	6193      	str	r3, [r2, #24]
     f6a:	4b34      	ldr	r3, [pc, #208]	; (103c <_can_async_init+0xf0>)
     f6c:	4299      	cmp	r1, r3
     f6e:	d010      	beq.n	f92 <_can_async_init+0x46>
     f70:	6802      	ldr	r2, [r0, #0]
     f72:	6993      	ldr	r3, [r2, #24]
     f74:	2102      	movs	r1, #2
     f76:	438b      	bics	r3, r1
     f78:	6193      	str	r3, [r2, #24]
     f7a:	6802      	ldr	r2, [r0, #0]
     f7c:	6993      	ldr	r3, [r2, #24]
     f7e:	3901      	subs	r1, #1
     f80:	438b      	bics	r3, r1
     f82:	6193      	str	r3, [r2, #24]
     f84:	6801      	ldr	r1, [r0, #0]
     f86:	2201      	movs	r2, #1
     f88:	698b      	ldr	r3, [r1, #24]
     f8a:	421a      	tst	r2, r3
     f8c:	d1fc      	bne.n	f88 <_can_async_init+0x3c>
     f8e:	2000      	movs	r0, #0
     f90:	bdf0      	pop	{r4, r5, r6, r7, pc}
     f92:	4b2b      	ldr	r3, [pc, #172]	; (1040 <_can_async_init+0xf4>)
     f94:	001a      	movs	r2, r3
     f96:	c201      	stmia	r2!, {r0}
     f98:	492a      	ldr	r1, [pc, #168]	; (1044 <_can_async_init+0xf8>)
     f9a:	6181      	str	r1, [r0, #24]
     f9c:	6801      	ldr	r1, [r0, #0]
     f9e:	698c      	ldr	r4, [r1, #24]
     fa0:	618c      	str	r4, [r1, #24]
     fa2:	6801      	ldr	r1, [r0, #0]
     fa4:	2400      	movs	r4, #0
     fa6:	608c      	str	r4, [r1, #8]
     fa8:	6801      	ldr	r1, [r0, #0]
     faa:	4d27      	ldr	r5, [pc, #156]	; (1048 <_can_async_init+0xfc>)
     fac:	61cd      	str	r5, [r1, #28]
     fae:	6801      	ldr	r1, [r0, #0]
     fb0:	4d26      	ldr	r5, [pc, #152]	; (104c <_can_async_init+0x100>)
     fb2:	60cd      	str	r5, [r1, #12]
     fb4:	4d26      	ldr	r5, [pc, #152]	; (1050 <_can_async_init+0x104>)
     fb6:	042d      	lsls	r5, r5, #16
     fb8:	0c2d      	lsrs	r5, r5, #16
     fba:	2180      	movs	r1, #128	; 0x80
     fbc:	0289      	lsls	r1, r1, #10
     fbe:	430d      	orrs	r5, r1
     fc0:	26a0      	movs	r6, #160	; 0xa0
     fc2:	6807      	ldr	r7, [r0, #0]
     fc4:	51bd      	str	r5, [r7, r6]
     fc6:	25bc      	movs	r5, #188	; 0xbc
     fc8:	6806      	ldr	r6, [r0, #0]
     fca:	5174      	str	r4, [r6, r5]
     fcc:	350c      	adds	r5, #12
     fce:	6806      	ldr	r6, [r0, #0]
     fd0:	5174      	str	r4, [r6, r5]
     fd2:	4d20      	ldr	r5, [pc, #128]	; (1054 <_can_async_init+0x108>)
     fd4:	042d      	lsls	r5, r5, #16
     fd6:	0c2d      	lsrs	r5, r5, #16
     fd8:	2680      	movs	r6, #128	; 0x80
     fda:	04b6      	lsls	r6, r6, #18
     fdc:	4335      	orrs	r5, r6
     fde:	26c0      	movs	r6, #192	; 0xc0
     fe0:	6807      	ldr	r7, [r0, #0]
     fe2:	51bd      	str	r5, [r7, r6]
     fe4:	0412      	lsls	r2, r2, #16
     fe6:	0c12      	lsrs	r2, r2, #16
     fe8:	430a      	orrs	r2, r1
     fea:	25f0      	movs	r5, #240	; 0xf0
     fec:	6806      	ldr	r6, [r0, #0]
     fee:	5172      	str	r2, [r6, r5]
     ff0:	3d70      	subs	r5, #112	; 0x70
     ff2:	2228      	movs	r2, #40	; 0x28
     ff4:	6806      	ldr	r6, [r0, #0]
     ff6:	5172      	str	r2, [r6, r5]
     ff8:	001a      	movs	r2, r3
     ffa:	3214      	adds	r2, #20
     ffc:	0412      	lsls	r2, r2, #16
     ffe:	0c12      	lsrs	r2, r2, #16
    1000:	430a      	orrs	r2, r1
    1002:	2684      	movs	r6, #132	; 0x84
    1004:	6807      	ldr	r7, [r0, #0]
    1006:	51ba      	str	r2, [r7, r6]
    1008:	331c      	adds	r3, #28
    100a:	041b      	lsls	r3, r3, #16
    100c:	0c1b      	lsrs	r3, r3, #16
    100e:	430b      	orrs	r3, r1
    1010:	2288      	movs	r2, #136	; 0x88
    1012:	6801      	ldr	r1, [r0, #0]
    1014:	508b      	str	r3, [r1, r2]
    1016:	2390      	movs	r3, #144	; 0x90
    1018:	6802      	ldr	r2, [r0, #0]
    101a:	50d4      	str	r4, [r2, r3]
 */
__STATIC_INLINE void __NVIC_DisableIRQ(IRQn_Type IRQn)
{
  if ((int32_t)(IRQn) >= 0)
  {
    NVIC->ICER[0U] = (uint32_t)(1UL << (((uint32_t)IRQn) & 0x1FUL));
    101c:	4b0e      	ldr	r3, [pc, #56]	; (1058 <_can_async_init+0x10c>)
    101e:	2280      	movs	r2, #128	; 0x80
    1020:	0212      	lsls	r2, r2, #8
    1022:	515a      	str	r2, [r3, r5]
  __ASM volatile ("dsb 0xF":::"memory");
    1024:	f3bf 8f4f 	dsb	sy
  __ASM volatile ("isb 0xF":::"memory");
    1028:	f3bf 8f6f 	isb	sy
 */
__STATIC_INLINE void __NVIC_ClearPendingIRQ(IRQn_Type IRQn)
{
  if ((int32_t)(IRQn) >= 0)
  {
    NVIC->ICPR[0U] = (uint32_t)(1UL << (((uint32_t)IRQn) & 0x1FUL));
    102c:	21c0      	movs	r1, #192	; 0xc0
    102e:	0049      	lsls	r1, r1, #1
    1030:	505a      	str	r2, [r3, r1]
    NVIC->ISER[0U] = (uint32_t)(1UL << (((uint32_t)IRQn) & 0x1FUL));
    1032:	601a      	str	r2, [r3, #0]
    1034:	6803      	ldr	r3, [r0, #0]
    1036:	2201      	movs	r2, #1
    1038:	65da      	str	r2, [r3, #92]	; 0x5c
    103a:	e799      	b.n	f70 <_can_async_init+0x24>
    103c:	42001c00 	.word	0x42001c00
    1040:	20000120 	.word	0x20000120
    1044:	20000000 	.word	0x20000000
    1048:	06020a07 	.word	0x06020a07
    104c:	00000a33 	.word	0x00000a33
    1050:	200002b8 	.word	0x200002b8
    1054:	200002d8 	.word	0x200002d8
    1058:	e000e100 	.word	0xe000e100

0000105c <CAN0_Handler>:
    105c:	b570      	push	{r4, r5, r6, lr}
    105e:	4b19      	ldr	r3, [pc, #100]	; (10c4 <CAN0_Handler+0x68>)
    1060:	681d      	ldr	r5, [r3, #0]
    1062:	682b      	ldr	r3, [r5, #0]
    1064:	6d1c      	ldr	r4, [r3, #80]	; 0x50
    1066:	07e3      	lsls	r3, r4, #31
    1068:	d414      	bmi.n	1094 <CAN0_Handler+0x38>
    106a:	05a3      	lsls	r3, r4, #22
    106c:	d416      	bmi.n	109c <CAN0_Handler+0x40>
    106e:	01a3      	lsls	r3, r4, #6
    1070:	d418      	bmi.n	10a4 <CAN0_Handler+0x48>
    1072:	01e3      	lsls	r3, r4, #7
    1074:	d41b      	bmi.n	10ae <CAN0_Handler+0x52>
    1076:	0223      	lsls	r3, r4, #8
    1078:	d507      	bpl.n	108a <CAN0_Handler+0x2e>
    107a:	682b      	ldr	r3, [r5, #0]
    107c:	6c59      	ldr	r1, [r3, #68]	; 0x44
    107e:	0689      	lsls	r1, r1, #26
    1080:	0fc9      	lsrs	r1, r1, #31
    1082:	3101      	adds	r1, #1
    1084:	0028      	movs	r0, r5
    1086:	68eb      	ldr	r3, [r5, #12]
    1088:	4798      	blx	r3
    108a:	0723      	lsls	r3, r4, #28
    108c:	d414      	bmi.n	10b8 <CAN0_Handler+0x5c>
    108e:	682b      	ldr	r3, [r5, #0]
    1090:	651c      	str	r4, [r3, #80]	; 0x50
    1092:	bd70      	pop	{r4, r5, r6, pc}
    1094:	0028      	movs	r0, r5
    1096:	68ab      	ldr	r3, [r5, #8]
    1098:	4798      	blx	r3
    109a:	e7e6      	b.n	106a <CAN0_Handler+0xe>
    109c:	0028      	movs	r0, r5
    109e:	686b      	ldr	r3, [r5, #4]
    10a0:	4798      	blx	r3
    10a2:	e7e4      	b.n	106e <CAN0_Handler+0x12>
    10a4:	2103      	movs	r1, #3
    10a6:	0028      	movs	r0, r5
    10a8:	68eb      	ldr	r3, [r5, #12]
    10aa:	4798      	blx	r3
    10ac:	e7e1      	b.n	1072 <CAN0_Handler+0x16>
    10ae:	2100      	movs	r1, #0
    10b0:	0028      	movs	r0, r5
    10b2:	68eb      	ldr	r3, [r5, #12]
    10b4:	4798      	blx	r3
    10b6:	e7de      	b.n	1076 <CAN0_Handler+0x1a>
    10b8:	2104      	movs	r1, #4
    10ba:	0028      	movs	r0, r5
    10bc:	68eb      	ldr	r3, [r5, #12]
    10be:	4798      	blx	r3
    10c0:	e7e5      	b.n	108e <CAN0_Handler+0x32>
    10c2:	46c0      	nop			; (mov r8, r8)
    10c4:	20000120 	.word	0x20000120

000010c8 <_get_cycles_for_ms>:
    10c8:	b510      	push	{r4, lr}
    10ca:	0003      	movs	r3, r0
    10cc:	20c8      	movs	r0, #200	; 0xc8
    10ce:	0040      	lsls	r0, r0, #1
    10d0:	4358      	muls	r0, r3
    10d2:	3002      	adds	r0, #2
    10d4:	2103      	movs	r1, #3
    10d6:	4b03      	ldr	r3, [pc, #12]	; (10e4 <_get_cycles_for_ms+0x1c>)
    10d8:	4798      	blx	r3
    10da:	0003      	movs	r3, r0
    10dc:	0080      	lsls	r0, r0, #2
    10de:	18c0      	adds	r0, r0, r3
    10e0:	0040      	lsls	r0, r0, #1
    10e2:	bd10      	pop	{r4, pc}
    10e4:	0000113f 	.word	0x0000113f

000010e8 <_delay_cycles>:
    10e8:	3901      	subs	r1, #1
    10ea:	d8fd      	bhi.n	10e8 <_delay_cycles>
    10ec:	4770      	bx	lr
	...

000010f0 <_init_chip>:
    10f0:	b510      	push	{r4, lr}
    10f2:	4b08      	ldr	r3, [pc, #32]	; (1114 <_init_chip+0x24>)
    10f4:	685a      	ldr	r2, [r3, #4]
    10f6:	605a      	str	r2, [r3, #4]
    10f8:	4b07      	ldr	r3, [pc, #28]	; (1118 <_init_chip+0x28>)
    10fa:	4798      	blx	r3
    10fc:	4b07      	ldr	r3, [pc, #28]	; (111c <_init_chip+0x2c>)
    10fe:	4798      	blx	r3
    1100:	4b07      	ldr	r3, [pc, #28]	; (1120 <_init_chip+0x30>)
    1102:	4798      	blx	r3
    1104:	4b07      	ldr	r3, [pc, #28]	; (1124 <_init_chip+0x34>)
    1106:	4798      	blx	r3
    1108:	20ff      	movs	r0, #255	; 0xff
    110a:	4b07      	ldr	r3, [pc, #28]	; (1128 <_init_chip+0x38>)
    110c:	4798      	blx	r3
    110e:	4b07      	ldr	r3, [pc, #28]	; (112c <_init_chip+0x3c>)
    1110:	4798      	blx	r3
    1112:	bd10      	pop	{r4, pc}
    1114:	41004000 	.word	0x41004000
    1118:	000011a5 	.word	0x000011a5
    111c:	000011bd 	.word	0x000011bd
    1120:	00001199 	.word	0x00001199
    1124:	000011fd 	.word	0x000011fd
    1128:	00001175 	.word	0x00001175
    112c:	00001131 	.word	0x00001131

00001130 <_div_init>:
    1130:	2290      	movs	r2, #144	; 0x90
    1132:	05d2      	lsls	r2, r2, #23
    1134:	7813      	ldrb	r3, [r2, #0]
    1136:	2102      	movs	r1, #2
    1138:	438b      	bics	r3, r1
    113a:	7013      	strb	r3, [r2, #0]
    113c:	4770      	bx	lr

0000113e <__aeabi_uidiv>:
    113e:	b510      	push	{r4, lr}
    1140:	b082      	sub	sp, #8
  __ASM volatile ("MRS %0, primask" : "=r" (result) :: "memory");
    1142:	f3ef 8310 	mrs	r3, PRIMASK
    1146:	9301      	str	r3, [sp, #4]
  __ASM volatile ("cpsid i" : : : "memory");
    1148:	b672      	cpsid	i
    114a:	2390      	movs	r3, #144	; 0x90
    114c:	05db      	lsls	r3, r3, #23
    114e:	781a      	ldrb	r2, [r3, #0]
    1150:	2401      	movs	r4, #1
    1152:	43a2      	bics	r2, r4
    1154:	701a      	strb	r2, [r3, #0]
    1156:	6098      	str	r0, [r3, #8]
    1158:	60d9      	str	r1, [r3, #12]
    115a:	001a      	movs	r2, r3
    115c:	7913      	ldrb	r3, [r2, #4]
    115e:	07db      	lsls	r3, r3, #31
    1160:	d4fc      	bmi.n	115c <__aeabi_uidiv+0x1e>
    1162:	2390      	movs	r3, #144	; 0x90
    1164:	05db      	lsls	r3, r3, #23
    1166:	6918      	ldr	r0, [r3, #16]
    1168:	9b01      	ldr	r3, [sp, #4]
  __ASM volatile ("MSR primask, %0" : : "r" (priMask) : "memory");
    116a:	f383 8810 	msr	PRIMASK, r3
    116e:	b002      	add	sp, #8
    1170:	bd10      	pop	{r4, pc}
	...

00001174 <_gclk_init_generators_by_fref>:
    1174:	07c3      	lsls	r3, r0, #31
    1176:	d507      	bpl.n	1188 <_gclk_init_generators_by_fref+0x14>
    1178:	4a04      	ldr	r2, [pc, #16]	; (118c <_gclk_init_generators_by_fref+0x18>)
    117a:	4b05      	ldr	r3, [pc, #20]	; (1190 <_gclk_init_generators_by_fref+0x1c>)
    117c:	621a      	str	r2, [r3, #32]
    117e:	0019      	movs	r1, r3
    1180:	4a04      	ldr	r2, [pc, #16]	; (1194 <_gclk_init_generators_by_fref+0x20>)
    1182:	684b      	ldr	r3, [r1, #4]
    1184:	4213      	tst	r3, r2
    1186:	d1fc      	bne.n	1182 <_gclk_init_generators_by_fref+0xe>
    1188:	4770      	bx	lr
    118a:	46c0      	nop			; (mov r8, r8)
    118c:	00010106 	.word	0x00010106
    1190:	40001c00 	.word	0x40001c00
    1194:	000007fd 	.word	0x000007fd

00001198 <_mclk_init>:
    1198:	2201      	movs	r2, #1
    119a:	4b01      	ldr	r3, [pc, #4]	; (11a0 <_mclk_init+0x8>)
    119c:	711a      	strb	r2, [r3, #4]
    119e:	4770      	bx	lr
    11a0:	40000800 	.word	0x40000800

000011a4 <_osc32kctrl_init_sources>:
    11a4:	4b04      	ldr	r3, [pc, #16]	; (11b8 <_osc32kctrl_init_sources+0x14>)
    11a6:	69da      	ldr	r2, [r3, #28]
    11a8:	21f8      	movs	r1, #248	; 0xf8
    11aa:	0149      	lsls	r1, r1, #5
    11ac:	400a      	ands	r2, r1
    11ae:	61da      	str	r2, [r3, #28]
    11b0:	2201      	movs	r2, #1
    11b2:	611a      	str	r2, [r3, #16]
    11b4:	4770      	bx	lr
    11b6:	46c0      	nop			; (mov r8, r8)
    11b8:	40001400 	.word	0x40001400

000011bc <_oscctrl_init_sources>:
    11bc:	4b0e      	ldr	r3, [pc, #56]	; (11f8 <_oscctrl_init_sources+0x3c>)
    11be:	2202      	movs	r2, #2
    11c0:	751a      	strb	r2, [r3, #20]
    11c2:	3209      	adds	r2, #9
    11c4:	755a      	strb	r2, [r3, #21]
    11c6:	0019      	movs	r1, r3
    11c8:	3a07      	subs	r2, #7
    11ca:	698b      	ldr	r3, [r1, #24]
    11cc:	421a      	tst	r2, r3
    11ce:	d1fc      	bne.n	11ca <_oscctrl_init_sources+0xe>
    11d0:	4909      	ldr	r1, [pc, #36]	; (11f8 <_oscctrl_init_sources+0x3c>)
    11d2:	2204      	movs	r2, #4
    11d4:	698b      	ldr	r3, [r1, #24]
    11d6:	421a      	tst	r2, r3
    11d8:	d1fc      	bne.n	11d4 <_oscctrl_init_sources+0x18>
    11da:	2207      	movs	r2, #7
    11dc:	4b06      	ldr	r3, [pc, #24]	; (11f8 <_oscctrl_init_sources+0x3c>)
    11de:	759a      	strb	r2, [r3, #22]
    11e0:	0019      	movs	r1, r3
    11e2:	3209      	adds	r2, #9
    11e4:	68cb      	ldr	r3, [r1, #12]
    11e6:	421a      	tst	r2, r3
    11e8:	d0fc      	beq.n	11e4 <_oscctrl_init_sources+0x28>
    11ea:	4a03      	ldr	r2, [pc, #12]	; (11f8 <_oscctrl_init_sources+0x3c>)
    11ec:	7d13      	ldrb	r3, [r2, #20]
    11ee:	2180      	movs	r1, #128	; 0x80
    11f0:	430b      	orrs	r3, r1
    11f2:	7513      	strb	r3, [r2, #20]
    11f4:	4770      	bx	lr
    11f6:	46c0      	nop			; (mov r8, r8)
    11f8:	40001000 	.word	0x40001000

000011fc <_oscctrl_init_referenced_generators>:
    11fc:	4770      	bx	lr
	...

00001200 <_usart_init>:
    1200:	b510      	push	{r4, lr}
    1202:	0004      	movs	r4, r0
    1204:	4b1f      	ldr	r3, [pc, #124]	; (1284 <_usart_init+0x84>)
    1206:	18c3      	adds	r3, r0, r3
    1208:	0a9b      	lsrs	r3, r3, #10
    120a:	b2db      	uxtb	r3, r3
    120c:	2b04      	cmp	r3, #4
    120e:	d004      	beq.n	121a <_usart_init+0x1a>
    1210:	4a1d      	ldr	r2, [pc, #116]	; (1288 <_usart_init+0x88>)
    1212:	491e      	ldr	r1, [pc, #120]	; (128c <_usart_init+0x8c>)
    1214:	2000      	movs	r0, #0
    1216:	4b1e      	ldr	r3, [pc, #120]	; (1290 <_usart_init+0x90>)
    1218:	4798      	blx	r3
    121a:	69e3      	ldr	r3, [r4, #28]
    121c:	07db      	lsls	r3, r3, #31
    121e:	d418      	bmi.n	1252 <_usart_init+0x52>
    1220:	2203      	movs	r2, #3
    1222:	69e3      	ldr	r3, [r4, #28]
    1224:	421a      	tst	r2, r3
    1226:	d1fc      	bne.n	1222 <_usart_init+0x22>
    1228:	6823      	ldr	r3, [r4, #0]
    122a:	079b      	lsls	r3, r3, #30
    122c:	d50b      	bpl.n	1246 <_usart_init+0x46>
    122e:	6823      	ldr	r3, [r4, #0]
    1230:	2202      	movs	r2, #2
    1232:	4393      	bics	r3, r2
    1234:	6023      	str	r3, [r4, #0]
    1236:	3201      	adds	r2, #1
    1238:	69e3      	ldr	r3, [r4, #28]
    123a:	421a      	tst	r2, r3
    123c:	d1fc      	bne.n	1238 <_usart_init+0x38>
    123e:	2202      	movs	r2, #2
    1240:	69e3      	ldr	r3, [r4, #28]
    1242:	421a      	tst	r2, r3
    1244:	d1fc      	bne.n	1240 <_usart_init+0x40>
    1246:	2305      	movs	r3, #5
    1248:	6023      	str	r3, [r4, #0]
    124a:	2203      	movs	r2, #3
    124c:	69e3      	ldr	r3, [r4, #28]
    124e:	421a      	tst	r2, r3
    1250:	d1fc      	bne.n	124c <_usart_init+0x4c>
    1252:	2201      	movs	r2, #1
    1254:	69e3      	ldr	r3, [r4, #28]
    1256:	421a      	tst	r2, r3
    1258:	d1fc      	bne.n	1254 <_usart_init+0x54>
    125a:	4b0e      	ldr	r3, [pc, #56]	; (1294 <_usart_init+0x94>)
    125c:	6023      	str	r3, [r4, #0]
    125e:	2203      	movs	r2, #3
    1260:	69e3      	ldr	r3, [r4, #28]
    1262:	421a      	tst	r2, r3
    1264:	d1fc      	bne.n	1260 <_usart_init+0x60>
    1266:	23c0      	movs	r3, #192	; 0xc0
    1268:	029b      	lsls	r3, r3, #10
    126a:	6063      	str	r3, [r4, #4]
    126c:	2207      	movs	r2, #7
    126e:	69e3      	ldr	r3, [r4, #28]
    1270:	421a      	tst	r2, r3
    1272:	d1fc      	bne.n	126e <_usart_init+0x6e>
    1274:	4b08      	ldr	r3, [pc, #32]	; (1298 <_usart_init+0x98>)
    1276:	81a3      	strh	r3, [r4, #12]
    1278:	2300      	movs	r3, #0
    127a:	73a3      	strb	r3, [r4, #14]
    127c:	2230      	movs	r2, #48	; 0x30
    127e:	54a3      	strb	r3, [r4, r2]
    1280:	2000      	movs	r0, #0
    1282:	bd10      	pop	{r4, pc}
    1284:	bdfffc00 	.word	0xbdfffc00
    1288:	0000025e 	.word	0x0000025e
    128c:	00002208 	.word	0x00002208
    1290:	00000cb5 	.word	0x00000cb5
    1294:	40100004 	.word	0x40100004
    1298:	fffff62b 	.word	0xfffff62b

0000129c <_usart_async_init>:
    129c:	b570      	push	{r4, r5, r6, lr}
    129e:	0005      	movs	r5, r0
    12a0:	000c      	movs	r4, r1
    12a2:	1e43      	subs	r3, r0, #1
    12a4:	4198      	sbcs	r0, r3
    12a6:	b2c0      	uxtb	r0, r0
    12a8:	22c4      	movs	r2, #196	; 0xc4
    12aa:	4914      	ldr	r1, [pc, #80]	; (12fc <_usart_async_init+0x60>)
    12ac:	4b14      	ldr	r3, [pc, #80]	; (1300 <_usart_async_init+0x64>)
    12ae:	4798      	blx	r3
    12b0:	0020      	movs	r0, r4
    12b2:	4b14      	ldr	r3, [pc, #80]	; (1304 <_usart_async_init+0x68>)
    12b4:	4798      	blx	r3
    12b6:	2800      	cmp	r0, #0
    12b8:	d000      	beq.n	12bc <_usart_async_init+0x20>
    12ba:	bd70      	pop	{r4, r5, r6, pc}
    12bc:	61ac      	str	r4, [r5, #24]
    12be:	4b12      	ldr	r3, [pc, #72]	; (1308 <_usart_async_init+0x6c>)
    12c0:	429c      	cmp	r4, r3
    12c2:	d017      	beq.n	12f4 <_usart_async_init+0x58>
    12c4:	4b11      	ldr	r3, [pc, #68]	; (130c <_usart_async_init+0x70>)
    12c6:	469c      	mov	ip, r3
    12c8:	4464      	add	r4, ip
    12ca:	0aa4      	lsrs	r4, r4, #10
    12cc:	3409      	adds	r4, #9
  if ((int32_t)(IRQn) >= 0)
    12ce:	b2e3      	uxtb	r3, r4
    12d0:	0622      	lsls	r2, r4, #24
    12d2:	d4f2      	bmi.n	12ba <_usart_async_init+0x1e>
    NVIC->ICER[0U] = (uint32_t)(1UL << (((uint32_t)IRQn) & 0x1FUL));
    12d4:	221f      	movs	r2, #31
    12d6:	401a      	ands	r2, r3
    12d8:	2301      	movs	r3, #1
    12da:	4093      	lsls	r3, r2
    12dc:	4a0c      	ldr	r2, [pc, #48]	; (1310 <_usart_async_init+0x74>)
    12de:	2180      	movs	r1, #128	; 0x80
    12e0:	5053      	str	r3, [r2, r1]
  __ASM volatile ("dsb 0xF":::"memory");
    12e2:	f3bf 8f4f 	dsb	sy
  __ASM volatile ("isb 0xF":::"memory");
    12e6:	f3bf 8f6f 	isb	sy
    NVIC->ICPR[0U] = (uint32_t)(1UL << (((uint32_t)IRQn) & 0x1FUL));
    12ea:	3101      	adds	r1, #1
    12ec:	31ff      	adds	r1, #255	; 0xff
    12ee:	5053      	str	r3, [r2, r1]
    NVIC->ISER[0U] = (uint32_t)(1UL << (((uint32_t)IRQn) & 0x1FUL));
    12f0:	6013      	str	r3, [r2, #0]
    12f2:	e7e2      	b.n	12ba <_usart_async_init+0x1e>
    12f4:	4b07      	ldr	r3, [pc, #28]	; (1314 <_usart_async_init+0x78>)
    12f6:	601d      	str	r5, [r3, #0]
    12f8:	230d      	movs	r3, #13
    12fa:	e7eb      	b.n	12d4 <_usart_async_init+0x38>
    12fc:	00002208 	.word	0x00002208
    1300:	00000cb5 	.word	0x00000cb5
    1304:	00001201 	.word	0x00001201
    1308:	42001400 	.word	0x42001400
    130c:	bdfffc00 	.word	0xbdfffc00
    1310:	e000e100 	.word	0xe000e100
    1314:	2000014c 	.word	0x2000014c

00001318 <_usart_async_enable>:
    1318:	6982      	ldr	r2, [r0, #24]
    131a:	6813      	ldr	r3, [r2, #0]
    131c:	2102      	movs	r1, #2
    131e:	430b      	orrs	r3, r1
    1320:	6013      	str	r3, [r2, #0]
    1322:	3101      	adds	r1, #1
    1324:	69d3      	ldr	r3, [r2, #28]
    1326:	4219      	tst	r1, r3
    1328:	d1fc      	bne.n	1324 <_usart_async_enable+0xc>
    132a:	4770      	bx	lr

0000132c <_usart_async_write_byte>:
    132c:	6983      	ldr	r3, [r0, #24]
    132e:	b289      	uxth	r1, r1
    1330:	8519      	strh	r1, [r3, #40]	; 0x28
    1332:	4770      	bx	lr

00001334 <_usart_async_enable_byte_sent_irq>:
    1334:	6983      	ldr	r3, [r0, #24]
    1336:	2201      	movs	r2, #1
    1338:	759a      	strb	r2, [r3, #22]
    133a:	4770      	bx	lr

0000133c <_usart_async_enable_tx_done_irq>:
    133c:	6983      	ldr	r3, [r0, #24]
    133e:	2202      	movs	r2, #2
    1340:	759a      	strb	r2, [r3, #22]
    1342:	4770      	bx	lr

00001344 <_usart_async_set_irq_state>:
    1344:	b570      	push	{r4, r5, r6, lr}
    1346:	0004      	movs	r4, r0
    1348:	000d      	movs	r5, r1
    134a:	0016      	movs	r6, r2
    134c:	1e43      	subs	r3, r0, #1
    134e:	4198      	sbcs	r0, r3
    1350:	b2c0      	uxtb	r0, r0
    1352:	4a16      	ldr	r2, [pc, #88]	; (13ac <_usart_async_set_irq_state+0x68>)
    1354:	4916      	ldr	r1, [pc, #88]	; (13b0 <_usart_async_set_irq_state+0x6c>)
    1356:	4b17      	ldr	r3, [pc, #92]	; (13b4 <_usart_async_set_irq_state+0x70>)
    1358:	4798      	blx	r3
    135a:	2302      	movs	r3, #2
    135c:	002a      	movs	r2, r5
    135e:	439a      	bics	r2, r3
    1360:	d10e      	bne.n	1380 <_usart_async_set_irq_state+0x3c>
    1362:	69a3      	ldr	r3, [r4, #24]
    1364:	2e00      	cmp	r6, #0
    1366:	d105      	bne.n	1374 <_usart_async_set_irq_state+0x30>
    1368:	2201      	movs	r2, #1
    136a:	751a      	strb	r2, [r3, #20]
    136c:	69a3      	ldr	r3, [r4, #24]
    136e:	3201      	adds	r2, #1
    1370:	751a      	strb	r2, [r3, #20]
    1372:	bd70      	pop	{r4, r5, r6, pc}
    1374:	2201      	movs	r2, #1
    1376:	759a      	strb	r2, [r3, #22]
    1378:	69a3      	ldr	r3, [r4, #24]
    137a:	3201      	adds	r2, #1
    137c:	759a      	strb	r2, [r3, #22]
    137e:	e7f8      	b.n	1372 <_usart_async_set_irq_state+0x2e>
    1380:	2d01      	cmp	r5, #1
    1382:	d007      	beq.n	1394 <_usart_async_set_irq_state+0x50>
    1384:	2d03      	cmp	r5, #3
    1386:	d1f4      	bne.n	1372 <_usart_async_set_irq_state+0x2e>
    1388:	69a3      	ldr	r3, [r4, #24]
    138a:	2e00      	cmp	r6, #0
    138c:	d00b      	beq.n	13a6 <_usart_async_set_irq_state+0x62>
    138e:	2280      	movs	r2, #128	; 0x80
    1390:	759a      	strb	r2, [r3, #22]
    1392:	e7ee      	b.n	1372 <_usart_async_set_irq_state+0x2e>
    1394:	69a3      	ldr	r3, [r4, #24]
    1396:	2e00      	cmp	r6, #0
    1398:	d102      	bne.n	13a0 <_usart_async_set_irq_state+0x5c>
    139a:	2204      	movs	r2, #4
    139c:	751a      	strb	r2, [r3, #20]
    139e:	e7e8      	b.n	1372 <_usart_async_set_irq_state+0x2e>
    13a0:	2204      	movs	r2, #4
    13a2:	759a      	strb	r2, [r3, #22]
    13a4:	e7e5      	b.n	1372 <_usart_async_set_irq_state+0x2e>
    13a6:	2280      	movs	r2, #128	; 0x80
    13a8:	751a      	strb	r2, [r3, #20]
    13aa:	e7e2      	b.n	1372 <_usart_async_set_irq_state+0x2e>
    13ac:	0000021e 	.word	0x0000021e
    13b0:	00002208 	.word	0x00002208
    13b4:	00000cb5 	.word	0x00000cb5

000013b8 <SERCOM4_Handler>:
    13b8:	b510      	push	{r4, lr}
    13ba:	4b19      	ldr	r3, [pc, #100]	; (1420 <SERCOM4_Handler+0x68>)
    13bc:	6818      	ldr	r0, [r3, #0]
    13be:	6984      	ldr	r4, [r0, #24]
    13c0:	7e23      	ldrb	r3, [r4, #24]
    13c2:	07db      	lsls	r3, r3, #31
    13c4:	d502      	bpl.n	13cc <SERCOM4_Handler+0x14>
    13c6:	7da3      	ldrb	r3, [r4, #22]
    13c8:	07db      	lsls	r3, r3, #31
    13ca:	d40f      	bmi.n	13ec <SERCOM4_Handler+0x34>
    13cc:	7e23      	ldrb	r3, [r4, #24]
    13ce:	079b      	lsls	r3, r3, #30
    13d0:	d502      	bpl.n	13d8 <SERCOM4_Handler+0x20>
    13d2:	7da3      	ldrb	r3, [r4, #22]
    13d4:	079b      	lsls	r3, r3, #30
    13d6:	d40e      	bmi.n	13f6 <SERCOM4_Handler+0x3e>
    13d8:	7e23      	ldrb	r3, [r4, #24]
    13da:	075b      	lsls	r3, r3, #29
    13dc:	d515      	bpl.n	140a <SERCOM4_Handler+0x52>
    13de:	8b62      	ldrh	r2, [r4, #26]
    13e0:	2337      	movs	r3, #55	; 0x37
    13e2:	421a      	tst	r2, r3
    13e4:	d00c      	beq.n	1400 <SERCOM4_Handler+0x48>
    13e6:	3348      	adds	r3, #72	; 0x48
    13e8:	8363      	strh	r3, [r4, #26]
    13ea:	bd10      	pop	{r4, pc}
    13ec:	2301      	movs	r3, #1
    13ee:	7523      	strb	r3, [r4, #20]
    13f0:	6803      	ldr	r3, [r0, #0]
    13f2:	4798      	blx	r3
    13f4:	e7f9      	b.n	13ea <SERCOM4_Handler+0x32>
    13f6:	2302      	movs	r3, #2
    13f8:	7523      	strb	r3, [r4, #20]
    13fa:	6883      	ldr	r3, [r0, #8]
    13fc:	4798      	blx	r3
    13fe:	e7f4      	b.n	13ea <SERCOM4_Handler+0x32>
    1400:	8d21      	ldrh	r1, [r4, #40]	; 0x28
    1402:	b2c9      	uxtb	r1, r1
    1404:	6843      	ldr	r3, [r0, #4]
    1406:	4798      	blx	r3
    1408:	e7ef      	b.n	13ea <SERCOM4_Handler+0x32>
    140a:	7e23      	ldrb	r3, [r4, #24]
    140c:	09db      	lsrs	r3, r3, #7
    140e:	d0ec      	beq.n	13ea <SERCOM4_Handler+0x32>
    1410:	2380      	movs	r3, #128	; 0x80
    1412:	7623      	strb	r3, [r4, #24]
    1414:	68c3      	ldr	r3, [r0, #12]
    1416:	4798      	blx	r3
    1418:	8b63      	ldrh	r3, [r4, #26]
    141a:	b29b      	uxth	r3, r3
    141c:	8363      	strh	r3, [r4, #26]
    141e:	e7e4      	b.n	13ea <SERCOM4_Handler+0x32>
    1420:	2000014c 	.word	0x2000014c

00001424 <_spi_m_sync_init>:
    1424:	b570      	push	{r4, r5, r6, lr}
    1426:	0005      	movs	r5, r0
    1428:	000c      	movs	r4, r1
    142a:	4b35      	ldr	r3, [pc, #212]	; (1500 <_spi_m_sync_init+0xdc>)
    142c:	18cb      	adds	r3, r1, r3
    142e:	0a9b      	lsrs	r3, r3, #10
    1430:	b2db      	uxtb	r3, r3
    1432:	2b02      	cmp	r3, #2
    1434:	d00b      	beq.n	144e <_spi_m_sync_init+0x2a>
    1436:	2800      	cmp	r0, #0
    1438:	d051      	beq.n	14de <_spi_m_sync_init+0xba>
    143a:	1e60      	subs	r0, r4, #1
    143c:	4184      	sbcs	r4, r0
    143e:	b2e0      	uxtb	r0, r4
    1440:	4a30      	ldr	r2, [pc, #192]	; (1504 <_spi_m_sync_init+0xe0>)
    1442:	4931      	ldr	r1, [pc, #196]	; (1508 <_spi_m_sync_init+0xe4>)
    1444:	4b31      	ldr	r3, [pc, #196]	; (150c <_spi_m_sync_init+0xe8>)
    1446:	4798      	blx	r3
    1448:	200d      	movs	r0, #13
    144a:	4240      	negs	r0, r0
    144c:	e046      	b.n	14dc <_spi_m_sync_init+0xb8>
    144e:	2800      	cmp	r0, #0
    1450:	d14d      	bne.n	14ee <_spi_m_sync_init+0xca>
    1452:	4a2c      	ldr	r2, [pc, #176]	; (1504 <_spi_m_sync_init+0xe0>)
    1454:	492c      	ldr	r1, [pc, #176]	; (1508 <_spi_m_sync_init+0xe4>)
    1456:	2000      	movs	r0, #0
    1458:	4b2c      	ldr	r3, [pc, #176]	; (150c <_spi_m_sync_init+0xe8>)
    145a:	4798      	blx	r3
    145c:	69e3      	ldr	r3, [r4, #28]
    145e:	07db      	lsls	r3, r3, #31
    1460:	d418      	bmi.n	1494 <_spi_m_sync_init+0x70>
    1462:	2203      	movs	r2, #3
    1464:	69e3      	ldr	r3, [r4, #28]
    1466:	421a      	tst	r2, r3
    1468:	d1fc      	bne.n	1464 <_spi_m_sync_init+0x40>
    146a:	6823      	ldr	r3, [r4, #0]
    146c:	079b      	lsls	r3, r3, #30
    146e:	d50b      	bpl.n	1488 <_spi_m_sync_init+0x64>
    1470:	6823      	ldr	r3, [r4, #0]
    1472:	2202      	movs	r2, #2
    1474:	4393      	bics	r3, r2
    1476:	6023      	str	r3, [r4, #0]
    1478:	3201      	adds	r2, #1
    147a:	69e3      	ldr	r3, [r4, #28]
    147c:	421a      	tst	r2, r3
    147e:	d1fc      	bne.n	147a <_spi_m_sync_init+0x56>
    1480:	2202      	movs	r2, #2
    1482:	69e3      	ldr	r3, [r4, #28]
    1484:	421a      	tst	r2, r3
    1486:	d1fc      	bne.n	1482 <_spi_m_sync_init+0x5e>
    1488:	230d      	movs	r3, #13
    148a:	6023      	str	r3, [r4, #0]
    148c:	2203      	movs	r2, #3
    148e:	69e3      	ldr	r3, [r4, #28]
    1490:	421a      	tst	r2, r3
    1492:	d1fc      	bne.n	148e <_spi_m_sync_init+0x6a>
    1494:	2201      	movs	r2, #1
    1496:	69e3      	ldr	r3, [r4, #28]
    1498:	421a      	tst	r2, r3
    149a:	d1fc      	bne.n	1496 <_spi_m_sync_init+0x72>
    149c:	602c      	str	r4, [r5, #0]
    149e:	0020      	movs	r0, r4
    14a0:	1e43      	subs	r3, r0, #1
    14a2:	4198      	sbcs	r0, r3
    14a4:	b2c0      	uxtb	r0, r0
    14a6:	4a1a      	ldr	r2, [pc, #104]	; (1510 <_spi_m_sync_init+0xec>)
    14a8:	4917      	ldr	r1, [pc, #92]	; (1508 <_spi_m_sync_init+0xe4>)
    14aa:	4b18      	ldr	r3, [pc, #96]	; (150c <_spi_m_sync_init+0xe8>)
    14ac:	4798      	blx	r3
    14ae:	4b19      	ldr	r3, [pc, #100]	; (1514 <_spi_m_sync_init+0xf0>)
    14b0:	6023      	str	r3, [r4, #0]
    14b2:	2203      	movs	r2, #3
    14b4:	69e3      	ldr	r3, [r4, #28]
    14b6:	421a      	tst	r2, r3
    14b8:	d1fc      	bne.n	14b4 <_spi_m_sync_init+0x90>
    14ba:	2380      	movs	r3, #128	; 0x80
    14bc:	029b      	lsls	r3, r3, #10
    14be:	6063      	str	r3, [r4, #4]
    14c0:	2207      	movs	r2, #7
    14c2:	69e3      	ldr	r3, [r4, #28]
    14c4:	421a      	tst	r2, r3
    14c6:	d1fc      	bne.n	14c2 <_spi_m_sync_init+0x9e>
    14c8:	2327      	movs	r3, #39	; 0x27
    14ca:	7323      	strb	r3, [r4, #12]
    14cc:	2200      	movs	r2, #0
    14ce:	3309      	adds	r3, #9
    14d0:	54e2      	strb	r2, [r4, r3]
    14d2:	3b2f      	subs	r3, #47	; 0x2f
    14d4:	712b      	strb	r3, [r5, #4]
    14d6:	4b10      	ldr	r3, [pc, #64]	; (1518 <_spi_m_sync_init+0xf4>)
    14d8:	80eb      	strh	r3, [r5, #6]
    14da:	2000      	movs	r0, #0
    14dc:	bd70      	pop	{r4, r5, r6, pc}
    14de:	4a09      	ldr	r2, [pc, #36]	; (1504 <_spi_m_sync_init+0xe0>)
    14e0:	4909      	ldr	r1, [pc, #36]	; (1508 <_spi_m_sync_init+0xe4>)
    14e2:	2000      	movs	r0, #0
    14e4:	4b09      	ldr	r3, [pc, #36]	; (150c <_spi_m_sync_init+0xe8>)
    14e6:	4798      	blx	r3
    14e8:	200d      	movs	r0, #13
    14ea:	4240      	negs	r0, r0
    14ec:	e7f6      	b.n	14dc <_spi_m_sync_init+0xb8>
    14ee:	0008      	movs	r0, r1
    14f0:	1e43      	subs	r3, r0, #1
    14f2:	4198      	sbcs	r0, r3
    14f4:	b2c0      	uxtb	r0, r0
    14f6:	4a03      	ldr	r2, [pc, #12]	; (1504 <_spi_m_sync_init+0xe0>)
    14f8:	4903      	ldr	r1, [pc, #12]	; (1508 <_spi_m_sync_init+0xe4>)
    14fa:	4b04      	ldr	r3, [pc, #16]	; (150c <_spi_m_sync_init+0xe8>)
    14fc:	4798      	blx	r3
    14fe:	e7ad      	b.n	145c <_spi_m_sync_init+0x38>
    1500:	bdfffc00 	.word	0xbdfffc00
    1504:	00000948 	.word	0x00000948
    1508:	00002208 	.word	0x00002208
    150c:	00000cb5 	.word	0x00000cb5
    1510:	0000090d 	.word	0x0000090d
    1514:	0001000c 	.word	0x0001000c
    1518:	000001ff 	.word	0x000001ff

0000151c <_spi_m_sync_trans>:
    151c:	b5f0      	push	{r4, r5, r6, r7, lr}
    151e:	46de      	mov	lr, fp
    1520:	4657      	mov	r7, sl
    1522:	464e      	mov	r6, r9
    1524:	4645      	mov	r5, r8
    1526:	b5e0      	push	{r5, r6, r7, lr}
    1528:	b083      	sub	sp, #12
    152a:	4681      	mov	r9, r0
    152c:	000e      	movs	r6, r1
    152e:	6804      	ldr	r4, [r0, #0]
    1530:	680b      	ldr	r3, [r1, #0]
    1532:	4698      	mov	r8, r3
    1534:	684d      	ldr	r5, [r1, #4]
    1536:	7903      	ldrb	r3, [r0, #4]
    1538:	9301      	str	r3, [sp, #4]
    153a:	2800      	cmp	r0, #0
    153c:	d015      	beq.n	156a <_spi_m_sync_trans+0x4e>
    153e:	0020      	movs	r0, r4
    1540:	1e43      	subs	r3, r0, #1
    1542:	4198      	sbcs	r0, r3
    1544:	b2c0      	uxtb	r0, r0
    1546:	4a36      	ldr	r2, [pc, #216]	; (1620 <_spi_m_sync_trans+0x104>)
    1548:	4936      	ldr	r1, [pc, #216]	; (1624 <_spi_m_sync_trans+0x108>)
    154a:	4b37      	ldr	r3, [pc, #220]	; (1628 <_spi_m_sync_trans+0x10c>)
    154c:	4798      	blx	r3
    154e:	69e3      	ldr	r3, [r4, #28]
    1550:	075b      	lsls	r3, r3, #29
    1552:	d13f      	bne.n	15d4 <_spi_m_sync_trans+0xb8>
    1554:	2303      	movs	r3, #3
    1556:	69e0      	ldr	r0, [r4, #28]
    1558:	4018      	ands	r0, r3
    155a:	d1fc      	bne.n	1556 <_spi_m_sync_trans+0x3a>
    155c:	6823      	ldr	r3, [r4, #0]
    155e:	079b      	lsls	r3, r3, #30
    1560:	d53b      	bpl.n	15da <_spi_m_sync_trans+0xbe>
    1562:	0002      	movs	r2, r0
    1564:	2301      	movs	r3, #1
    1566:	469c      	mov	ip, r3
    1568:	e009      	b.n	157e <_spi_m_sync_trans+0x62>
    156a:	2000      	movs	r0, #0
    156c:	e7eb      	b.n	1546 <_spi_m_sync_trans+0x2a>
    156e:	3501      	adds	r5, #1
    1570:	3201      	adds	r2, #1
    1572:	b25b      	sxtb	r3, r3
    1574:	2b00      	cmp	r3, #0
    1576:	db16      	blt.n	15a6 <_spi_m_sync_trans+0x8a>
    1578:	68b3      	ldr	r3, [r6, #8]
    157a:	4283      	cmp	r3, r0
    157c:	d927      	bls.n	15ce <_spi_m_sync_trans+0xb2>
    157e:	7e23      	ldrb	r3, [r4, #24]
    1580:	b2db      	uxtb	r3, r3
    1582:	2104      	movs	r1, #4
    1584:	4219      	tst	r1, r3
    1586:	d02b      	beq.n	15e0 <_spi_m_sync_trans+0xc4>
    1588:	6aa7      	ldr	r7, [r4, #40]	; 0x28
    158a:	2d00      	cmp	r5, #0
    158c:	d0f0      	beq.n	1570 <_spi_m_sync_trans+0x54>
    158e:	702f      	strb	r7, [r5, #0]
    1590:	9901      	ldr	r1, [sp, #4]
    1592:	2901      	cmp	r1, #1
    1594:	d9eb      	bls.n	156e <_spi_m_sync_trans+0x52>
    1596:	0a3f      	lsrs	r7, r7, #8
    1598:	706f      	strb	r7, [r5, #1]
    159a:	3502      	adds	r5, #2
    159c:	e7e8      	b.n	1570 <_spi_m_sync_trans+0x54>
    159e:	2101      	movs	r1, #1
    15a0:	468b      	mov	fp, r1
    15a2:	44d8      	add	r8, fp
    15a4:	e037      	b.n	1616 <_spi_m_sync_trans+0xfa>
    15a6:	2301      	movs	r3, #1
    15a8:	425b      	negs	r3, r3
    15aa:	8363      	strh	r3, [r4, #26]
    15ac:	3381      	adds	r3, #129	; 0x81
    15ae:	7623      	strb	r3, [r4, #24]
    15b0:	2013      	movs	r0, #19
    15b2:	4240      	negs	r0, r0
    15b4:	2203      	movs	r2, #3
    15b6:	7e23      	ldrb	r3, [r4, #24]
    15b8:	4213      	tst	r3, r2
    15ba:	d0fc      	beq.n	15b6 <_spi_m_sync_trans+0x9a>
    15bc:	2303      	movs	r3, #3
    15be:	7623      	strb	r3, [r4, #24]
    15c0:	b003      	add	sp, #12
    15c2:	bc3c      	pop	{r2, r3, r4, r5}
    15c4:	4690      	mov	r8, r2
    15c6:	4699      	mov	r9, r3
    15c8:	46a2      	mov	sl, r4
    15ca:	46ab      	mov	fp, r5
    15cc:	bdf0      	pop	{r4, r5, r6, r7, pc}
    15ce:	4293      	cmp	r3, r2
    15d0:	d8d5      	bhi.n	157e <_spi_m_sync_trans+0x62>
    15d2:	e7ef      	b.n	15b4 <_spi_m_sync_trans+0x98>
    15d4:	2004      	movs	r0, #4
    15d6:	4240      	negs	r0, r0
    15d8:	e7f2      	b.n	15c0 <_spi_m_sync_trans+0xa4>
    15da:	2014      	movs	r0, #20
    15dc:	4240      	negs	r0, r0
    15de:	e7ef      	b.n	15c0 <_spi_m_sync_trans+0xa4>
    15e0:	4290      	cmp	r0, r2
    15e2:	d8c6      	bhi.n	1572 <_spi_m_sync_trans+0x56>
    15e4:	4667      	mov	r7, ip
    15e6:	421f      	tst	r7, r3
    15e8:	d0c3      	beq.n	1572 <_spi_m_sync_trans+0x56>
    15ea:	464f      	mov	r7, r9
    15ec:	88ff      	ldrh	r7, [r7, #6]
    15ee:	46ba      	mov	sl, r7
    15f0:	4647      	mov	r7, r8
    15f2:	2f00      	cmp	r7, #0
    15f4:	d00f      	beq.n	1616 <_spi_m_sync_trans+0xfa>
    15f6:	783f      	ldrb	r7, [r7, #0]
    15f8:	46ba      	mov	sl, r7
    15fa:	9901      	ldr	r1, [sp, #4]
    15fc:	2901      	cmp	r1, #1
    15fe:	d9ce      	bls.n	159e <_spi_m_sync_trans+0x82>
    1600:	4647      	mov	r7, r8
    1602:	787f      	ldrb	r7, [r7, #1]
    1604:	023f      	lsls	r7, r7, #8
    1606:	46bb      	mov	fp, r7
    1608:	4657      	mov	r7, sl
    160a:	4659      	mov	r1, fp
    160c:	430f      	orrs	r7, r1
    160e:	46ba      	mov	sl, r7
    1610:	2102      	movs	r1, #2
    1612:	468b      	mov	fp, r1
    1614:	44d8      	add	r8, fp
    1616:	3001      	adds	r0, #1
    1618:	4657      	mov	r7, sl
    161a:	62a7      	str	r7, [r4, #40]	; 0x28
    161c:	e7a9      	b.n	1572 <_spi_m_sync_trans+0x56>
    161e:	46c0      	nop			; (mov r8, r8)
    1620:	00000aa8 	.word	0x00000aa8
    1624:	00002208 	.word	0x00002208
    1628:	00000cb5 	.word	0x00000cb5

0000162c <_temp_sync_init>:
    162c:	b570      	push	{r4, r5, r6, lr}
    162e:	0005      	movs	r5, r0
    1630:	000c      	movs	r4, r1
    1632:	688b      	ldr	r3, [r1, #8]
    1634:	07db      	lsls	r3, r3, #31
    1636:	d52d      	bpl.n	1694 <_temp_sync_init+0x68>
    1638:	2201      	movs	r2, #1
    163a:	68a3      	ldr	r3, [r4, #8]
    163c:	421a      	tst	r2, r3
    163e:	d1fc      	bne.n	163a <_temp_sync_init+0xe>
    1640:	4921      	ldr	r1, [pc, #132]	; (16c8 <_temp_sync_init+0x9c>)
    1642:	680b      	ldr	r3, [r1, #0]
    1644:	021a      	lsls	r2, r3, #8
    1646:	20fc      	movs	r0, #252	; 0xfc
    1648:	0180      	lsls	r0, r0, #6
    164a:	4002      	ands	r2, r0
    164c:	051b      	lsls	r3, r3, #20
    164e:	0e9b      	lsrs	r3, r3, #26
    1650:	4313      	orrs	r3, r2
    1652:	6223      	str	r3, [r4, #32]
    1654:	4e1d      	ldr	r6, [pc, #116]	; (16cc <_temp_sync_init+0xa0>)
    1656:	6833      	ldr	r3, [r6, #0]
    1658:	0518      	lsls	r0, r3, #20
    165a:	23f0      	movs	r3, #240	; 0xf0
    165c:	041b      	lsls	r3, r3, #16
    165e:	4018      	ands	r0, r3
    1660:	680b      	ldr	r3, [r1, #0]
    1662:	0b1b      	lsrs	r3, r3, #12
    1664:	4318      	orrs	r0, r3
    1666:	4b1a      	ldr	r3, [pc, #104]	; (16d0 <_temp_sync_init+0xa4>)
    1668:	4798      	blx	r3
    166a:	491a      	ldr	r1, [pc, #104]	; (16d4 <_temp_sync_init+0xa8>)
    166c:	4b1a      	ldr	r3, [pc, #104]	; (16d8 <_temp_sync_init+0xac>)
    166e:	4798      	blx	r3
    1670:	4b1a      	ldr	r3, [pc, #104]	; (16dc <_temp_sync_init+0xb0>)
    1672:	4798      	blx	r3
    1674:	61a0      	str	r0, [r4, #24]
    1676:	6833      	ldr	r3, [r6, #0]
    1678:	011b      	lsls	r3, r3, #4
    167a:	0a1b      	lsrs	r3, r3, #8
    167c:	61e3      	str	r3, [r4, #28]
    167e:	602c      	str	r4, [r5, #0]
    1680:	2300      	movs	r3, #0
    1682:	7023      	strb	r3, [r4, #0]
    1684:	2203      	movs	r2, #3
    1686:	68a3      	ldr	r3, [r4, #8]
    1688:	421a      	tst	r2, r3
    168a:	d1fc      	bne.n	1686 <_temp_sync_init+0x5a>
    168c:	2300      	movs	r3, #0
    168e:	70a3      	strb	r3, [r4, #2]
    1690:	2000      	movs	r0, #0
    1692:	bd70      	pop	{r4, r5, r6, pc}
    1694:	2203      	movs	r2, #3
    1696:	68a3      	ldr	r3, [r4, #8]
    1698:	421a      	tst	r2, r3
    169a:	d1fc      	bne.n	1696 <_temp_sync_init+0x6a>
    169c:	7823      	ldrb	r3, [r4, #0]
    169e:	079b      	lsls	r3, r3, #30
    16a0:	d50b      	bpl.n	16ba <_temp_sync_init+0x8e>
    16a2:	7823      	ldrb	r3, [r4, #0]
    16a4:	2202      	movs	r2, #2
    16a6:	4393      	bics	r3, r2
    16a8:	7023      	strb	r3, [r4, #0]
    16aa:	3201      	adds	r2, #1
    16ac:	68a3      	ldr	r3, [r4, #8]
    16ae:	421a      	tst	r2, r3
    16b0:	d1fc      	bne.n	16ac <_temp_sync_init+0x80>
    16b2:	2202      	movs	r2, #2
    16b4:	68a3      	ldr	r3, [r4, #8]
    16b6:	421a      	tst	r2, r3
    16b8:	d1fc      	bne.n	16b4 <_temp_sync_init+0x88>
    16ba:	2301      	movs	r3, #1
    16bc:	7023      	strb	r3, [r4, #0]
    16be:	2203      	movs	r2, #3
    16c0:	68a3      	ldr	r3, [r4, #8]
    16c2:	421a      	tst	r2, r3
    16c4:	d1fc      	bne.n	16c0 <_temp_sync_init+0x94>
    16c6:	e7b7      	b.n	1638 <_temp_sync_init+0xc>
    16c8:	00806030 	.word	0x00806030
    16cc:	00806034 	.word	0x00806034
    16d0:	00001dd5 	.word	0x00001dd5
    16d4:	3daaaaab 	.word	0x3daaaaab
    16d8:	0000181d 	.word	0x0000181d
    16dc:	000017ed 	.word	0x000017ed

000016e0 <main>:
#include <usart_serial.h>
#include <usart_handler.h>


int main(void)
{
    16e0:	b570      	push	{r4, r5, r6, lr}
	
	/* Initializes MCU, drivers and middleware */
	atmel_start_init();
    16e2:	4b09      	ldr	r3, [pc, #36]	; (1708 <main+0x28>)
    16e4:	4798      	blx	r3
	uart_init();
    16e6:	4b09      	ldr	r3, [pc, #36]	; (170c <main+0x2c>)
    16e8:	4798      	blx	r3
    16ea:	2220      	movs	r2, #32
    16ec:	23c0      	movs	r3, #192	; 0xc0
    16ee:	05db      	lsls	r3, r3, #23
    16f0:	619a      	str	r2, [r3, #24]
	/* Replace with your application code */
	while (1)
	{

		
		if(serial_receiving == 1)
    16f2:	4c07      	ldr	r4, [pc, #28]	; (1710 <main+0x30>)
		{
			if(serial_complete == 1)
    16f4:	4d07      	ldr	r5, [pc, #28]	; (1714 <main+0x34>)
			{
				usart_done();
    16f6:	4e08      	ldr	r6, [pc, #32]	; (1718 <main+0x38>)
		if(serial_receiving == 1)
    16f8:	7823      	ldrb	r3, [r4, #0]
    16fa:	2b01      	cmp	r3, #1
    16fc:	d1fc      	bne.n	16f8 <main+0x18>
			if(serial_complete == 1)
    16fe:	782b      	ldrb	r3, [r5, #0]
    1700:	2b01      	cmp	r3, #1
    1702:	d1f9      	bne.n	16f8 <main+0x18>
				usart_done();
    1704:	47b0      	blx	r6
    1706:	e7f7      	b.n	16f8 <main+0x18>
    1708:	0000011d 	.word	0x0000011d
    170c:	000017b9 	.word	0x000017b9
    1710:	20000150 	.word	0x20000150
    1714:	2000021c 	.word	0x2000021c
    1718:	000001c1 	.word	0x000001c1

0000171c <serial_tx_cb>:

static void serial_tx_cb(const struct usart_async_descriptor *const io_descr) {
	
	// Do nothing when tx interrupt is called
	
}
    171c:	4770      	bx	lr
	...

00001720 <serial_rx_cb>:
{
    1720:	b510      	push	{r4, lr}
    1722:	b082      	sub	sp, #8
	count = io_read(&USART_0.io, &ch, 1);
    1724:	2201      	movs	r2, #1
    1726:	466b      	mov	r3, sp
    1728:	1dd9      	adds	r1, r3, #7
    172a:	481f      	ldr	r0, [pc, #124]	; (17a8 <serial_rx_cb+0x88>)
    172c:	4b1f      	ldr	r3, [pc, #124]	; (17ac <serial_rx_cb+0x8c>)
    172e:	4798      	blx	r3
    1730:	b2c1      	uxtb	r1, r0
	if(serial_receiving == 0)
    1732:	4b1f      	ldr	r3, [pc, #124]	; (17b0 <serial_rx_cb+0x90>)
    1734:	781b      	ldrb	r3, [r3, #0]
    1736:	2b00      	cmp	r3, #0
    1738:	d112      	bne.n	1760 <serial_rx_cb+0x40>
		if (ch != '\r' && ch != '\n')
    173a:	466b      	mov	r3, sp
    173c:	79da      	ldrb	r2, [r3, #7]
    173e:	2a0d      	cmp	r2, #13
    1740:	d024      	beq.n	178c <serial_rx_cb+0x6c>
    1742:	2a0a      	cmp	r2, #10
    1744:	d022      	beq.n	178c <serial_rx_cb+0x6c>
			serial_receiving =1;
    1746:	4b1a      	ldr	r3, [pc, #104]	; (17b0 <serial_rx_cb+0x90>)
    1748:	2001      	movs	r0, #1
    174a:	7018      	strb	r0, [r3, #0]
			serial_received_bytes_counter = 0;
    174c:	2000      	movs	r0, #0
    174e:	7058      	strb	r0, [r3, #1]
			rx_buffer[serial_received_bytes_counter] = ch;
    1750:	7858      	ldrb	r0, [r3, #1]
    1752:	1818      	adds	r0, r3, r0
    1754:	7102      	strb	r2, [r0, #4]
			serial_received_bytes_counter += count;
    1756:	7858      	ldrb	r0, [r3, #1]
    1758:	1840      	adds	r0, r0, r1
    175a:	b2c0      	uxtb	r0, r0
    175c:	7058      	strb	r0, [r3, #1]
    175e:	e015      	b.n	178c <serial_rx_cb+0x6c>
		rx_buffer[serial_received_bytes_counter] = ch;
    1760:	4b13      	ldr	r3, [pc, #76]	; (17b0 <serial_rx_cb+0x90>)
    1762:	785a      	ldrb	r2, [r3, #1]
    1764:	4668      	mov	r0, sp
    1766:	79c4      	ldrb	r4, [r0, #7]
    1768:	189a      	adds	r2, r3, r2
    176a:	7114      	strb	r4, [r2, #4]
		serial_received_bytes_counter += count;
    176c:	7858      	ldrb	r0, [r3, #1]
    176e:	1840      	adds	r0, r0, r1
    1770:	b2c0      	uxtb	r0, r0
    1772:	7058      	strb	r0, [r3, #1]
		if (ch == '\r' || ch == '\n')
    1774:	2c0d      	cmp	r4, #13
    1776:	d00b      	beq.n	1790 <serial_rx_cb+0x70>
    1778:	2c0a      	cmp	r4, #10
    177a:	d009      	beq.n	1790 <serial_rx_cb+0x70>
		if(serial_received_bytes_counter >= SERIAL_BUF_SIZE)
    177c:	4b0c      	ldr	r3, [pc, #48]	; (17b0 <serial_rx_cb+0x90>)
    177e:	785b      	ldrb	r3, [r3, #1]
    1780:	b2db      	uxtb	r3, r3
    1782:	2bc7      	cmp	r3, #199	; 0xc7
    1784:	d902      	bls.n	178c <serial_rx_cb+0x6c>
			serial_received_bytes_counter = 0;
    1786:	2200      	movs	r2, #0
    1788:	4b09      	ldr	r3, [pc, #36]	; (17b0 <serial_rx_cb+0x90>)
    178a:	705a      	strb	r2, [r3, #1]
}
    178c:	b002      	add	sp, #8
    178e:	bd10      	pop	{r4, pc}
			serial_complete = 1;
    1790:	4a08      	ldr	r2, [pc, #32]	; (17b4 <serial_rx_cb+0x94>)
    1792:	2101      	movs	r1, #1
    1794:	234c      	movs	r3, #76	; 0x4c
    1796:	54d1      	strb	r1, [r2, r3]
			total_bytes = serial_received_bytes_counter - 2;
    1798:	4b05      	ldr	r3, [pc, #20]	; (17b0 <serial_rx_cb+0x90>)
    179a:	785b      	ldrb	r3, [r3, #1]
    179c:	3b02      	subs	r3, #2
    179e:	b2db      	uxtb	r3, r3
    17a0:	314c      	adds	r1, #76	; 0x4c
    17a2:	5453      	strb	r3, [r2, r1]
    17a4:	e7ea      	b.n	177c <serial_rx_cb+0x5c>
    17a6:	46c0      	nop			; (mov r8, r8)
    17a8:	20000268 	.word	0x20000268
    17ac:	00000839 	.word	0x00000839
    17b0:	20000150 	.word	0x20000150
    17b4:	200001d0 	.word	0x200001d0

000017b8 <uart_init>:

void uart_init(){
    17b8:	b570      	push	{r4, r5, r6, lr}

	usart_async_register_callback(&USART_0, USART_ASYNC_TXC_CB, serial_tx_cb);
    17ba:	4c07      	ldr	r4, [pc, #28]	; (17d8 <uart_init+0x20>)
    17bc:	4a07      	ldr	r2, [pc, #28]	; (17dc <uart_init+0x24>)
    17be:	2101      	movs	r1, #1
    17c0:	0020      	movs	r0, r4
    17c2:	4d07      	ldr	r5, [pc, #28]	; (17e0 <uart_init+0x28>)
    17c4:	47a8      	blx	r5
	usart_async_register_callback(&USART_0, USART_ASYNC_RXC_CB, serial_rx_cb);
    17c6:	4a07      	ldr	r2, [pc, #28]	; (17e4 <uart_init+0x2c>)
    17c8:	2100      	movs	r1, #0
    17ca:	0020      	movs	r0, r4
    17cc:	47a8      	blx	r5
	usart_async_enable(&USART_0);
    17ce:	0020      	movs	r0, r4
    17d0:	4b05      	ldr	r3, [pc, #20]	; (17e8 <uart_init+0x30>)
    17d2:	4798      	blx	r3
	
    17d4:	bd70      	pop	{r4, r5, r6, pc}
    17d6:	46c0      	nop			; (mov r8, r8)
    17d8:	20000268 	.word	0x20000268
    17dc:	0000171d 	.word	0x0000171d
    17e0:	00000c3d 	.word	0x00000c3d
    17e4:	00001721 	.word	0x00001721
    17e8:	00000c11 	.word	0x00000c11

000017ec <__aeabi_f2uiz>:
    17ec:	219e      	movs	r1, #158	; 0x9e
    17ee:	b510      	push	{r4, lr}
    17f0:	05c9      	lsls	r1, r1, #23
    17f2:	1c04      	adds	r4, r0, #0
    17f4:	f000 fb64 	bl	1ec0 <__aeabi_fcmpge>
    17f8:	2800      	cmp	r0, #0
    17fa:	d103      	bne.n	1804 <__aeabi_f2uiz+0x18>
    17fc:	1c20      	adds	r0, r4, #0
    17fe:	f000 fac9 	bl	1d94 <__aeabi_f2iz>
    1802:	bd10      	pop	{r4, pc}
    1804:	219e      	movs	r1, #158	; 0x9e
    1806:	1c20      	adds	r0, r4, #0
    1808:	05c9      	lsls	r1, r1, #23
    180a:	f000 f927 	bl	1a5c <__aeabi_fsub>
    180e:	f000 fac1 	bl	1d94 <__aeabi_f2iz>
    1812:	2380      	movs	r3, #128	; 0x80
    1814:	061b      	lsls	r3, r3, #24
    1816:	469c      	mov	ip, r3
    1818:	4460      	add	r0, ip
    181a:	e7f2      	b.n	1802 <__aeabi_f2uiz+0x16>

0000181c <__aeabi_fmul>:
    181c:	b5f8      	push	{r3, r4, r5, r6, r7, lr}
    181e:	4657      	mov	r7, sl
    1820:	464e      	mov	r6, r9
    1822:	4645      	mov	r5, r8
    1824:	46de      	mov	lr, fp
    1826:	b5e0      	push	{r5, r6, r7, lr}
    1828:	0247      	lsls	r7, r0, #9
    182a:	0046      	lsls	r6, r0, #1
    182c:	4688      	mov	r8, r1
    182e:	0a7f      	lsrs	r7, r7, #9
    1830:	0e36      	lsrs	r6, r6, #24
    1832:	0fc4      	lsrs	r4, r0, #31
    1834:	2e00      	cmp	r6, #0
    1836:	d047      	beq.n	18c8 <__aeabi_fmul+0xac>
    1838:	2eff      	cmp	r6, #255	; 0xff
    183a:	d024      	beq.n	1886 <__aeabi_fmul+0x6a>
    183c:	00fb      	lsls	r3, r7, #3
    183e:	2780      	movs	r7, #128	; 0x80
    1840:	04ff      	lsls	r7, r7, #19
    1842:	431f      	orrs	r7, r3
    1844:	2300      	movs	r3, #0
    1846:	4699      	mov	r9, r3
    1848:	469a      	mov	sl, r3
    184a:	3e7f      	subs	r6, #127	; 0x7f
    184c:	4643      	mov	r3, r8
    184e:	025d      	lsls	r5, r3, #9
    1850:	0058      	lsls	r0, r3, #1
    1852:	0fdb      	lsrs	r3, r3, #31
    1854:	0a6d      	lsrs	r5, r5, #9
    1856:	0e00      	lsrs	r0, r0, #24
    1858:	4698      	mov	r8, r3
    185a:	d043      	beq.n	18e4 <__aeabi_fmul+0xc8>
    185c:	28ff      	cmp	r0, #255	; 0xff
    185e:	d03b      	beq.n	18d8 <__aeabi_fmul+0xbc>
    1860:	00eb      	lsls	r3, r5, #3
    1862:	2580      	movs	r5, #128	; 0x80
    1864:	2200      	movs	r2, #0
    1866:	04ed      	lsls	r5, r5, #19
    1868:	431d      	orrs	r5, r3
    186a:	387f      	subs	r0, #127	; 0x7f
    186c:	1836      	adds	r6, r6, r0
    186e:	1c73      	adds	r3, r6, #1
    1870:	4641      	mov	r1, r8
    1872:	469b      	mov	fp, r3
    1874:	464b      	mov	r3, r9
    1876:	4061      	eors	r1, r4
    1878:	4313      	orrs	r3, r2
    187a:	2b0f      	cmp	r3, #15
    187c:	d864      	bhi.n	1948 <__aeabi_fmul+0x12c>
    187e:	4875      	ldr	r0, [pc, #468]	; (1a54 <__aeabi_fmul+0x238>)
    1880:	009b      	lsls	r3, r3, #2
    1882:	58c3      	ldr	r3, [r0, r3]
    1884:	469f      	mov	pc, r3
    1886:	2f00      	cmp	r7, #0
    1888:	d142      	bne.n	1910 <__aeabi_fmul+0xf4>
    188a:	2308      	movs	r3, #8
    188c:	4699      	mov	r9, r3
    188e:	3b06      	subs	r3, #6
    1890:	26ff      	movs	r6, #255	; 0xff
    1892:	469a      	mov	sl, r3
    1894:	e7da      	b.n	184c <__aeabi_fmul+0x30>
    1896:	4641      	mov	r1, r8
    1898:	2a02      	cmp	r2, #2
    189a:	d028      	beq.n	18ee <__aeabi_fmul+0xd2>
    189c:	2a03      	cmp	r2, #3
    189e:	d100      	bne.n	18a2 <__aeabi_fmul+0x86>
    18a0:	e0ce      	b.n	1a40 <__aeabi_fmul+0x224>
    18a2:	2a01      	cmp	r2, #1
    18a4:	d000      	beq.n	18a8 <__aeabi_fmul+0x8c>
    18a6:	e0ac      	b.n	1a02 <__aeabi_fmul+0x1e6>
    18a8:	4011      	ands	r1, r2
    18aa:	2000      	movs	r0, #0
    18ac:	2200      	movs	r2, #0
    18ae:	b2cc      	uxtb	r4, r1
    18b0:	0240      	lsls	r0, r0, #9
    18b2:	05d2      	lsls	r2, r2, #23
    18b4:	0a40      	lsrs	r0, r0, #9
    18b6:	07e4      	lsls	r4, r4, #31
    18b8:	4310      	orrs	r0, r2
    18ba:	4320      	orrs	r0, r4
    18bc:	bc3c      	pop	{r2, r3, r4, r5}
    18be:	4690      	mov	r8, r2
    18c0:	4699      	mov	r9, r3
    18c2:	46a2      	mov	sl, r4
    18c4:	46ab      	mov	fp, r5
    18c6:	bdf8      	pop	{r3, r4, r5, r6, r7, pc}
    18c8:	2f00      	cmp	r7, #0
    18ca:	d115      	bne.n	18f8 <__aeabi_fmul+0xdc>
    18cc:	2304      	movs	r3, #4
    18ce:	4699      	mov	r9, r3
    18d0:	3b03      	subs	r3, #3
    18d2:	2600      	movs	r6, #0
    18d4:	469a      	mov	sl, r3
    18d6:	e7b9      	b.n	184c <__aeabi_fmul+0x30>
    18d8:	20ff      	movs	r0, #255	; 0xff
    18da:	2202      	movs	r2, #2
    18dc:	2d00      	cmp	r5, #0
    18de:	d0c5      	beq.n	186c <__aeabi_fmul+0x50>
    18e0:	2203      	movs	r2, #3
    18e2:	e7c3      	b.n	186c <__aeabi_fmul+0x50>
    18e4:	2d00      	cmp	r5, #0
    18e6:	d119      	bne.n	191c <__aeabi_fmul+0x100>
    18e8:	2000      	movs	r0, #0
    18ea:	2201      	movs	r2, #1
    18ec:	e7be      	b.n	186c <__aeabi_fmul+0x50>
    18ee:	2401      	movs	r4, #1
    18f0:	22ff      	movs	r2, #255	; 0xff
    18f2:	400c      	ands	r4, r1
    18f4:	2000      	movs	r0, #0
    18f6:	e7db      	b.n	18b0 <__aeabi_fmul+0x94>
    18f8:	0038      	movs	r0, r7
    18fa:	f000 faeb 	bl	1ed4 <__clzsi2>
    18fe:	2676      	movs	r6, #118	; 0x76
    1900:	1f43      	subs	r3, r0, #5
    1902:	409f      	lsls	r7, r3
    1904:	2300      	movs	r3, #0
    1906:	4276      	negs	r6, r6
    1908:	1a36      	subs	r6, r6, r0
    190a:	4699      	mov	r9, r3
    190c:	469a      	mov	sl, r3
    190e:	e79d      	b.n	184c <__aeabi_fmul+0x30>
    1910:	230c      	movs	r3, #12
    1912:	4699      	mov	r9, r3
    1914:	3b09      	subs	r3, #9
    1916:	26ff      	movs	r6, #255	; 0xff
    1918:	469a      	mov	sl, r3
    191a:	e797      	b.n	184c <__aeabi_fmul+0x30>
    191c:	0028      	movs	r0, r5
    191e:	f000 fad9 	bl	1ed4 <__clzsi2>
    1922:	1f43      	subs	r3, r0, #5
    1924:	409d      	lsls	r5, r3
    1926:	2376      	movs	r3, #118	; 0x76
    1928:	425b      	negs	r3, r3
    192a:	1a18      	subs	r0, r3, r0
    192c:	2200      	movs	r2, #0
    192e:	e79d      	b.n	186c <__aeabi_fmul+0x50>
    1930:	2080      	movs	r0, #128	; 0x80
    1932:	2400      	movs	r4, #0
    1934:	03c0      	lsls	r0, r0, #15
    1936:	22ff      	movs	r2, #255	; 0xff
    1938:	e7ba      	b.n	18b0 <__aeabi_fmul+0x94>
    193a:	003d      	movs	r5, r7
    193c:	4652      	mov	r2, sl
    193e:	e7ab      	b.n	1898 <__aeabi_fmul+0x7c>
    1940:	003d      	movs	r5, r7
    1942:	0021      	movs	r1, r4
    1944:	4652      	mov	r2, sl
    1946:	e7a7      	b.n	1898 <__aeabi_fmul+0x7c>
    1948:	0c3b      	lsrs	r3, r7, #16
    194a:	469c      	mov	ip, r3
    194c:	042a      	lsls	r2, r5, #16
    194e:	0c12      	lsrs	r2, r2, #16
    1950:	0c2b      	lsrs	r3, r5, #16
    1952:	0014      	movs	r4, r2
    1954:	4660      	mov	r0, ip
    1956:	4665      	mov	r5, ip
    1958:	043f      	lsls	r7, r7, #16
    195a:	0c3f      	lsrs	r7, r7, #16
    195c:	437c      	muls	r4, r7
    195e:	4342      	muls	r2, r0
    1960:	435d      	muls	r5, r3
    1962:	437b      	muls	r3, r7
    1964:	0c27      	lsrs	r7, r4, #16
    1966:	189b      	adds	r3, r3, r2
    1968:	18ff      	adds	r7, r7, r3
    196a:	42ba      	cmp	r2, r7
    196c:	d903      	bls.n	1976 <__aeabi_fmul+0x15a>
    196e:	2380      	movs	r3, #128	; 0x80
    1970:	025b      	lsls	r3, r3, #9
    1972:	469c      	mov	ip, r3
    1974:	4465      	add	r5, ip
    1976:	0424      	lsls	r4, r4, #16
    1978:	043a      	lsls	r2, r7, #16
    197a:	0c24      	lsrs	r4, r4, #16
    197c:	1912      	adds	r2, r2, r4
    197e:	0193      	lsls	r3, r2, #6
    1980:	1e5c      	subs	r4, r3, #1
    1982:	41a3      	sbcs	r3, r4
    1984:	0c3f      	lsrs	r7, r7, #16
    1986:	0e92      	lsrs	r2, r2, #26
    1988:	197d      	adds	r5, r7, r5
    198a:	431a      	orrs	r2, r3
    198c:	01ad      	lsls	r5, r5, #6
    198e:	4315      	orrs	r5, r2
    1990:	012b      	lsls	r3, r5, #4
    1992:	d504      	bpl.n	199e <__aeabi_fmul+0x182>
    1994:	2301      	movs	r3, #1
    1996:	465e      	mov	r6, fp
    1998:	086a      	lsrs	r2, r5, #1
    199a:	401d      	ands	r5, r3
    199c:	4315      	orrs	r5, r2
    199e:	0032      	movs	r2, r6
    19a0:	327f      	adds	r2, #127	; 0x7f
    19a2:	2a00      	cmp	r2, #0
    19a4:	dd25      	ble.n	19f2 <__aeabi_fmul+0x1d6>
    19a6:	076b      	lsls	r3, r5, #29
    19a8:	d004      	beq.n	19b4 <__aeabi_fmul+0x198>
    19aa:	230f      	movs	r3, #15
    19ac:	402b      	ands	r3, r5
    19ae:	2b04      	cmp	r3, #4
    19b0:	d000      	beq.n	19b4 <__aeabi_fmul+0x198>
    19b2:	3504      	adds	r5, #4
    19b4:	012b      	lsls	r3, r5, #4
    19b6:	d503      	bpl.n	19c0 <__aeabi_fmul+0x1a4>
    19b8:	0032      	movs	r2, r6
    19ba:	4b27      	ldr	r3, [pc, #156]	; (1a58 <__aeabi_fmul+0x23c>)
    19bc:	3280      	adds	r2, #128	; 0x80
    19be:	401d      	ands	r5, r3
    19c0:	2afe      	cmp	r2, #254	; 0xfe
    19c2:	dc94      	bgt.n	18ee <__aeabi_fmul+0xd2>
    19c4:	2401      	movs	r4, #1
    19c6:	01a8      	lsls	r0, r5, #6
    19c8:	0a40      	lsrs	r0, r0, #9
    19ca:	b2d2      	uxtb	r2, r2
    19cc:	400c      	ands	r4, r1
    19ce:	e76f      	b.n	18b0 <__aeabi_fmul+0x94>
    19d0:	2080      	movs	r0, #128	; 0x80
    19d2:	03c0      	lsls	r0, r0, #15
    19d4:	4207      	tst	r7, r0
    19d6:	d007      	beq.n	19e8 <__aeabi_fmul+0x1cc>
    19d8:	4205      	tst	r5, r0
    19da:	d105      	bne.n	19e8 <__aeabi_fmul+0x1cc>
    19dc:	4328      	orrs	r0, r5
    19de:	0240      	lsls	r0, r0, #9
    19e0:	0a40      	lsrs	r0, r0, #9
    19e2:	4644      	mov	r4, r8
    19e4:	22ff      	movs	r2, #255	; 0xff
    19e6:	e763      	b.n	18b0 <__aeabi_fmul+0x94>
    19e8:	4338      	orrs	r0, r7
    19ea:	0240      	lsls	r0, r0, #9
    19ec:	0a40      	lsrs	r0, r0, #9
    19ee:	22ff      	movs	r2, #255	; 0xff
    19f0:	e75e      	b.n	18b0 <__aeabi_fmul+0x94>
    19f2:	2401      	movs	r4, #1
    19f4:	1aa3      	subs	r3, r4, r2
    19f6:	2b1b      	cmp	r3, #27
    19f8:	dd05      	ble.n	1a06 <__aeabi_fmul+0x1ea>
    19fa:	400c      	ands	r4, r1
    19fc:	2200      	movs	r2, #0
    19fe:	2000      	movs	r0, #0
    1a00:	e756      	b.n	18b0 <__aeabi_fmul+0x94>
    1a02:	465e      	mov	r6, fp
    1a04:	e7cb      	b.n	199e <__aeabi_fmul+0x182>
    1a06:	002a      	movs	r2, r5
    1a08:	2020      	movs	r0, #32
    1a0a:	40da      	lsrs	r2, r3
    1a0c:	1ac3      	subs	r3, r0, r3
    1a0e:	409d      	lsls	r5, r3
    1a10:	002b      	movs	r3, r5
    1a12:	1e5d      	subs	r5, r3, #1
    1a14:	41ab      	sbcs	r3, r5
    1a16:	4313      	orrs	r3, r2
    1a18:	075a      	lsls	r2, r3, #29
    1a1a:	d004      	beq.n	1a26 <__aeabi_fmul+0x20a>
    1a1c:	220f      	movs	r2, #15
    1a1e:	401a      	ands	r2, r3
    1a20:	2a04      	cmp	r2, #4
    1a22:	d000      	beq.n	1a26 <__aeabi_fmul+0x20a>
    1a24:	3304      	adds	r3, #4
    1a26:	015a      	lsls	r2, r3, #5
    1a28:	d504      	bpl.n	1a34 <__aeabi_fmul+0x218>
    1a2a:	2401      	movs	r4, #1
    1a2c:	2201      	movs	r2, #1
    1a2e:	400c      	ands	r4, r1
    1a30:	2000      	movs	r0, #0
    1a32:	e73d      	b.n	18b0 <__aeabi_fmul+0x94>
    1a34:	2401      	movs	r4, #1
    1a36:	019b      	lsls	r3, r3, #6
    1a38:	0a58      	lsrs	r0, r3, #9
    1a3a:	400c      	ands	r4, r1
    1a3c:	2200      	movs	r2, #0
    1a3e:	e737      	b.n	18b0 <__aeabi_fmul+0x94>
    1a40:	2080      	movs	r0, #128	; 0x80
    1a42:	2401      	movs	r4, #1
    1a44:	03c0      	lsls	r0, r0, #15
    1a46:	4328      	orrs	r0, r5
    1a48:	0240      	lsls	r0, r0, #9
    1a4a:	0a40      	lsrs	r0, r0, #9
    1a4c:	400c      	ands	r4, r1
    1a4e:	22ff      	movs	r2, #255	; 0xff
    1a50:	e72e      	b.n	18b0 <__aeabi_fmul+0x94>
    1a52:	46c0      	nop			; (mov r8, r8)
    1a54:	00002224 	.word	0x00002224
    1a58:	f7ffffff 	.word	0xf7ffffff

00001a5c <__aeabi_fsub>:
    1a5c:	b5f0      	push	{r4, r5, r6, r7, lr}
    1a5e:	464f      	mov	r7, r9
    1a60:	46d6      	mov	lr, sl
    1a62:	4646      	mov	r6, r8
    1a64:	0044      	lsls	r4, r0, #1
    1a66:	b5c0      	push	{r6, r7, lr}
    1a68:	0fc2      	lsrs	r2, r0, #31
    1a6a:	0247      	lsls	r7, r0, #9
    1a6c:	0248      	lsls	r0, r1, #9
    1a6e:	0a40      	lsrs	r0, r0, #9
    1a70:	4684      	mov	ip, r0
    1a72:	4666      	mov	r6, ip
    1a74:	0a7b      	lsrs	r3, r7, #9
    1a76:	0048      	lsls	r0, r1, #1
    1a78:	0fc9      	lsrs	r1, r1, #31
    1a7a:	469a      	mov	sl, r3
    1a7c:	0e24      	lsrs	r4, r4, #24
    1a7e:	0015      	movs	r5, r2
    1a80:	00db      	lsls	r3, r3, #3
    1a82:	0e00      	lsrs	r0, r0, #24
    1a84:	4689      	mov	r9, r1
    1a86:	00f6      	lsls	r6, r6, #3
    1a88:	28ff      	cmp	r0, #255	; 0xff
    1a8a:	d100      	bne.n	1a8e <__aeabi_fsub+0x32>
    1a8c:	e08f      	b.n	1bae <__aeabi_fsub+0x152>
    1a8e:	2101      	movs	r1, #1
    1a90:	464f      	mov	r7, r9
    1a92:	404f      	eors	r7, r1
    1a94:	0039      	movs	r1, r7
    1a96:	4291      	cmp	r1, r2
    1a98:	d066      	beq.n	1b68 <__aeabi_fsub+0x10c>
    1a9a:	1a22      	subs	r2, r4, r0
    1a9c:	2a00      	cmp	r2, #0
    1a9e:	dc00      	bgt.n	1aa2 <__aeabi_fsub+0x46>
    1aa0:	e09d      	b.n	1bde <__aeabi_fsub+0x182>
    1aa2:	2800      	cmp	r0, #0
    1aa4:	d13d      	bne.n	1b22 <__aeabi_fsub+0xc6>
    1aa6:	2e00      	cmp	r6, #0
    1aa8:	d100      	bne.n	1aac <__aeabi_fsub+0x50>
    1aaa:	e08b      	b.n	1bc4 <__aeabi_fsub+0x168>
    1aac:	1e51      	subs	r1, r2, #1
    1aae:	2900      	cmp	r1, #0
    1ab0:	d000      	beq.n	1ab4 <__aeabi_fsub+0x58>
    1ab2:	e0b5      	b.n	1c20 <__aeabi_fsub+0x1c4>
    1ab4:	2401      	movs	r4, #1
    1ab6:	1b9b      	subs	r3, r3, r6
    1ab8:	015a      	lsls	r2, r3, #5
    1aba:	d544      	bpl.n	1b46 <__aeabi_fsub+0xea>
    1abc:	019b      	lsls	r3, r3, #6
    1abe:	099f      	lsrs	r7, r3, #6
    1ac0:	0038      	movs	r0, r7
    1ac2:	f000 fa07 	bl	1ed4 <__clzsi2>
    1ac6:	3805      	subs	r0, #5
    1ac8:	4087      	lsls	r7, r0
    1aca:	4284      	cmp	r4, r0
    1acc:	dd00      	ble.n	1ad0 <__aeabi_fsub+0x74>
    1ace:	e096      	b.n	1bfe <__aeabi_fsub+0x1a2>
    1ad0:	1b04      	subs	r4, r0, r4
    1ad2:	003a      	movs	r2, r7
    1ad4:	2020      	movs	r0, #32
    1ad6:	3401      	adds	r4, #1
    1ad8:	40e2      	lsrs	r2, r4
    1ada:	1b04      	subs	r4, r0, r4
    1adc:	40a7      	lsls	r7, r4
    1ade:	003b      	movs	r3, r7
    1ae0:	1e5f      	subs	r7, r3, #1
    1ae2:	41bb      	sbcs	r3, r7
    1ae4:	2400      	movs	r4, #0
    1ae6:	4313      	orrs	r3, r2
    1ae8:	075a      	lsls	r2, r3, #29
    1aea:	d004      	beq.n	1af6 <__aeabi_fsub+0x9a>
    1aec:	220f      	movs	r2, #15
    1aee:	401a      	ands	r2, r3
    1af0:	2a04      	cmp	r2, #4
    1af2:	d000      	beq.n	1af6 <__aeabi_fsub+0x9a>
    1af4:	3304      	adds	r3, #4
    1af6:	015a      	lsls	r2, r3, #5
    1af8:	d527      	bpl.n	1b4a <__aeabi_fsub+0xee>
    1afa:	3401      	adds	r4, #1
    1afc:	2cff      	cmp	r4, #255	; 0xff
    1afe:	d100      	bne.n	1b02 <__aeabi_fsub+0xa6>
    1b00:	e079      	b.n	1bf6 <__aeabi_fsub+0x19a>
    1b02:	2201      	movs	r2, #1
    1b04:	019b      	lsls	r3, r3, #6
    1b06:	0a5b      	lsrs	r3, r3, #9
    1b08:	b2e4      	uxtb	r4, r4
    1b0a:	402a      	ands	r2, r5
    1b0c:	025b      	lsls	r3, r3, #9
    1b0e:	05e4      	lsls	r4, r4, #23
    1b10:	0a58      	lsrs	r0, r3, #9
    1b12:	07d2      	lsls	r2, r2, #31
    1b14:	4320      	orrs	r0, r4
    1b16:	4310      	orrs	r0, r2
    1b18:	bc1c      	pop	{r2, r3, r4}
    1b1a:	4690      	mov	r8, r2
    1b1c:	4699      	mov	r9, r3
    1b1e:	46a2      	mov	sl, r4
    1b20:	bdf0      	pop	{r4, r5, r6, r7, pc}
    1b22:	2cff      	cmp	r4, #255	; 0xff
    1b24:	d0e0      	beq.n	1ae8 <__aeabi_fsub+0x8c>
    1b26:	2180      	movs	r1, #128	; 0x80
    1b28:	04c9      	lsls	r1, r1, #19
    1b2a:	430e      	orrs	r6, r1
    1b2c:	2a1b      	cmp	r2, #27
    1b2e:	dc7b      	bgt.n	1c28 <__aeabi_fsub+0x1cc>
    1b30:	0031      	movs	r1, r6
    1b32:	2020      	movs	r0, #32
    1b34:	40d1      	lsrs	r1, r2
    1b36:	1a82      	subs	r2, r0, r2
    1b38:	4096      	lsls	r6, r2
    1b3a:	1e72      	subs	r2, r6, #1
    1b3c:	4196      	sbcs	r6, r2
    1b3e:	430e      	orrs	r6, r1
    1b40:	1b9b      	subs	r3, r3, r6
    1b42:	015a      	lsls	r2, r3, #5
    1b44:	d4ba      	bmi.n	1abc <__aeabi_fsub+0x60>
    1b46:	075a      	lsls	r2, r3, #29
    1b48:	d1d0      	bne.n	1aec <__aeabi_fsub+0x90>
    1b4a:	2201      	movs	r2, #1
    1b4c:	08df      	lsrs	r7, r3, #3
    1b4e:	402a      	ands	r2, r5
    1b50:	2cff      	cmp	r4, #255	; 0xff
    1b52:	d133      	bne.n	1bbc <__aeabi_fsub+0x160>
    1b54:	2f00      	cmp	r7, #0
    1b56:	d100      	bne.n	1b5a <__aeabi_fsub+0xfe>
    1b58:	e0a8      	b.n	1cac <__aeabi_fsub+0x250>
    1b5a:	2380      	movs	r3, #128	; 0x80
    1b5c:	03db      	lsls	r3, r3, #15
    1b5e:	433b      	orrs	r3, r7
    1b60:	025b      	lsls	r3, r3, #9
    1b62:	0a5b      	lsrs	r3, r3, #9
    1b64:	24ff      	movs	r4, #255	; 0xff
    1b66:	e7d1      	b.n	1b0c <__aeabi_fsub+0xb0>
    1b68:	1a21      	subs	r1, r4, r0
    1b6a:	2900      	cmp	r1, #0
    1b6c:	dd4c      	ble.n	1c08 <__aeabi_fsub+0x1ac>
    1b6e:	2800      	cmp	r0, #0
    1b70:	d02a      	beq.n	1bc8 <__aeabi_fsub+0x16c>
    1b72:	2cff      	cmp	r4, #255	; 0xff
    1b74:	d0b8      	beq.n	1ae8 <__aeabi_fsub+0x8c>
    1b76:	2080      	movs	r0, #128	; 0x80
    1b78:	04c0      	lsls	r0, r0, #19
    1b7a:	4306      	orrs	r6, r0
    1b7c:	291b      	cmp	r1, #27
    1b7e:	dd00      	ble.n	1b82 <__aeabi_fsub+0x126>
    1b80:	e0af      	b.n	1ce2 <__aeabi_fsub+0x286>
    1b82:	0030      	movs	r0, r6
    1b84:	2720      	movs	r7, #32
    1b86:	40c8      	lsrs	r0, r1
    1b88:	1a79      	subs	r1, r7, r1
    1b8a:	408e      	lsls	r6, r1
    1b8c:	1e71      	subs	r1, r6, #1
    1b8e:	418e      	sbcs	r6, r1
    1b90:	4306      	orrs	r6, r0
    1b92:	199b      	adds	r3, r3, r6
    1b94:	0159      	lsls	r1, r3, #5
    1b96:	d5d6      	bpl.n	1b46 <__aeabi_fsub+0xea>
    1b98:	3401      	adds	r4, #1
    1b9a:	2cff      	cmp	r4, #255	; 0xff
    1b9c:	d100      	bne.n	1ba0 <__aeabi_fsub+0x144>
    1b9e:	e085      	b.n	1cac <__aeabi_fsub+0x250>
    1ba0:	2201      	movs	r2, #1
    1ba2:	497a      	ldr	r1, [pc, #488]	; (1d8c <__aeabi_fsub+0x330>)
    1ba4:	401a      	ands	r2, r3
    1ba6:	085b      	lsrs	r3, r3, #1
    1ba8:	400b      	ands	r3, r1
    1baa:	4313      	orrs	r3, r2
    1bac:	e79c      	b.n	1ae8 <__aeabi_fsub+0x8c>
    1bae:	2e00      	cmp	r6, #0
    1bb0:	d000      	beq.n	1bb4 <__aeabi_fsub+0x158>
    1bb2:	e770      	b.n	1a96 <__aeabi_fsub+0x3a>
    1bb4:	e76b      	b.n	1a8e <__aeabi_fsub+0x32>
    1bb6:	1e3b      	subs	r3, r7, #0
    1bb8:	d1c5      	bne.n	1b46 <__aeabi_fsub+0xea>
    1bba:	2200      	movs	r2, #0
    1bbc:	027b      	lsls	r3, r7, #9
    1bbe:	0a5b      	lsrs	r3, r3, #9
    1bc0:	b2e4      	uxtb	r4, r4
    1bc2:	e7a3      	b.n	1b0c <__aeabi_fsub+0xb0>
    1bc4:	0014      	movs	r4, r2
    1bc6:	e78f      	b.n	1ae8 <__aeabi_fsub+0x8c>
    1bc8:	2e00      	cmp	r6, #0
    1bca:	d04d      	beq.n	1c68 <__aeabi_fsub+0x20c>
    1bcc:	1e48      	subs	r0, r1, #1
    1bce:	2800      	cmp	r0, #0
    1bd0:	d157      	bne.n	1c82 <__aeabi_fsub+0x226>
    1bd2:	199b      	adds	r3, r3, r6
    1bd4:	2401      	movs	r4, #1
    1bd6:	015a      	lsls	r2, r3, #5
    1bd8:	d5b5      	bpl.n	1b46 <__aeabi_fsub+0xea>
    1bda:	2402      	movs	r4, #2
    1bdc:	e7e0      	b.n	1ba0 <__aeabi_fsub+0x144>
    1bde:	2a00      	cmp	r2, #0
    1be0:	d125      	bne.n	1c2e <__aeabi_fsub+0x1d2>
    1be2:	1c62      	adds	r2, r4, #1
    1be4:	b2d2      	uxtb	r2, r2
    1be6:	2a01      	cmp	r2, #1
    1be8:	dd72      	ble.n	1cd0 <__aeabi_fsub+0x274>
    1bea:	1b9f      	subs	r7, r3, r6
    1bec:	017a      	lsls	r2, r7, #5
    1bee:	d535      	bpl.n	1c5c <__aeabi_fsub+0x200>
    1bf0:	1af7      	subs	r7, r6, r3
    1bf2:	000d      	movs	r5, r1
    1bf4:	e764      	b.n	1ac0 <__aeabi_fsub+0x64>
    1bf6:	2201      	movs	r2, #1
    1bf8:	2300      	movs	r3, #0
    1bfa:	402a      	ands	r2, r5
    1bfc:	e786      	b.n	1b0c <__aeabi_fsub+0xb0>
    1bfe:	003b      	movs	r3, r7
    1c00:	4a63      	ldr	r2, [pc, #396]	; (1d90 <__aeabi_fsub+0x334>)
    1c02:	1a24      	subs	r4, r4, r0
    1c04:	4013      	ands	r3, r2
    1c06:	e76f      	b.n	1ae8 <__aeabi_fsub+0x8c>
    1c08:	2900      	cmp	r1, #0
    1c0a:	d16c      	bne.n	1ce6 <__aeabi_fsub+0x28a>
    1c0c:	1c61      	adds	r1, r4, #1
    1c0e:	b2c8      	uxtb	r0, r1
    1c10:	2801      	cmp	r0, #1
    1c12:	dd4e      	ble.n	1cb2 <__aeabi_fsub+0x256>
    1c14:	29ff      	cmp	r1, #255	; 0xff
    1c16:	d049      	beq.n	1cac <__aeabi_fsub+0x250>
    1c18:	199b      	adds	r3, r3, r6
    1c1a:	085b      	lsrs	r3, r3, #1
    1c1c:	000c      	movs	r4, r1
    1c1e:	e763      	b.n	1ae8 <__aeabi_fsub+0x8c>
    1c20:	2aff      	cmp	r2, #255	; 0xff
    1c22:	d041      	beq.n	1ca8 <__aeabi_fsub+0x24c>
    1c24:	000a      	movs	r2, r1
    1c26:	e781      	b.n	1b2c <__aeabi_fsub+0xd0>
    1c28:	2601      	movs	r6, #1
    1c2a:	1b9b      	subs	r3, r3, r6
    1c2c:	e789      	b.n	1b42 <__aeabi_fsub+0xe6>
    1c2e:	2c00      	cmp	r4, #0
    1c30:	d01c      	beq.n	1c6c <__aeabi_fsub+0x210>
    1c32:	28ff      	cmp	r0, #255	; 0xff
    1c34:	d021      	beq.n	1c7a <__aeabi_fsub+0x21e>
    1c36:	2480      	movs	r4, #128	; 0x80
    1c38:	04e4      	lsls	r4, r4, #19
    1c3a:	4252      	negs	r2, r2
    1c3c:	4323      	orrs	r3, r4
    1c3e:	2a1b      	cmp	r2, #27
    1c40:	dd00      	ble.n	1c44 <__aeabi_fsub+0x1e8>
    1c42:	e096      	b.n	1d72 <__aeabi_fsub+0x316>
    1c44:	001c      	movs	r4, r3
    1c46:	2520      	movs	r5, #32
    1c48:	40d4      	lsrs	r4, r2
    1c4a:	1aaa      	subs	r2, r5, r2
    1c4c:	4093      	lsls	r3, r2
    1c4e:	1e5a      	subs	r2, r3, #1
    1c50:	4193      	sbcs	r3, r2
    1c52:	4323      	orrs	r3, r4
    1c54:	1af3      	subs	r3, r6, r3
    1c56:	0004      	movs	r4, r0
    1c58:	000d      	movs	r5, r1
    1c5a:	e72d      	b.n	1ab8 <__aeabi_fsub+0x5c>
    1c5c:	2f00      	cmp	r7, #0
    1c5e:	d000      	beq.n	1c62 <__aeabi_fsub+0x206>
    1c60:	e72e      	b.n	1ac0 <__aeabi_fsub+0x64>
    1c62:	2200      	movs	r2, #0
    1c64:	2400      	movs	r4, #0
    1c66:	e7a9      	b.n	1bbc <__aeabi_fsub+0x160>
    1c68:	000c      	movs	r4, r1
    1c6a:	e73d      	b.n	1ae8 <__aeabi_fsub+0x8c>
    1c6c:	2b00      	cmp	r3, #0
    1c6e:	d058      	beq.n	1d22 <__aeabi_fsub+0x2c6>
    1c70:	43d2      	mvns	r2, r2
    1c72:	2a00      	cmp	r2, #0
    1c74:	d0ee      	beq.n	1c54 <__aeabi_fsub+0x1f8>
    1c76:	28ff      	cmp	r0, #255	; 0xff
    1c78:	d1e1      	bne.n	1c3e <__aeabi_fsub+0x1e2>
    1c7a:	0033      	movs	r3, r6
    1c7c:	24ff      	movs	r4, #255	; 0xff
    1c7e:	000d      	movs	r5, r1
    1c80:	e732      	b.n	1ae8 <__aeabi_fsub+0x8c>
    1c82:	29ff      	cmp	r1, #255	; 0xff
    1c84:	d010      	beq.n	1ca8 <__aeabi_fsub+0x24c>
    1c86:	0001      	movs	r1, r0
    1c88:	e778      	b.n	1b7c <__aeabi_fsub+0x120>
    1c8a:	2b00      	cmp	r3, #0
    1c8c:	d06e      	beq.n	1d6c <__aeabi_fsub+0x310>
    1c8e:	24ff      	movs	r4, #255	; 0xff
    1c90:	2e00      	cmp	r6, #0
    1c92:	d100      	bne.n	1c96 <__aeabi_fsub+0x23a>
    1c94:	e728      	b.n	1ae8 <__aeabi_fsub+0x8c>
    1c96:	2280      	movs	r2, #128	; 0x80
    1c98:	4651      	mov	r1, sl
    1c9a:	03d2      	lsls	r2, r2, #15
    1c9c:	4211      	tst	r1, r2
    1c9e:	d003      	beq.n	1ca8 <__aeabi_fsub+0x24c>
    1ca0:	4661      	mov	r1, ip
    1ca2:	4211      	tst	r1, r2
    1ca4:	d100      	bne.n	1ca8 <__aeabi_fsub+0x24c>
    1ca6:	0033      	movs	r3, r6
    1ca8:	24ff      	movs	r4, #255	; 0xff
    1caa:	e71d      	b.n	1ae8 <__aeabi_fsub+0x8c>
    1cac:	24ff      	movs	r4, #255	; 0xff
    1cae:	2300      	movs	r3, #0
    1cb0:	e72c      	b.n	1b0c <__aeabi_fsub+0xb0>
    1cb2:	2c00      	cmp	r4, #0
    1cb4:	d1e9      	bne.n	1c8a <__aeabi_fsub+0x22e>
    1cb6:	2b00      	cmp	r3, #0
    1cb8:	d063      	beq.n	1d82 <__aeabi_fsub+0x326>
    1cba:	2e00      	cmp	r6, #0
    1cbc:	d100      	bne.n	1cc0 <__aeabi_fsub+0x264>
    1cbe:	e713      	b.n	1ae8 <__aeabi_fsub+0x8c>
    1cc0:	199b      	adds	r3, r3, r6
    1cc2:	015a      	lsls	r2, r3, #5
    1cc4:	d400      	bmi.n	1cc8 <__aeabi_fsub+0x26c>
    1cc6:	e73e      	b.n	1b46 <__aeabi_fsub+0xea>
    1cc8:	4a31      	ldr	r2, [pc, #196]	; (1d90 <__aeabi_fsub+0x334>)
    1cca:	000c      	movs	r4, r1
    1ccc:	4013      	ands	r3, r2
    1cce:	e70b      	b.n	1ae8 <__aeabi_fsub+0x8c>
    1cd0:	2c00      	cmp	r4, #0
    1cd2:	d11e      	bne.n	1d12 <__aeabi_fsub+0x2b6>
    1cd4:	2b00      	cmp	r3, #0
    1cd6:	d12f      	bne.n	1d38 <__aeabi_fsub+0x2dc>
    1cd8:	2e00      	cmp	r6, #0
    1cda:	d04f      	beq.n	1d7c <__aeabi_fsub+0x320>
    1cdc:	0033      	movs	r3, r6
    1cde:	000d      	movs	r5, r1
    1ce0:	e702      	b.n	1ae8 <__aeabi_fsub+0x8c>
    1ce2:	2601      	movs	r6, #1
    1ce4:	e755      	b.n	1b92 <__aeabi_fsub+0x136>
    1ce6:	2c00      	cmp	r4, #0
    1ce8:	d11f      	bne.n	1d2a <__aeabi_fsub+0x2ce>
    1cea:	2b00      	cmp	r3, #0
    1cec:	d043      	beq.n	1d76 <__aeabi_fsub+0x31a>
    1cee:	43c9      	mvns	r1, r1
    1cf0:	2900      	cmp	r1, #0
    1cf2:	d00b      	beq.n	1d0c <__aeabi_fsub+0x2b0>
    1cf4:	28ff      	cmp	r0, #255	; 0xff
    1cf6:	d039      	beq.n	1d6c <__aeabi_fsub+0x310>
    1cf8:	291b      	cmp	r1, #27
    1cfa:	dc44      	bgt.n	1d86 <__aeabi_fsub+0x32a>
    1cfc:	001c      	movs	r4, r3
    1cfe:	2720      	movs	r7, #32
    1d00:	40cc      	lsrs	r4, r1
    1d02:	1a79      	subs	r1, r7, r1
    1d04:	408b      	lsls	r3, r1
    1d06:	1e59      	subs	r1, r3, #1
    1d08:	418b      	sbcs	r3, r1
    1d0a:	4323      	orrs	r3, r4
    1d0c:	199b      	adds	r3, r3, r6
    1d0e:	0004      	movs	r4, r0
    1d10:	e740      	b.n	1b94 <__aeabi_fsub+0x138>
    1d12:	2b00      	cmp	r3, #0
    1d14:	d11a      	bne.n	1d4c <__aeabi_fsub+0x2f0>
    1d16:	2e00      	cmp	r6, #0
    1d18:	d124      	bne.n	1d64 <__aeabi_fsub+0x308>
    1d1a:	2780      	movs	r7, #128	; 0x80
    1d1c:	2200      	movs	r2, #0
    1d1e:	03ff      	lsls	r7, r7, #15
    1d20:	e71b      	b.n	1b5a <__aeabi_fsub+0xfe>
    1d22:	0033      	movs	r3, r6
    1d24:	0004      	movs	r4, r0
    1d26:	000d      	movs	r5, r1
    1d28:	e6de      	b.n	1ae8 <__aeabi_fsub+0x8c>
    1d2a:	28ff      	cmp	r0, #255	; 0xff
    1d2c:	d01e      	beq.n	1d6c <__aeabi_fsub+0x310>
    1d2e:	2480      	movs	r4, #128	; 0x80
    1d30:	04e4      	lsls	r4, r4, #19
    1d32:	4249      	negs	r1, r1
    1d34:	4323      	orrs	r3, r4
    1d36:	e7df      	b.n	1cf8 <__aeabi_fsub+0x29c>
    1d38:	2e00      	cmp	r6, #0
    1d3a:	d100      	bne.n	1d3e <__aeabi_fsub+0x2e2>
    1d3c:	e6d4      	b.n	1ae8 <__aeabi_fsub+0x8c>
    1d3e:	1b9f      	subs	r7, r3, r6
    1d40:	017a      	lsls	r2, r7, #5
    1d42:	d400      	bmi.n	1d46 <__aeabi_fsub+0x2ea>
    1d44:	e737      	b.n	1bb6 <__aeabi_fsub+0x15a>
    1d46:	1af3      	subs	r3, r6, r3
    1d48:	000d      	movs	r5, r1
    1d4a:	e6cd      	b.n	1ae8 <__aeabi_fsub+0x8c>
    1d4c:	24ff      	movs	r4, #255	; 0xff
    1d4e:	2e00      	cmp	r6, #0
    1d50:	d100      	bne.n	1d54 <__aeabi_fsub+0x2f8>
    1d52:	e6c9      	b.n	1ae8 <__aeabi_fsub+0x8c>
    1d54:	2280      	movs	r2, #128	; 0x80
    1d56:	4650      	mov	r0, sl
    1d58:	03d2      	lsls	r2, r2, #15
    1d5a:	4210      	tst	r0, r2
    1d5c:	d0a4      	beq.n	1ca8 <__aeabi_fsub+0x24c>
    1d5e:	4660      	mov	r0, ip
    1d60:	4210      	tst	r0, r2
    1d62:	d1a1      	bne.n	1ca8 <__aeabi_fsub+0x24c>
    1d64:	0033      	movs	r3, r6
    1d66:	000d      	movs	r5, r1
    1d68:	24ff      	movs	r4, #255	; 0xff
    1d6a:	e6bd      	b.n	1ae8 <__aeabi_fsub+0x8c>
    1d6c:	0033      	movs	r3, r6
    1d6e:	24ff      	movs	r4, #255	; 0xff
    1d70:	e6ba      	b.n	1ae8 <__aeabi_fsub+0x8c>
    1d72:	2301      	movs	r3, #1
    1d74:	e76e      	b.n	1c54 <__aeabi_fsub+0x1f8>
    1d76:	0033      	movs	r3, r6
    1d78:	0004      	movs	r4, r0
    1d7a:	e6b5      	b.n	1ae8 <__aeabi_fsub+0x8c>
    1d7c:	2700      	movs	r7, #0
    1d7e:	2200      	movs	r2, #0
    1d80:	e71c      	b.n	1bbc <__aeabi_fsub+0x160>
    1d82:	0033      	movs	r3, r6
    1d84:	e6b0      	b.n	1ae8 <__aeabi_fsub+0x8c>
    1d86:	2301      	movs	r3, #1
    1d88:	e7c0      	b.n	1d0c <__aeabi_fsub+0x2b0>
    1d8a:	46c0      	nop			; (mov r8, r8)
    1d8c:	7dffffff 	.word	0x7dffffff
    1d90:	fbffffff 	.word	0xfbffffff

00001d94 <__aeabi_f2iz>:
    1d94:	0241      	lsls	r1, r0, #9
    1d96:	0043      	lsls	r3, r0, #1
    1d98:	0fc2      	lsrs	r2, r0, #31
    1d9a:	0a49      	lsrs	r1, r1, #9
    1d9c:	0e1b      	lsrs	r3, r3, #24
    1d9e:	2000      	movs	r0, #0
    1da0:	2b7e      	cmp	r3, #126	; 0x7e
    1da2:	dd0d      	ble.n	1dc0 <__aeabi_f2iz+0x2c>
    1da4:	2b9d      	cmp	r3, #157	; 0x9d
    1da6:	dc0c      	bgt.n	1dc2 <__aeabi_f2iz+0x2e>
    1da8:	2080      	movs	r0, #128	; 0x80
    1daa:	0400      	lsls	r0, r0, #16
    1dac:	4301      	orrs	r1, r0
    1dae:	2b95      	cmp	r3, #149	; 0x95
    1db0:	dc0a      	bgt.n	1dc8 <__aeabi_f2iz+0x34>
    1db2:	2096      	movs	r0, #150	; 0x96
    1db4:	1ac3      	subs	r3, r0, r3
    1db6:	40d9      	lsrs	r1, r3
    1db8:	4248      	negs	r0, r1
    1dba:	2a00      	cmp	r2, #0
    1dbc:	d100      	bne.n	1dc0 <__aeabi_f2iz+0x2c>
    1dbe:	0008      	movs	r0, r1
    1dc0:	4770      	bx	lr
    1dc2:	4b03      	ldr	r3, [pc, #12]	; (1dd0 <__aeabi_f2iz+0x3c>)
    1dc4:	18d0      	adds	r0, r2, r3
    1dc6:	e7fb      	b.n	1dc0 <__aeabi_f2iz+0x2c>
    1dc8:	3b96      	subs	r3, #150	; 0x96
    1dca:	4099      	lsls	r1, r3
    1dcc:	e7f4      	b.n	1db8 <__aeabi_f2iz+0x24>
    1dce:	46c0      	nop			; (mov r8, r8)
    1dd0:	7fffffff 	.word	0x7fffffff

00001dd4 <__aeabi_ui2f>:
    1dd4:	b510      	push	{r4, lr}
    1dd6:	1e04      	subs	r4, r0, #0
    1dd8:	d027      	beq.n	1e2a <__aeabi_ui2f+0x56>
    1dda:	f000 f87b 	bl	1ed4 <__clzsi2>
    1dde:	239e      	movs	r3, #158	; 0x9e
    1de0:	1a1b      	subs	r3, r3, r0
    1de2:	2b96      	cmp	r3, #150	; 0x96
    1de4:	dc0a      	bgt.n	1dfc <__aeabi_ui2f+0x28>
    1de6:	2296      	movs	r2, #150	; 0x96
    1de8:	1ad2      	subs	r2, r2, r3
    1dea:	4094      	lsls	r4, r2
    1dec:	0264      	lsls	r4, r4, #9
    1dee:	0a64      	lsrs	r4, r4, #9
    1df0:	b2db      	uxtb	r3, r3
    1df2:	0264      	lsls	r4, r4, #9
    1df4:	05db      	lsls	r3, r3, #23
    1df6:	0a60      	lsrs	r0, r4, #9
    1df8:	4318      	orrs	r0, r3
    1dfa:	bd10      	pop	{r4, pc}
    1dfc:	2b99      	cmp	r3, #153	; 0x99
    1dfe:	dc17      	bgt.n	1e30 <__aeabi_ui2f+0x5c>
    1e00:	2299      	movs	r2, #153	; 0x99
    1e02:	1ad2      	subs	r2, r2, r3
    1e04:	2a00      	cmp	r2, #0
    1e06:	dd27      	ble.n	1e58 <__aeabi_ui2f+0x84>
    1e08:	4094      	lsls	r4, r2
    1e0a:	0022      	movs	r2, r4
    1e0c:	4c13      	ldr	r4, [pc, #76]	; (1e5c <__aeabi_ui2f+0x88>)
    1e0e:	4014      	ands	r4, r2
    1e10:	0751      	lsls	r1, r2, #29
    1e12:	d004      	beq.n	1e1e <__aeabi_ui2f+0x4a>
    1e14:	210f      	movs	r1, #15
    1e16:	400a      	ands	r2, r1
    1e18:	2a04      	cmp	r2, #4
    1e1a:	d000      	beq.n	1e1e <__aeabi_ui2f+0x4a>
    1e1c:	3404      	adds	r4, #4
    1e1e:	0162      	lsls	r2, r4, #5
    1e20:	d412      	bmi.n	1e48 <__aeabi_ui2f+0x74>
    1e22:	01a4      	lsls	r4, r4, #6
    1e24:	0a64      	lsrs	r4, r4, #9
    1e26:	b2db      	uxtb	r3, r3
    1e28:	e7e3      	b.n	1df2 <__aeabi_ui2f+0x1e>
    1e2a:	2300      	movs	r3, #0
    1e2c:	2400      	movs	r4, #0
    1e2e:	e7e0      	b.n	1df2 <__aeabi_ui2f+0x1e>
    1e30:	22b9      	movs	r2, #185	; 0xb9
    1e32:	0021      	movs	r1, r4
    1e34:	1ad2      	subs	r2, r2, r3
    1e36:	4091      	lsls	r1, r2
    1e38:	000a      	movs	r2, r1
    1e3a:	1e51      	subs	r1, r2, #1
    1e3c:	418a      	sbcs	r2, r1
    1e3e:	2105      	movs	r1, #5
    1e40:	1a09      	subs	r1, r1, r0
    1e42:	40cc      	lsrs	r4, r1
    1e44:	4314      	orrs	r4, r2
    1e46:	e7db      	b.n	1e00 <__aeabi_ui2f+0x2c>
    1e48:	4b04      	ldr	r3, [pc, #16]	; (1e5c <__aeabi_ui2f+0x88>)
    1e4a:	401c      	ands	r4, r3
    1e4c:	239f      	movs	r3, #159	; 0x9f
    1e4e:	01a4      	lsls	r4, r4, #6
    1e50:	1a1b      	subs	r3, r3, r0
    1e52:	0a64      	lsrs	r4, r4, #9
    1e54:	b2db      	uxtb	r3, r3
    1e56:	e7cc      	b.n	1df2 <__aeabi_ui2f+0x1e>
    1e58:	0022      	movs	r2, r4
    1e5a:	e7d7      	b.n	1e0c <__aeabi_ui2f+0x38>
    1e5c:	fbffffff 	.word	0xfbffffff

00001e60 <__aeabi_cfrcmple>:
    1e60:	4684      	mov	ip, r0
    1e62:	1c08      	adds	r0, r1, #0
    1e64:	4661      	mov	r1, ip
    1e66:	e7ff      	b.n	1e68 <__aeabi_cfcmpeq>

00001e68 <__aeabi_cfcmpeq>:
    1e68:	b51f      	push	{r0, r1, r2, r3, r4, lr}
    1e6a:	f000 f8b7 	bl	1fdc <__lesf2>
    1e6e:	2800      	cmp	r0, #0
    1e70:	d401      	bmi.n	1e76 <__aeabi_cfcmpeq+0xe>
    1e72:	2100      	movs	r1, #0
    1e74:	42c8      	cmn	r0, r1
    1e76:	bd1f      	pop	{r0, r1, r2, r3, r4, pc}

00001e78 <__aeabi_fcmpeq>:
    1e78:	b510      	push	{r4, lr}
    1e7a:	f000 f849 	bl	1f10 <__eqsf2>
    1e7e:	4240      	negs	r0, r0
    1e80:	3001      	adds	r0, #1
    1e82:	bd10      	pop	{r4, pc}

00001e84 <__aeabi_fcmplt>:
    1e84:	b510      	push	{r4, lr}
    1e86:	f000 f8a9 	bl	1fdc <__lesf2>
    1e8a:	2800      	cmp	r0, #0
    1e8c:	db01      	blt.n	1e92 <__aeabi_fcmplt+0xe>
    1e8e:	2000      	movs	r0, #0
    1e90:	bd10      	pop	{r4, pc}
    1e92:	2001      	movs	r0, #1
    1e94:	bd10      	pop	{r4, pc}
    1e96:	46c0      	nop			; (mov r8, r8)

00001e98 <__aeabi_fcmple>:
    1e98:	b510      	push	{r4, lr}
    1e9a:	f000 f89f 	bl	1fdc <__lesf2>
    1e9e:	2800      	cmp	r0, #0
    1ea0:	dd01      	ble.n	1ea6 <__aeabi_fcmple+0xe>
    1ea2:	2000      	movs	r0, #0
    1ea4:	bd10      	pop	{r4, pc}
    1ea6:	2001      	movs	r0, #1
    1ea8:	bd10      	pop	{r4, pc}
    1eaa:	46c0      	nop			; (mov r8, r8)

00001eac <__aeabi_fcmpgt>:
    1eac:	b510      	push	{r4, lr}
    1eae:	f000 f855 	bl	1f5c <__gesf2>
    1eb2:	2800      	cmp	r0, #0
    1eb4:	dc01      	bgt.n	1eba <__aeabi_fcmpgt+0xe>
    1eb6:	2000      	movs	r0, #0
    1eb8:	bd10      	pop	{r4, pc}
    1eba:	2001      	movs	r0, #1
    1ebc:	bd10      	pop	{r4, pc}
    1ebe:	46c0      	nop			; (mov r8, r8)

00001ec0 <__aeabi_fcmpge>:
    1ec0:	b510      	push	{r4, lr}
    1ec2:	f000 f84b 	bl	1f5c <__gesf2>
    1ec6:	2800      	cmp	r0, #0
    1ec8:	da01      	bge.n	1ece <__aeabi_fcmpge+0xe>
    1eca:	2000      	movs	r0, #0
    1ecc:	bd10      	pop	{r4, pc}
    1ece:	2001      	movs	r0, #1
    1ed0:	bd10      	pop	{r4, pc}
    1ed2:	46c0      	nop			; (mov r8, r8)

00001ed4 <__clzsi2>:
    1ed4:	211c      	movs	r1, #28
    1ed6:	2301      	movs	r3, #1
    1ed8:	041b      	lsls	r3, r3, #16
    1eda:	4298      	cmp	r0, r3
    1edc:	d301      	bcc.n	1ee2 <__clzsi2+0xe>
    1ede:	0c00      	lsrs	r0, r0, #16
    1ee0:	3910      	subs	r1, #16
    1ee2:	0a1b      	lsrs	r3, r3, #8
    1ee4:	4298      	cmp	r0, r3
    1ee6:	d301      	bcc.n	1eec <__clzsi2+0x18>
    1ee8:	0a00      	lsrs	r0, r0, #8
    1eea:	3908      	subs	r1, #8
    1eec:	091b      	lsrs	r3, r3, #4
    1eee:	4298      	cmp	r0, r3
    1ef0:	d301      	bcc.n	1ef6 <__clzsi2+0x22>
    1ef2:	0900      	lsrs	r0, r0, #4
    1ef4:	3904      	subs	r1, #4
    1ef6:	a202      	add	r2, pc, #8	; (adr r2, 1f00 <__clzsi2+0x2c>)
    1ef8:	5c10      	ldrb	r0, [r2, r0]
    1efa:	1840      	adds	r0, r0, r1
    1efc:	4770      	bx	lr
    1efe:	46c0      	nop			; (mov r8, r8)
    1f00:	02020304 	.word	0x02020304
    1f04:	01010101 	.word	0x01010101
	...

00001f10 <__eqsf2>:
    1f10:	b570      	push	{r4, r5, r6, lr}
    1f12:	0042      	lsls	r2, r0, #1
    1f14:	0245      	lsls	r5, r0, #9
    1f16:	024e      	lsls	r6, r1, #9
    1f18:	004c      	lsls	r4, r1, #1
    1f1a:	0fc3      	lsrs	r3, r0, #31
    1f1c:	0a6d      	lsrs	r5, r5, #9
    1f1e:	0e12      	lsrs	r2, r2, #24
    1f20:	0a76      	lsrs	r6, r6, #9
    1f22:	0e24      	lsrs	r4, r4, #24
    1f24:	0fc9      	lsrs	r1, r1, #31
    1f26:	2001      	movs	r0, #1
    1f28:	2aff      	cmp	r2, #255	; 0xff
    1f2a:	d006      	beq.n	1f3a <__eqsf2+0x2a>
    1f2c:	2cff      	cmp	r4, #255	; 0xff
    1f2e:	d003      	beq.n	1f38 <__eqsf2+0x28>
    1f30:	42a2      	cmp	r2, r4
    1f32:	d101      	bne.n	1f38 <__eqsf2+0x28>
    1f34:	42b5      	cmp	r5, r6
    1f36:	d006      	beq.n	1f46 <__eqsf2+0x36>
    1f38:	bd70      	pop	{r4, r5, r6, pc}
    1f3a:	2d00      	cmp	r5, #0
    1f3c:	d1fc      	bne.n	1f38 <__eqsf2+0x28>
    1f3e:	2cff      	cmp	r4, #255	; 0xff
    1f40:	d1fa      	bne.n	1f38 <__eqsf2+0x28>
    1f42:	2e00      	cmp	r6, #0
    1f44:	d1f8      	bne.n	1f38 <__eqsf2+0x28>
    1f46:	428b      	cmp	r3, r1
    1f48:	d006      	beq.n	1f58 <__eqsf2+0x48>
    1f4a:	2001      	movs	r0, #1
    1f4c:	2a00      	cmp	r2, #0
    1f4e:	d1f3      	bne.n	1f38 <__eqsf2+0x28>
    1f50:	0028      	movs	r0, r5
    1f52:	1e45      	subs	r5, r0, #1
    1f54:	41a8      	sbcs	r0, r5
    1f56:	e7ef      	b.n	1f38 <__eqsf2+0x28>
    1f58:	2000      	movs	r0, #0
    1f5a:	e7ed      	b.n	1f38 <__eqsf2+0x28>

00001f5c <__gesf2>:
    1f5c:	b5f0      	push	{r4, r5, r6, r7, lr}
    1f5e:	0042      	lsls	r2, r0, #1
    1f60:	0245      	lsls	r5, r0, #9
    1f62:	024c      	lsls	r4, r1, #9
    1f64:	0fc3      	lsrs	r3, r0, #31
    1f66:	0048      	lsls	r0, r1, #1
    1f68:	0a6d      	lsrs	r5, r5, #9
    1f6a:	0e12      	lsrs	r2, r2, #24
    1f6c:	0a64      	lsrs	r4, r4, #9
    1f6e:	0e00      	lsrs	r0, r0, #24
    1f70:	0fc9      	lsrs	r1, r1, #31
    1f72:	2aff      	cmp	r2, #255	; 0xff
    1f74:	d01e      	beq.n	1fb4 <__gesf2+0x58>
    1f76:	28ff      	cmp	r0, #255	; 0xff
    1f78:	d021      	beq.n	1fbe <__gesf2+0x62>
    1f7a:	2a00      	cmp	r2, #0
    1f7c:	d10a      	bne.n	1f94 <__gesf2+0x38>
    1f7e:	426e      	negs	r6, r5
    1f80:	416e      	adcs	r6, r5
    1f82:	b2f6      	uxtb	r6, r6
    1f84:	2800      	cmp	r0, #0
    1f86:	d10f      	bne.n	1fa8 <__gesf2+0x4c>
    1f88:	2c00      	cmp	r4, #0
    1f8a:	d10d      	bne.n	1fa8 <__gesf2+0x4c>
    1f8c:	2000      	movs	r0, #0
    1f8e:	2d00      	cmp	r5, #0
    1f90:	d009      	beq.n	1fa6 <__gesf2+0x4a>
    1f92:	e005      	b.n	1fa0 <__gesf2+0x44>
    1f94:	2800      	cmp	r0, #0
    1f96:	d101      	bne.n	1f9c <__gesf2+0x40>
    1f98:	2c00      	cmp	r4, #0
    1f9a:	d001      	beq.n	1fa0 <__gesf2+0x44>
    1f9c:	428b      	cmp	r3, r1
    1f9e:	d011      	beq.n	1fc4 <__gesf2+0x68>
    1fa0:	2101      	movs	r1, #1
    1fa2:	4258      	negs	r0, r3
    1fa4:	4308      	orrs	r0, r1
    1fa6:	bdf0      	pop	{r4, r5, r6, r7, pc}
    1fa8:	2e00      	cmp	r6, #0
    1faa:	d0f7      	beq.n	1f9c <__gesf2+0x40>
    1fac:	2001      	movs	r0, #1
    1fae:	3901      	subs	r1, #1
    1fb0:	4308      	orrs	r0, r1
    1fb2:	e7f8      	b.n	1fa6 <__gesf2+0x4a>
    1fb4:	2d00      	cmp	r5, #0
    1fb6:	d0de      	beq.n	1f76 <__gesf2+0x1a>
    1fb8:	2002      	movs	r0, #2
    1fba:	4240      	negs	r0, r0
    1fbc:	e7f3      	b.n	1fa6 <__gesf2+0x4a>
    1fbe:	2c00      	cmp	r4, #0
    1fc0:	d0db      	beq.n	1f7a <__gesf2+0x1e>
    1fc2:	e7f9      	b.n	1fb8 <__gesf2+0x5c>
    1fc4:	4282      	cmp	r2, r0
    1fc6:	dceb      	bgt.n	1fa0 <__gesf2+0x44>
    1fc8:	db04      	blt.n	1fd4 <__gesf2+0x78>
    1fca:	42a5      	cmp	r5, r4
    1fcc:	d8e8      	bhi.n	1fa0 <__gesf2+0x44>
    1fce:	2000      	movs	r0, #0
    1fd0:	42a5      	cmp	r5, r4
    1fd2:	d2e8      	bcs.n	1fa6 <__gesf2+0x4a>
    1fd4:	2101      	movs	r1, #1
    1fd6:	1e58      	subs	r0, r3, #1
    1fd8:	4308      	orrs	r0, r1
    1fda:	e7e4      	b.n	1fa6 <__gesf2+0x4a>

00001fdc <__lesf2>:
    1fdc:	b5f0      	push	{r4, r5, r6, r7, lr}
    1fde:	0042      	lsls	r2, r0, #1
    1fe0:	024d      	lsls	r5, r1, #9
    1fe2:	004c      	lsls	r4, r1, #1
    1fe4:	0246      	lsls	r6, r0, #9
    1fe6:	0a76      	lsrs	r6, r6, #9
    1fe8:	0e12      	lsrs	r2, r2, #24
    1fea:	0fc3      	lsrs	r3, r0, #31
    1fec:	0a6d      	lsrs	r5, r5, #9
    1fee:	0e24      	lsrs	r4, r4, #24
    1ff0:	0fc9      	lsrs	r1, r1, #31
    1ff2:	2aff      	cmp	r2, #255	; 0xff
    1ff4:	d016      	beq.n	2024 <STACK_SIZE+0x24>
    1ff6:	2cff      	cmp	r4, #255	; 0xff
    1ff8:	d018      	beq.n	202c <STACK_SIZE+0x2c>
    1ffa:	2a00      	cmp	r2, #0
    1ffc:	d10a      	bne.n	2014 <STACK_SIZE+0x14>
    1ffe:	4270      	negs	r0, r6
    2000:	4170      	adcs	r0, r6
    2002:	b2c0      	uxtb	r0, r0
    2004:	2c00      	cmp	r4, #0
    2006:	d015      	beq.n	2034 <STACK_SIZE+0x34>
    2008:	2800      	cmp	r0, #0
    200a:	d005      	beq.n	2018 <STACK_SIZE+0x18>
    200c:	2001      	movs	r0, #1
    200e:	3901      	subs	r1, #1
    2010:	4308      	orrs	r0, r1
    2012:	bdf0      	pop	{r4, r5, r6, r7, pc}
    2014:	2c00      	cmp	r4, #0
    2016:	d013      	beq.n	2040 <STACK_SIZE+0x40>
    2018:	4299      	cmp	r1, r3
    201a:	d014      	beq.n	2046 <STACK_SIZE+0x46>
    201c:	2001      	movs	r0, #1
    201e:	425b      	negs	r3, r3
    2020:	4318      	orrs	r0, r3
    2022:	e7f6      	b.n	2012 <STACK_SIZE+0x12>
    2024:	2002      	movs	r0, #2
    2026:	2e00      	cmp	r6, #0
    2028:	d1f3      	bne.n	2012 <STACK_SIZE+0x12>
    202a:	e7e4      	b.n	1ff6 <__lesf2+0x1a>
    202c:	2002      	movs	r0, #2
    202e:	2d00      	cmp	r5, #0
    2030:	d1ef      	bne.n	2012 <STACK_SIZE+0x12>
    2032:	e7e2      	b.n	1ffa <__lesf2+0x1e>
    2034:	2d00      	cmp	r5, #0
    2036:	d1e7      	bne.n	2008 <STACK_SIZE+0x8>
    2038:	2000      	movs	r0, #0
    203a:	2e00      	cmp	r6, #0
    203c:	d0e9      	beq.n	2012 <STACK_SIZE+0x12>
    203e:	e7ed      	b.n	201c <STACK_SIZE+0x1c>
    2040:	2d00      	cmp	r5, #0
    2042:	d1e9      	bne.n	2018 <STACK_SIZE+0x18>
    2044:	e7ea      	b.n	201c <STACK_SIZE+0x1c>
    2046:	42a2      	cmp	r2, r4
    2048:	dc06      	bgt.n	2058 <STACK_SIZE+0x58>
    204a:	dbdf      	blt.n	200c <STACK_SIZE+0xc>
    204c:	42ae      	cmp	r6, r5
    204e:	d803      	bhi.n	2058 <STACK_SIZE+0x58>
    2050:	2000      	movs	r0, #0
    2052:	42ae      	cmp	r6, r5
    2054:	d3da      	bcc.n	200c <STACK_SIZE+0xc>
    2056:	e7dc      	b.n	2012 <STACK_SIZE+0x12>
    2058:	2001      	movs	r0, #1
    205a:	4249      	negs	r1, r1
    205c:	4308      	orrs	r0, r1
    205e:	e7d8      	b.n	2012 <STACK_SIZE+0x12>

00002060 <__libc_init_array>:
    2060:	b570      	push	{r4, r5, r6, lr}
    2062:	2600      	movs	r6, #0
    2064:	4d0c      	ldr	r5, [pc, #48]	; (2098 <__libc_init_array+0x38>)
    2066:	4c0d      	ldr	r4, [pc, #52]	; (209c <__libc_init_array+0x3c>)
    2068:	1b64      	subs	r4, r4, r5
    206a:	10a4      	asrs	r4, r4, #2
    206c:	42a6      	cmp	r6, r4
    206e:	d109      	bne.n	2084 <__libc_init_array+0x24>
    2070:	2600      	movs	r6, #0
    2072:	f000 f8f7 	bl	2264 <_init>
    2076:	4d0a      	ldr	r5, [pc, #40]	; (20a0 <__libc_init_array+0x40>)
    2078:	4c0a      	ldr	r4, [pc, #40]	; (20a4 <__libc_init_array+0x44>)
    207a:	1b64      	subs	r4, r4, r5
    207c:	10a4      	asrs	r4, r4, #2
    207e:	42a6      	cmp	r6, r4
    2080:	d105      	bne.n	208e <__libc_init_array+0x2e>
    2082:	bd70      	pop	{r4, r5, r6, pc}
    2084:	00b3      	lsls	r3, r6, #2
    2086:	58eb      	ldr	r3, [r5, r3]
    2088:	4798      	blx	r3
    208a:	3601      	adds	r6, #1
    208c:	e7ee      	b.n	206c <__libc_init_array+0xc>
    208e:	00b3      	lsls	r3, r6, #2
    2090:	58eb      	ldr	r3, [r5, r3]
    2092:	4798      	blx	r3
    2094:	3601      	adds	r6, #1
    2096:	e7f2      	b.n	207e <__libc_init_array+0x1e>
    2098:	00002270 	.word	0x00002270
    209c:	00002270 	.word	0x00002270
    20a0:	00002270 	.word	0x00002270
    20a4:	00002274 	.word	0x00002274

000020a8 <memcpy>:
    20a8:	2300      	movs	r3, #0
    20aa:	b510      	push	{r4, lr}
    20ac:	429a      	cmp	r2, r3
    20ae:	d100      	bne.n	20b2 <memcpy+0xa>
    20b0:	bd10      	pop	{r4, pc}
    20b2:	5ccc      	ldrb	r4, [r1, r3]
    20b4:	54c4      	strb	r4, [r0, r3]
    20b6:	3301      	adds	r3, #1
    20b8:	e7f8      	b.n	20ac <memcpy+0x4>

000020ba <memset>:
    20ba:	0003      	movs	r3, r0
    20bc:	1882      	adds	r2, r0, r2
    20be:	4293      	cmp	r3, r2
    20c0:	d100      	bne.n	20c4 <memset+0xa>
    20c2:	4770      	bx	lr
    20c4:	7019      	strb	r1, [r3, #0]
    20c6:	3301      	adds	r3, #1
    20c8:	e7f9      	b.n	20be <memset+0x4>

000020ca <strlen>:
    20ca:	2300      	movs	r3, #0
    20cc:	5cc2      	ldrb	r2, [r0, r3]
    20ce:	3301      	adds	r3, #1
    20d0:	2a00      	cmp	r2, #0
    20d2:	d1fb      	bne.n	20cc <strlen+0x2>
    20d4:	1e58      	subs	r0, r3, #1
    20d6:	4770      	bx	lr
    20d8:	616c6552 	.word	0x616c6552
    20dc:	4e4f2079 	.word	0x4e4f2079
    20e0:	00000000 	.word	0x00000000
    20e4:	616c6552 	.word	0x616c6552
    20e8:	65742079 	.word	0x65742079
    20ec:	00007473 	.word	0x00007473
    20f0:	2044454c 	.word	0x2044454c
    20f4:	0046464f 	.word	0x0046464f
    20f8:	43444120 	.word	0x43444120
    20fc:	6c617620 	.word	0x6c617620
    2100:	69206575 	.word	0x69206575
    2104:	00003a73 	.word	0x00003a73
    2108:	00414731 	.word	0x00414731
    210c:	682f2e2e 	.word	0x682f2e2e
    2110:	732f6c61 	.word	0x732f6c61
    2114:	682f6372 	.word	0x682f6372
    2118:	615f6c61 	.word	0x615f6c61
    211c:	735f6364 	.word	0x735f6364
    2120:	2e636e79 	.word	0x2e636e79
    2124:	00000063 	.word	0x00000063
    2128:	682f2e2e 	.word	0x682f2e2e
    212c:	732f6c61 	.word	0x732f6c61
    2130:	682f6372 	.word	0x682f6372
    2134:	635f6c61 	.word	0x635f6c61
    2138:	615f6e61 	.word	0x615f6e61
    213c:	636e7973 	.word	0x636e7973
    2140:	0000632e 	.word	0x0000632e
    2144:	682f2e2e 	.word	0x682f2e2e
    2148:	732f6c61 	.word	0x732f6c61
    214c:	682f6372 	.word	0x682f6372
    2150:	695f6c61 	.word	0x695f6c61
    2154:	00632e6f 	.word	0x00632e6f
    2158:	682f2e2e 	.word	0x682f2e2e
    215c:	732f6c61 	.word	0x732f6c61
    2160:	682f6372 	.word	0x682f6372
    2164:	735f6c61 	.word	0x735f6c61
    2168:	6d5f6970 	.word	0x6d5f6970
    216c:	6e79735f 	.word	0x6e79735f
    2170:	00632e63 	.word	0x00632e63
    2174:	682f2e2e 	.word	0x682f2e2e
    2178:	732f6c61 	.word	0x732f6c61
    217c:	682f6372 	.word	0x682f6372
    2180:	745f6c61 	.word	0x745f6c61
    2184:	5f706d65 	.word	0x5f706d65
    2188:	636e7973 	.word	0x636e7973
    218c:	0000632e 	.word	0x0000632e
    2190:	682f2e2e 	.word	0x682f2e2e
    2194:	732f6c61 	.word	0x732f6c61
    2198:	682f6372 	.word	0x682f6372
    219c:	755f6c61 	.word	0x755f6c61
    21a0:	74726173 	.word	0x74726173
    21a4:	7973615f 	.word	0x7973615f
    21a8:	632e636e 	.word	0x632e636e
    21ac:	00000000 	.word	0x00000000
    21b0:	682f2e2e 	.word	0x682f2e2e
    21b4:	752f6c61 	.word	0x752f6c61
    21b8:	736c6974 	.word	0x736c6974
    21bc:	6372732f 	.word	0x6372732f
    21c0:	6974752f 	.word	0x6974752f
    21c4:	725f736c 	.word	0x725f736c
    21c8:	62676e69 	.word	0x62676e69
    21cc:	65666675 	.word	0x65666675
    21d0:	00632e72 	.word	0x00632e72

000021d4 <_adcs>:
    21d4:	05000000 00000000 00000000 00000000     ................
	...
    21f0:	682f2e2e 612f6c70 682f6364 615f6c70     ../hpl/adc/hpl_a
    2200:	632e6364 00000000 682f2e2e 732f6c70     dc.c....../hpl/s
    2210:	6f637265 70682f6d 65735f6c 6d6f6372     ercom/hpl_sercom
    2220:	0000632e 00001948 00001898 00001898     .c..H...........
    2230:	00001896 0000193a 0000193a 00001930     ....:...:...0...
    2240:	00001896 0000193a 00001930 0000193a     ....:...0...:...
    2250:	00001896 00001940 00001940 00001940     ....@...@...@...
    2260:	000019d0                                ....

00002264 <_init>:
    2264:	b5f8      	push	{r3, r4, r5, r6, r7, lr}
    2266:	46c0      	nop			; (mov r8, r8)
    2268:	bcf8      	pop	{r3, r4, r5, r6, r7}
    226a:	bc08      	pop	{r3}
    226c:	469e      	mov	lr, r3
    226e:	4770      	bx	lr

00002270 <__init_array_start>:
    2270:	000000e5 	.word	0x000000e5

00002274 <_fini>:
    2274:	b5f8      	push	{r3, r4, r5, r6, r7, lr}
    2276:	46c0      	nop			; (mov r8, r8)
    2278:	bcf8      	pop	{r3, r4, r5, r6, r7}
    227a:	bc08      	pop	{r3}
    227c:	469e      	mov	lr, r3
    227e:	4770      	bx	lr

00002280 <__fini_array_start>:
    2280:	000000bd 	.word	0x000000bd
