
LV_BMS3.elf:     file format elf32-littlearm

Sections:
Idx Name          Size      VMA       LMA       File off  Algn
  0 .text         000062bc  00000000  00000000  00010000  2**3
                  CONTENTS, ALLOC, LOAD, READONLY, CODE
  1 .relocate     00000160  20000000  000062bc  00020000  2**2
                  CONTENTS, ALLOC, LOAD, DATA
  2 .bss          00000248  20000160  0000641c  00020160  2**2
                  ALLOC
  3 .stack        00002000  200003a8  00006664  00020160  2**0
                  ALLOC
  4 .ARM.attributes 00000028  00000000  00000000  00020160  2**0
                  CONTENTS, READONLY
  5 .comment      00000059  00000000  00000000  00020188  2**0
                  CONTENTS, READONLY
  6 .debug_info   0002f168  00000000  00000000  000201e1  2**0
                  CONTENTS, READONLY, DEBUGGING
  7 .debug_abbrev 00004142  00000000  00000000  0004f349  2**0
                  CONTENTS, READONLY, DEBUGGING
  8 .debug_loc    000114d1  00000000  00000000  0005348b  2**0
                  CONTENTS, READONLY, DEBUGGING
  9 .debug_aranges 00000ef8  00000000  00000000  0006495c  2**0
                  CONTENTS, READONLY, DEBUGGING
 10 .debug_ranges 000014c8  00000000  00000000  00065854  2**0
                  CONTENTS, READONLY, DEBUGGING
 11 .debug_macro  00022717  00000000  00000000  00066d1c  2**0
                  CONTENTS, READONLY, DEBUGGING
 12 .debug_line   0001847a  00000000  00000000  00089433  2**0
                  CONTENTS, READONLY, DEBUGGING
 13 .debug_str    0009fd66  00000000  00000000  000a18ad  2**0
                  CONTENTS, READONLY, DEBUGGING
 14 .debug_frame  00002ff0  00000000  00000000  00141614  2**2
                  CONTENTS, READONLY, DEBUGGING

Disassembly of section .text:

00000000 <exception_table>:
       0:	a8 23 00 20 2d 01 00 00 29 01 00 00 29 01 00 00     .#. -...)...)...
	...
      2c:	29 01 00 00 00 00 00 00 00 00 00 00 29 01 00 00     )...........)...
      3c:	29 01 00 00 29 01 00 00 29 01 00 00 29 01 00 00     )...)...)...)...
      4c:	29 01 00 00 29 01 00 00 29 01 00 00 29 01 00 00     )...)...)...)...
      5c:	29 01 00 00 29 01 00 00 29 01 00 00 29 01 00 00     )...)...)...)...
      6c:	29 01 00 00 29 01 00 00 39 15 00 00 29 01 00 00     )...)...9...)...
      7c:	e5 10 00 00 29 01 00 00 29 01 00 00 29 01 00 00     ....)...)...)...
      8c:	29 01 00 00 29 01 00 00 29 01 00 00 29 01 00 00     )...)...)...)...
      9c:	29 01 00 00 29 01 00 00 29 01 00 00 29 01 00 00     )...)...)...)...
      ac:	29 01 00 00 29 01 00 00 29 01 00 00 29 01 00 00     )...)...)...)...

000000bc <__do_global_dtors_aux>:
      bc:	b510      	push	{r4, lr}
      be:	4c06      	ldr	r4, [pc, #24]	; (d8 <__do_global_dtors_aux+0x1c>)
      c0:	7823      	ldrb	r3, [r4, #0]
      c2:	2b00      	cmp	r3, #0
      c4:	d107      	bne.n	d6 <__do_global_dtors_aux+0x1a>
      c6:	4b05      	ldr	r3, [pc, #20]	; (dc <__do_global_dtors_aux+0x20>)
      c8:	2b00      	cmp	r3, #0
      ca:	d002      	beq.n	d2 <__do_global_dtors_aux+0x16>
      cc:	4804      	ldr	r0, [pc, #16]	; (e0 <__do_global_dtors_aux+0x24>)
      ce:	e000      	b.n	d2 <__do_global_dtors_aux+0x16>
      d0:	bf00      	nop
      d2:	2301      	movs	r3, #1
      d4:	7023      	strb	r3, [r4, #0]
      d6:	bd10      	pop	{r4, pc}
      d8:	20000160 	.word	0x20000160
      dc:	00000000 	.word	0x00000000
      e0:	000062bc 	.word	0x000062bc

000000e4 <frame_dummy>:
      e4:	4b08      	ldr	r3, [pc, #32]	; (108 <frame_dummy+0x24>)
      e6:	b510      	push	{r4, lr}
      e8:	2b00      	cmp	r3, #0
      ea:	d003      	beq.n	f4 <frame_dummy+0x10>
      ec:	4907      	ldr	r1, [pc, #28]	; (10c <frame_dummy+0x28>)
      ee:	4808      	ldr	r0, [pc, #32]	; (110 <frame_dummy+0x2c>)
      f0:	e000      	b.n	f4 <frame_dummy+0x10>
      f2:	bf00      	nop
      f4:	4807      	ldr	r0, [pc, #28]	; (114 <frame_dummy+0x30>)
      f6:	6803      	ldr	r3, [r0, #0]
      f8:	2b00      	cmp	r3, #0
      fa:	d100      	bne.n	fe <frame_dummy+0x1a>
      fc:	bd10      	pop	{r4, pc}
      fe:	4b06      	ldr	r3, [pc, #24]	; (118 <frame_dummy+0x34>)
     100:	2b00      	cmp	r3, #0
     102:	d0fb      	beq.n	fc <frame_dummy+0x18>
     104:	4798      	blx	r3
     106:	e7f9      	b.n	fc <frame_dummy+0x18>
     108:	00000000 	.word	0x00000000
     10c:	20000164 	.word	0x20000164
     110:	000062bc 	.word	0x000062bc
     114:	000062bc 	.word	0x000062bc
     118:	00000000 	.word	0x00000000

0000011c <atmel_start_init>:

/**
 * Initializes MCU, drivers and middleware in the project
 **/
void atmel_start_init(void)
{
     11c:	b510      	push	{r4, lr}
	system_init();
     11e:	4b01      	ldr	r3, [pc, #4]	; (124 <atmel_start_init+0x8>)
     120:	4798      	blx	r3
}
     122:	bd10      	pop	{r4, pc}
     124:	00000495 	.word	0x00000495

00000128 <Dummy_Handler>:
     128:	e7fe      	b.n	128 <Dummy_Handler>
	...

0000012c <Reset_Handler>:
     12c:	b510      	push	{r4, lr}
     12e:	4a17      	ldr	r2, [pc, #92]	; (18c <Reset_Handler+0x60>)
     130:	4b17      	ldr	r3, [pc, #92]	; (190 <Reset_Handler+0x64>)
     132:	429a      	cmp	r2, r3
     134:	d011      	beq.n	15a <Reset_Handler+0x2e>
     136:	001a      	movs	r2, r3
     138:	4b16      	ldr	r3, [pc, #88]	; (194 <Reset_Handler+0x68>)
     13a:	429a      	cmp	r2, r3
     13c:	d20d      	bcs.n	15a <Reset_Handler+0x2e>
     13e:	4a16      	ldr	r2, [pc, #88]	; (198 <Reset_Handler+0x6c>)
     140:	3303      	adds	r3, #3
     142:	1a9b      	subs	r3, r3, r2
     144:	089b      	lsrs	r3, r3, #2
     146:	3301      	adds	r3, #1
     148:	009b      	lsls	r3, r3, #2
     14a:	2200      	movs	r2, #0
     14c:	4810      	ldr	r0, [pc, #64]	; (190 <Reset_Handler+0x64>)
     14e:	490f      	ldr	r1, [pc, #60]	; (18c <Reset_Handler+0x60>)
     150:	588c      	ldr	r4, [r1, r2]
     152:	5084      	str	r4, [r0, r2]
     154:	3204      	adds	r2, #4
     156:	429a      	cmp	r2, r3
     158:	d1fa      	bne.n	150 <Reset_Handler+0x24>
     15a:	4a10      	ldr	r2, [pc, #64]	; (19c <Reset_Handler+0x70>)
     15c:	4b10      	ldr	r3, [pc, #64]	; (1a0 <Reset_Handler+0x74>)
     15e:	429a      	cmp	r2, r3
     160:	d20a      	bcs.n	178 <Reset_Handler+0x4c>
     162:	43d3      	mvns	r3, r2
     164:	490e      	ldr	r1, [pc, #56]	; (1a0 <Reset_Handler+0x74>)
     166:	185b      	adds	r3, r3, r1
     168:	2103      	movs	r1, #3
     16a:	438b      	bics	r3, r1
     16c:	3304      	adds	r3, #4
     16e:	189b      	adds	r3, r3, r2
     170:	2100      	movs	r1, #0
     172:	c202      	stmia	r2!, {r1}
     174:	4293      	cmp	r3, r2
     176:	d1fc      	bne.n	172 <Reset_Handler+0x46>
     178:	4a0a      	ldr	r2, [pc, #40]	; (1a4 <Reset_Handler+0x78>)
     17a:	21ff      	movs	r1, #255	; 0xff
     17c:	4b0a      	ldr	r3, [pc, #40]	; (1a8 <Reset_Handler+0x7c>)
     17e:	438b      	bics	r3, r1
     180:	6093      	str	r3, [r2, #8]
     182:	4b0a      	ldr	r3, [pc, #40]	; (1ac <Reset_Handler+0x80>)
     184:	4798      	blx	r3
     186:	4b0a      	ldr	r3, [pc, #40]	; (1b0 <Reset_Handler+0x84>)
     188:	4798      	blx	r3
     18a:	e7fe      	b.n	18a <Reset_Handler+0x5e>
     18c:	000062bc 	.word	0x000062bc
     190:	20000000 	.word	0x20000000
     194:	20000160 	.word	0x20000160
     198:	20000004 	.word	0x20000004
     19c:	20000160 	.word	0x20000160
     1a0:	200003a8 	.word	0x200003a8
     1a4:	e000ed00 	.word	0xe000ed00
     1a8:	00000000 	.word	0x00000000
     1ac:	00003f7d 	.word	0x00003f7d
     1b0:	00001895 	.word	0x00001895

000001b4 <ADC_0_PORT_init>:
struct adc_sync_descriptor ADC_0;

struct temp_sync_descriptor TEMPERATURE_SENSOR_0;

void ADC_0_PORT_init(void)
{
     1b4:	b510      	push	{r4, lr}
	((Port *)hw)->Group[submodule_index].DIRCLR.reg = ~data;
}

static inline void hri_port_clear_DIR_reg(const void *const hw, uint8_t submodule_index, hri_port_dir_reg_t mask)
{
	((Port *)hw)->Group[submodule_index].DIRCLR.reg = mask;
     1b6:	2204      	movs	r2, #4
     1b8:	23c0      	movs	r3, #192	; 0xc0
     1ba:	05db      	lsls	r3, r3, #23
     1bc:	605a      	str	r2, [r3, #4]

static inline void hri_port_write_WRCONFIG_reg(const void *const hw, uint8_t submodule_index,
                                               hri_port_wrconfig_reg_t data)
{
	PORT_CRITICAL_SECTION_ENTER();
	((Port *)hw)->Group[submodule_index].WRCONFIG.reg = data;
     1be:	2182      	movs	r1, #130	; 0x82
     1c0:	05c9      	lsls	r1, r1, #23
     1c2:	4b0a      	ldr	r3, [pc, #40]	; (1ec <ADC_0_PORT_init+0x38>)
     1c4:	628b      	str	r3, [r1, #40]	; 0x28
     1c6:	23c0      	movs	r3, #192	; 0xc0
     1c8:	061b      	lsls	r3, r3, #24
     1ca:	628b      	str	r3, [r1, #40]	; 0x28
	tmp = ((Port *)hw)->Group[submodule_index].PINCFG[index].reg;
     1cc:	2342      	movs	r3, #66	; 0x42
     1ce:	5cca      	ldrb	r2, [r1, r3]
	tmp &= ~PORT_PINCFG_PMUXEN;
     1d0:	2001      	movs	r0, #1
     1d2:	4382      	bics	r2, r0
	tmp |= value << PORT_PINCFG_PMUXEN_Pos;
     1d4:	4302      	orrs	r2, r0
     1d6:	b2d2      	uxtb	r2, r2
	((Port *)hw)->Group[submodule_index].PINCFG[index].reg = tmp;
     1d8:	54ca      	strb	r2, [r1, r3]
	tmp = ((Port *)hw)->Group[submodule_index].PMUX[index].reg;
     1da:	2231      	movs	r2, #49	; 0x31
     1dc:	5c8b      	ldrb	r3, [r1, r2]
	tmp &= ~PORT_PMUX_PMUXE_Msk;
     1de:	240f      	movs	r4, #15
     1e0:	43a3      	bics	r3, r4
	tmp |= PORT_PMUX_PMUXE(data);
     1e2:	4303      	orrs	r3, r0
     1e4:	b2db      	uxtb	r3, r3
	((Port *)hw)->Group[submodule_index].PMUX[index].reg = tmp;
     1e6:	548b      	strb	r3, [r1, r2]

	// Disable digital pin circuitry
	gpio_set_pin_direction(v_sense, GPIO_DIRECTION_OFF);

	gpio_set_pin_function(v_sense, PINMUX_PA02B_ADC0_AIN0);
}
     1e8:	bd10      	pop	{r4, pc}
     1ea:	46c0      	nop			; (mov r8, r8)
     1ec:	40000004 	.word	0x40000004

000001f0 <ADC_0_CLOCK_init>:
}

static inline void hri_mclk_set_APBCMASK_ADC0_bit(const void *const hw)
{
	MCLK_CRITICAL_SECTION_ENTER();
	((Mclk *)hw)->APBCMASK.reg |= MCLK_APBCMASK_ADC0;
     1f0:	4a05      	ldr	r2, [pc, #20]	; (208 <ADC_0_CLOCK_init+0x18>)
     1f2:	69d1      	ldr	r1, [r2, #28]
     1f4:	2380      	movs	r3, #128	; 0x80
     1f6:	029b      	lsls	r3, r3, #10
     1f8:	430b      	orrs	r3, r1
     1fa:	61d3      	str	r3, [r2, #28]
}

static inline void hri_gclk_write_PCHCTRL_reg(const void *const hw, uint8_t index, hri_gclk_pchctrl_reg_t data)
{
	GCLK_CRITICAL_SECTION_ENTER();
	((Gclk *)hw)->PCHCTRL[index].reg = data;
     1fc:	2141      	movs	r1, #65	; 0x41
     1fe:	2382      	movs	r3, #130	; 0x82
     200:	005b      	lsls	r3, r3, #1
     202:	4a02      	ldr	r2, [pc, #8]	; (20c <ADC_0_CLOCK_init+0x1c>)
     204:	50d1      	str	r1, [r2, r3]

void ADC_0_CLOCK_init(void)
{
	hri_mclk_set_APBCMASK_ADC0_bit(MCLK);
	hri_gclk_write_PCHCTRL_reg(GCLK, ADC0_GCLK_ID, CONF_GCLK_ADC0_SRC | (1 << GCLK_PCHCTRL_CHEN_Pos));
}
     206:	4770      	bx	lr
     208:	40000800 	.word	0x40000800
     20c:	40001c00 	.word	0x40001c00

00000210 <ADC_0_init>:

void ADC_0_init(void)
{
     210:	b510      	push	{r4, lr}
	ADC_0_CLOCK_init();
     212:	4b06      	ldr	r3, [pc, #24]	; (22c <ADC_0_init+0x1c>)
     214:	4798      	blx	r3
	ADC_0_PORT_init();
     216:	4b06      	ldr	r3, [pc, #24]	; (230 <ADC_0_init+0x20>)
     218:	4798      	blx	r3
	adc_sync_init(&ADC_0, ADC0, _adc_get_adc_sync());
     21a:	4b06      	ldr	r3, [pc, #24]	; (234 <ADC_0_init+0x24>)
     21c:	4798      	blx	r3
     21e:	0002      	movs	r2, r0
     220:	4905      	ldr	r1, [pc, #20]	; (238 <ADC_0_init+0x28>)
     222:	4806      	ldr	r0, [pc, #24]	; (23c <ADC_0_init+0x2c>)
     224:	4b06      	ldr	r3, [pc, #24]	; (240 <ADC_0_init+0x30>)
     226:	4798      	blx	r3
}
     228:	bd10      	pop	{r4, pc}
     22a:	46c0      	nop			; (mov r8, r8)
     22c:	000001f1 	.word	0x000001f1
     230:	000001b5 	.word	0x000001b5
     234:	00000fcf 	.word	0x00000fcf
     238:	42004400 	.word	0x42004400
     23c:	200002f4 	.word	0x200002f4
     240:	000005d5 	.word	0x000005d5

00000244 <SPI_0_PORT_init>:

void SPI_0_PORT_init(void)
{
     244:	b5f0      	push	{r4, r5, r6, r7, lr}
     246:	46c6      	mov	lr, r8
     248:	b500      	push	{lr}
	((Port *)hw)->Group[submodule_index].DIRCLR.reg = mask;
     24a:	24c0      	movs	r4, #192	; 0xc0
     24c:	05e4      	lsls	r4, r4, #23
     24e:	2380      	movs	r3, #128	; 0x80
     250:	005b      	lsls	r3, r3, #1
     252:	6063      	str	r3, [r4, #4]
	((Port *)hw)->Group[submodule_index].WRCONFIG.reg = data;
     254:	2382      	movs	r3, #130	; 0x82
     256:	05db      	lsls	r3, r3, #23
     258:	4a23      	ldr	r2, [pc, #140]	; (2e8 <SPI_0_PORT_init+0xa4>)
     25a:	629a      	str	r2, [r3, #40]	; 0x28
     25c:	4a23      	ldr	r2, [pc, #140]	; (2ec <SPI_0_PORT_init+0xa8>)
     25e:	629a      	str	r2, [r3, #40]	; 0x28
	((Port *)hw)->Group[submodule_index].PINCFG[index].reg &= ~PORT_PINCFG_PULLEN;
     260:	2148      	movs	r1, #72	; 0x48
     262:	5c5a      	ldrb	r2, [r3, r1]
     264:	2004      	movs	r0, #4
     266:	4382      	bics	r2, r0
     268:	545a      	strb	r2, [r3, r1]
	tmp = ((Port *)hw)->Group[submodule_index].PINCFG[index].reg;
     26a:	5c5a      	ldrb	r2, [r3, r1]
	tmp &= ~PORT_PINCFG_PMUXEN;
     26c:	2601      	movs	r6, #1
     26e:	43b2      	bics	r2, r6
	tmp |= value << PORT_PINCFG_PMUXEN_Pos;
     270:	2501      	movs	r5, #1
     272:	432a      	orrs	r2, r5
     274:	b2d2      	uxtb	r2, r2
	((Port *)hw)->Group[submodule_index].PINCFG[index].reg = tmp;
     276:	545a      	strb	r2, [r3, r1]
	tmp = ((Port *)hw)->Group[submodule_index].PMUX[index].reg;
     278:	3914      	subs	r1, #20
     27a:	5c5a      	ldrb	r2, [r3, r1]
	tmp &= ~PORT_PMUX_PMUXE_Msk;
     27c:	300b      	adds	r0, #11
     27e:	4684      	mov	ip, r0
     280:	4382      	bics	r2, r0
	tmp |= PORT_PMUX_PMUXE(data);
     282:	2703      	movs	r7, #3
     284:	433a      	orrs	r2, r7
     286:	b2d2      	uxtb	r2, r2
	((Port *)hw)->Group[submodule_index].PMUX[index].reg = tmp;
     288:	545a      	strb	r2, [r3, r1]
	((Port *)hw)->Group[submodule_index].OUTCLR.reg = mask;
     28a:	2280      	movs	r2, #128	; 0x80
     28c:	00d2      	lsls	r2, r2, #3
     28e:	6162      	str	r2, [r4, #20]
	((Port *)hw)->Group[submodule_index].DIRSET.reg = mask;
     290:	60a2      	str	r2, [r4, #8]
	((Port *)hw)->Group[submodule_index].WRCONFIG.reg = data;
     292:	4a17      	ldr	r2, [pc, #92]	; (2f0 <SPI_0_PORT_init+0xac>)
     294:	629a      	str	r2, [r3, #40]	; 0x28
     296:	22c0      	movs	r2, #192	; 0xc0
     298:	0612      	lsls	r2, r2, #24
     29a:	4690      	mov	r8, r2
     29c:	629a      	str	r2, [r3, #40]	; 0x28
	tmp = ((Port *)hw)->Group[submodule_index].PINCFG[index].reg;
     29e:	3116      	adds	r1, #22
     2a0:	5c58      	ldrb	r0, [r3, r1]
	tmp &= ~PORT_PINCFG_PMUXEN;
     2a2:	43b0      	bics	r0, r6
	tmp |= value << PORT_PINCFG_PMUXEN_Pos;
     2a4:	4328      	orrs	r0, r5
     2a6:	b2c0      	uxtb	r0, r0
	((Port *)hw)->Group[submodule_index].PINCFG[index].reg = tmp;
     2a8:	5458      	strb	r0, [r3, r1]
	tmp = ((Port *)hw)->Group[submodule_index].PMUX[index].reg;
     2aa:	2035      	movs	r0, #53	; 0x35
     2ac:	5c19      	ldrb	r1, [r3, r0]
	tmp &= ~PORT_PMUX_PMUXE_Msk;
     2ae:	4662      	mov	r2, ip
     2b0:	4391      	bics	r1, r2
	tmp |= PORT_PMUX_PMUXE(data);
     2b2:	4339      	orrs	r1, r7
     2b4:	b2c9      	uxtb	r1, r1
	((Port *)hw)->Group[submodule_index].PMUX[index].reg = tmp;
     2b6:	5419      	strb	r1, [r3, r0]
	((Port *)hw)->Group[submodule_index].OUTCLR.reg = mask;
     2b8:	2180      	movs	r1, #128	; 0x80
     2ba:	0109      	lsls	r1, r1, #4
     2bc:	6161      	str	r1, [r4, #20]
	((Port *)hw)->Group[submodule_index].DIRSET.reg = mask;
     2be:	60a1      	str	r1, [r4, #8]
	((Port *)hw)->Group[submodule_index].WRCONFIG.reg = data;
     2c0:	490c      	ldr	r1, [pc, #48]	; (2f4 <SPI_0_PORT_init+0xb0>)
     2c2:	6299      	str	r1, [r3, #40]	; 0x28
     2c4:	4642      	mov	r2, r8
     2c6:	629a      	str	r2, [r3, #40]	; 0x28
	tmp = ((Port *)hw)->Group[submodule_index].PINCFG[index].reg;
     2c8:	214b      	movs	r1, #75	; 0x4b
     2ca:	5c5a      	ldrb	r2, [r3, r1]
	tmp &= ~PORT_PINCFG_PMUXEN;
     2cc:	43b2      	bics	r2, r6
	tmp |= value << PORT_PINCFG_PMUXEN_Pos;
     2ce:	432a      	orrs	r2, r5
     2d0:	b2d2      	uxtb	r2, r2
	((Port *)hw)->Group[submodule_index].PINCFG[index].reg = tmp;
     2d2:	545a      	strb	r2, [r3, r1]
	tmp = ((Port *)hw)->Group[submodule_index].PMUX[index].reg;
     2d4:	5c1a      	ldrb	r2, [r3, r0]
	tmp &= ~PORT_PMUX_PMUXO_Msk;
     2d6:	393c      	subs	r1, #60	; 0x3c
     2d8:	400a      	ands	r2, r1
	tmp |= PORT_PMUX_PMUXO(data);
     2da:	3121      	adds	r1, #33	; 0x21
     2dc:	430a      	orrs	r2, r1
	((Port *)hw)->Group[submodule_index].PMUX[index].reg = tmp;
     2de:	541a      	strb	r2, [r3, r0]

	// Set pin direction to output
	gpio_set_pin_direction(spi_sck, GPIO_DIRECTION_OUT);

	gpio_set_pin_function(spi_sck, PINMUX_PA11D_SERCOM2_PAD3);
}
     2e0:	bc04      	pop	{r2}
     2e2:	4690      	mov	r8, r2
     2e4:	bdf0      	pop	{r4, r5, r6, r7, pc}
     2e6:	46c0      	nop			; (mov r8, r8)
     2e8:	40020100 	.word	0x40020100
     2ec:	c0020000 	.word	0xc0020000
     2f0:	40000400 	.word	0x40000400
     2f4:	40000800 	.word	0x40000800

000002f8 <SPI_0_CLOCK_init>:
     2f8:	4b05      	ldr	r3, [pc, #20]	; (310 <SPI_0_CLOCK_init+0x18>)
     2fa:	2241      	movs	r2, #65	; 0x41
     2fc:	21d4      	movs	r1, #212	; 0xd4
     2fe:	505a      	str	r2, [r3, r1]
     300:	390c      	subs	r1, #12
     302:	505a      	str	r2, [r3, r1]
	((Mclk *)hw)->APBCMASK.reg |= MCLK_APBCMASK_SERCOM2;
     304:	4a03      	ldr	r2, [pc, #12]	; (314 <SPI_0_CLOCK_init+0x1c>)
     306:	69d3      	ldr	r3, [r2, #28]
     308:	39c0      	subs	r1, #192	; 0xc0
     30a:	430b      	orrs	r3, r1
     30c:	61d3      	str	r3, [r2, #28]
void SPI_0_CLOCK_init(void)
{
	hri_gclk_write_PCHCTRL_reg(GCLK, SERCOM2_GCLK_ID_CORE, CONF_GCLK_SERCOM2_CORE_SRC | (1 << GCLK_PCHCTRL_CHEN_Pos));
	hri_gclk_write_PCHCTRL_reg(GCLK, SERCOM2_GCLK_ID_SLOW, CONF_GCLK_SERCOM2_SLOW_SRC | (1 << GCLK_PCHCTRL_CHEN_Pos));
	hri_mclk_set_APBCMASK_SERCOM2_bit(MCLK);
}
     30e:	4770      	bx	lr
     310:	40001c00 	.word	0x40001c00
     314:	40000800 	.word	0x40000800

00000318 <SPI_0_init>:

void SPI_0_init(void)
{
     318:	b510      	push	{r4, lr}
	SPI_0_CLOCK_init();
     31a:	4b04      	ldr	r3, [pc, #16]	; (32c <SPI_0_init+0x14>)
     31c:	4798      	blx	r3
	spi_m_sync_init(&SPI_0, SERCOM2);
     31e:	4904      	ldr	r1, [pc, #16]	; (330 <SPI_0_init+0x18>)
     320:	4804      	ldr	r0, [pc, #16]	; (334 <SPI_0_init+0x1c>)
     322:	4b05      	ldr	r3, [pc, #20]	; (338 <SPI_0_init+0x20>)
     324:	4798      	blx	r3
	SPI_0_PORT_init();
     326:	4b05      	ldr	r3, [pc, #20]	; (33c <SPI_0_init+0x24>)
     328:	4798      	blx	r3
}
     32a:	bd10      	pop	{r4, pc}
     32c:	000002f9 	.word	0x000002f9
     330:	42000c00 	.word	0x42000c00
     334:	200002f8 	.word	0x200002f8
     338:	0000082d 	.word	0x0000082d
     33c:	00000245 	.word	0x00000245

00000340 <USART_0_CLOCK_init>:
     340:	4b05      	ldr	r3, [pc, #20]	; (358 <USART_0_CLOCK_init+0x18>)
     342:	2241      	movs	r2, #65	; 0x41
     344:	21dc      	movs	r1, #220	; 0xdc
     346:	505a      	str	r2, [r3, r1]
     348:	3914      	subs	r1, #20
     34a:	505a      	str	r2, [r3, r1]
	((Mclk *)hw)->APBCMASK.reg |= MCLK_APBCMASK_SERCOM4;
     34c:	4a03      	ldr	r2, [pc, #12]	; (35c <USART_0_CLOCK_init+0x1c>)
     34e:	69d3      	ldr	r3, [r2, #28]
     350:	39a8      	subs	r1, #168	; 0xa8
     352:	430b      	orrs	r3, r1
     354:	61d3      	str	r3, [r2, #28]
{

	hri_gclk_write_PCHCTRL_reg(GCLK, SERCOM4_GCLK_ID_CORE, CONF_GCLK_SERCOM4_CORE_SRC | (1 << GCLK_PCHCTRL_CHEN_Pos));
	hri_gclk_write_PCHCTRL_reg(GCLK, SERCOM4_GCLK_ID_SLOW, CONF_GCLK_SERCOM4_SLOW_SRC | (1 << GCLK_PCHCTRL_CHEN_Pos));
	hri_mclk_set_APBCMASK_SERCOM4_bit(MCLK);
}
     356:	4770      	bx	lr
     358:	40001c00 	.word	0x40001c00
     35c:	40000800 	.word	0x40000800

00000360 <USART_0_PORT_init>:
 * \brief USART pinmux initialization function
 *
 * Set each required pin to USART functionality
 */
void USART_0_PORT_init()
{
     360:	b530      	push	{r4, r5, lr}
	tmp = ((Port *)hw)->Group[submodule_index].PINCFG[index].reg;
     362:	2382      	movs	r3, #130	; 0x82
     364:	05db      	lsls	r3, r3, #23
     366:	22c8      	movs	r2, #200	; 0xc8
     368:	5c99      	ldrb	r1, [r3, r2]
	tmp &= ~PORT_PINCFG_PMUXEN;
     36a:	2501      	movs	r5, #1
     36c:	43a9      	bics	r1, r5
	tmp |= value << PORT_PINCFG_PMUXEN_Pos;
     36e:	2401      	movs	r4, #1
     370:	4321      	orrs	r1, r4
     372:	b2c9      	uxtb	r1, r1
	((Port *)hw)->Group[submodule_index].PINCFG[index].reg = tmp;
     374:	5499      	strb	r1, [r3, r2]
	tmp = ((Port *)hw)->Group[submodule_index].PMUX[index].reg;
     376:	20b4      	movs	r0, #180	; 0xb4
     378:	5c19      	ldrb	r1, [r3, r0]
	tmp &= ~PORT_PMUX_PMUXE_Msk;
     37a:	3ab9      	subs	r2, #185	; 0xb9
     37c:	4391      	bics	r1, r2
	tmp |= PORT_PMUX_PMUXE(data);
     37e:	3a0c      	subs	r2, #12
     380:	4311      	orrs	r1, r2
	((Port *)hw)->Group[submodule_index].PMUX[index].reg = tmp;
     382:	5419      	strb	r1, [r3, r0]
	tmp = ((Port *)hw)->Group[submodule_index].PINCFG[index].reg;
     384:	21c9      	movs	r1, #201	; 0xc9
     386:	5c5a      	ldrb	r2, [r3, r1]
	tmp &= ~PORT_PINCFG_PMUXEN;
     388:	43aa      	bics	r2, r5
	tmp |= value << PORT_PINCFG_PMUXEN_Pos;
     38a:	4322      	orrs	r2, r4
     38c:	b2d2      	uxtb	r2, r2
	((Port *)hw)->Group[submodule_index].PINCFG[index].reg = tmp;
     38e:	545a      	strb	r2, [r3, r1]
	tmp = ((Port *)hw)->Group[submodule_index].PMUX[index].reg;
     390:	5c1a      	ldrb	r2, [r3, r0]
	tmp &= ~PORT_PMUX_PMUXO_Msk;
     392:	39ba      	subs	r1, #186	; 0xba
     394:	400a      	ands	r2, r1
	tmp |= PORT_PMUX_PMUXO(data);
     396:	3121      	adds	r1, #33	; 0x21
     398:	430a      	orrs	r2, r1
	((Port *)hw)->Group[submodule_index].PMUX[index].reg = tmp;
     39a:	541a      	strb	r2, [r3, r0]

	gpio_set_pin_function(usb_tx, PINMUX_PB08D_SERCOM4_PAD0);

	gpio_set_pin_function(usb_rx, PINMUX_PB09D_SERCOM4_PAD1);
}
     39c:	bd30      	pop	{r4, r5, pc}
	...

000003a0 <USART_0_init>:
 * \brief USART initialization function
 *
 * Enables USART peripheral, clocks and initializes USART driver
 */
void USART_0_init(void)
{
     3a0:	b510      	push	{r4, lr}
     3a2:	b082      	sub	sp, #8
	USART_0_CLOCK_init();
     3a4:	4b06      	ldr	r3, [pc, #24]	; (3c0 <USART_0_init+0x20>)
     3a6:	4798      	blx	r3
	usart_async_init(&USART_0, SERCOM4, USART_0_buffer, USART_0_BUFFER_SIZE, (void *)NULL);
     3a8:	2300      	movs	r3, #0
     3aa:	9300      	str	r3, [sp, #0]
     3ac:	3310      	adds	r3, #16
     3ae:	4a05      	ldr	r2, [pc, #20]	; (3c4 <USART_0_init+0x24>)
     3b0:	4905      	ldr	r1, [pc, #20]	; (3c8 <USART_0_init+0x28>)
     3b2:	4806      	ldr	r0, [pc, #24]	; (3cc <USART_0_init+0x2c>)
     3b4:	4c06      	ldr	r4, [pc, #24]	; (3d0 <USART_0_init+0x30>)
     3b6:	47a0      	blx	r4
	USART_0_PORT_init();
     3b8:	4b06      	ldr	r3, [pc, #24]	; (3d4 <USART_0_init+0x34>)
     3ba:	4798      	blx	r3
}
     3bc:	b002      	add	sp, #8
     3be:	bd10      	pop	{r4, pc}
     3c0:	00000341 	.word	0x00000341
     3c4:	2000017c 	.word	0x2000017c
     3c8:	42001400 	.word	0x42001400
     3cc:	20000310 	.word	0x20000310
     3d0:	00000b91 	.word	0x00000b91
     3d4:	00000361 	.word	0x00000361

000003d8 <CAN_0_PORT_init>:

void CAN_0_PORT_init(void)
{
     3d8:	b530      	push	{r4, r5, lr}
	tmp = ((Port *)hw)->Group[submodule_index].PINCFG[index].reg;
     3da:	2382      	movs	r3, #130	; 0x82
     3dc:	05db      	lsls	r3, r3, #23
     3de:	2259      	movs	r2, #89	; 0x59
     3e0:	5c99      	ldrb	r1, [r3, r2]
	tmp &= ~PORT_PINCFG_PMUXEN;
     3e2:	2501      	movs	r5, #1
     3e4:	43a9      	bics	r1, r5
	tmp |= value << PORT_PINCFG_PMUXEN_Pos;
     3e6:	2401      	movs	r4, #1
     3e8:	4321      	orrs	r1, r4
     3ea:	b2c9      	uxtb	r1, r1
	((Port *)hw)->Group[submodule_index].PINCFG[index].reg = tmp;
     3ec:	5499      	strb	r1, [r3, r2]
	tmp = ((Port *)hw)->Group[submodule_index].PMUX[index].reg;
     3ee:	203c      	movs	r0, #60	; 0x3c
     3f0:	5c19      	ldrb	r1, [r3, r0]
	tmp &= ~PORT_PMUX_PMUXO_Msk;
     3f2:	3a4a      	subs	r2, #74	; 0x4a
     3f4:	4011      	ands	r1, r2
	tmp |= PORT_PMUX_PMUXO(data);
     3f6:	3251      	adds	r2, #81	; 0x51
     3f8:	4311      	orrs	r1, r2
	((Port *)hw)->Group[submodule_index].PMUX[index].reg = tmp;
     3fa:	5419      	strb	r1, [r3, r0]
	tmp = ((Port *)hw)->Group[submodule_index].PINCFG[index].reg;
     3fc:	2158      	movs	r1, #88	; 0x58
     3fe:	5c5a      	ldrb	r2, [r3, r1]
	tmp &= ~PORT_PINCFG_PMUXEN;
     400:	43aa      	bics	r2, r5
	tmp |= value << PORT_PINCFG_PMUXEN_Pos;
     402:	4322      	orrs	r2, r4
     404:	b2d2      	uxtb	r2, r2
	((Port *)hw)->Group[submodule_index].PINCFG[index].reg = tmp;
     406:	545a      	strb	r2, [r3, r1]
	tmp = ((Port *)hw)->Group[submodule_index].PMUX[index].reg;
     408:	5c1a      	ldrb	r2, [r3, r0]
	tmp &= ~PORT_PMUX_PMUXE_Msk;
     40a:	3949      	subs	r1, #73	; 0x49
     40c:	438a      	bics	r2, r1
	tmp |= PORT_PMUX_PMUXE(data);
     40e:	3909      	subs	r1, #9
     410:	430a      	orrs	r2, r1
	((Port *)hw)->Group[submodule_index].PMUX[index].reg = tmp;
     412:	541a      	strb	r2, [r3, r0]

	gpio_set_pin_function(can_rx, PINMUX_PA25G_CAN0_RX);

	gpio_set_pin_function(can_tx, PINMUX_PA24G_CAN0_TX);
}
     414:	bd30      	pop	{r4, r5, pc}
	...

00000418 <CAN_0_init>:
 * \brief CAN initialization function
 *
 * Enables CAN peripheral, clocks and initializes CAN driver
 */
void CAN_0_init(void)
{
     418:	b510      	push	{r4, lr}
	((Mclk *)hw)->AHBMASK.reg |= MCLK_AHBMASK_CAN0;
     41a:	4a08      	ldr	r2, [pc, #32]	; (43c <CAN_0_init+0x24>)
     41c:	6911      	ldr	r1, [r2, #16]
     41e:	2380      	movs	r3, #128	; 0x80
     420:	005b      	lsls	r3, r3, #1
     422:	430b      	orrs	r3, r1
     424:	6113      	str	r3, [r2, #16]
     426:	2141      	movs	r1, #65	; 0x41
     428:	23e8      	movs	r3, #232	; 0xe8
     42a:	4a05      	ldr	r2, [pc, #20]	; (440 <CAN_0_init+0x28>)
     42c:	50d1      	str	r1, [r2, r3]
	hri_mclk_set_AHBMASK_CAN0_bit(MCLK);
	hri_gclk_write_PCHCTRL_reg(GCLK, CAN0_GCLK_ID, CONF_GCLK_CAN0_SRC | (1 << GCLK_PCHCTRL_CHEN_Pos));
	can_async_init(&CAN_0, CAN0);
     42e:	4905      	ldr	r1, [pc, #20]	; (444 <CAN_0_init+0x2c>)
     430:	4805      	ldr	r0, [pc, #20]	; (448 <CAN_0_init+0x30>)
     432:	4b06      	ldr	r3, [pc, #24]	; (44c <CAN_0_init+0x34>)
     434:	4798      	blx	r3
	CAN_0_PORT_init();
     436:	4b06      	ldr	r3, [pc, #24]	; (450 <CAN_0_init+0x38>)
     438:	4798      	blx	r3
}
     43a:	bd10      	pop	{r4, pc}
     43c:	40000800 	.word	0x40000800
     440:	40001c00 	.word	0x40001c00
     444:	42001c00 	.word	0x42001c00
     448:	200002c8 	.word	0x200002c8
     44c:	00000735 	.word	0x00000735
     450:	000003d9 	.word	0x000003d9

00000454 <TEMPERATURE_SENSOR_0_CLOCK_init>:
	((Mclk *)hw)->APBAMASK.reg |= MCLK_APBAMASK_TSENS;
     454:	4a05      	ldr	r2, [pc, #20]	; (46c <TEMPERATURE_SENSOR_0_CLOCK_init+0x18>)
     456:	6951      	ldr	r1, [r2, #20]
     458:	2380      	movs	r3, #128	; 0x80
     45a:	015b      	lsls	r3, r3, #5
     45c:	430b      	orrs	r3, r1
     45e:	6153      	str	r3, [r2, #20]
     460:	2141      	movs	r1, #65	; 0x41
     462:	2394      	movs	r3, #148	; 0x94
     464:	4a02      	ldr	r2, [pc, #8]	; (470 <TEMPERATURE_SENSOR_0_CLOCK_init+0x1c>)
     466:	50d1      	str	r1, [r2, r3]
void TEMPERATURE_SENSOR_0_CLOCK_init(void)
{
	hri_mclk_set_APBAMASK_TSENS_bit(MCLK);

	hri_gclk_write_PCHCTRL_reg(GCLK, TSENS_GCLK_ID, CONF_GCLK_TSENS_SRC | (1 << GCLK_PCHCTRL_CHEN_Pos));
}
     468:	4770      	bx	lr
     46a:	46c0      	nop			; (mov r8, r8)
     46c:	40000800 	.word	0x40000800
     470:	40001c00 	.word	0x40001c00

00000474 <TEMPERATURE_SENSOR_0_init>:

void TEMPERATURE_SENSOR_0_init(void)
{
     474:	b510      	push	{r4, lr}
	TEMPERATURE_SENSOR_0_CLOCK_init();
     476:	4b03      	ldr	r3, [pc, #12]	; (484 <TEMPERATURE_SENSOR_0_init+0x10>)
     478:	4798      	blx	r3
	temp_sync_init(&TEMPERATURE_SENSOR_0, TSENS);
     47a:	4903      	ldr	r1, [pc, #12]	; (488 <TEMPERATURE_SENSOR_0_init+0x14>)
     47c:	4803      	ldr	r0, [pc, #12]	; (48c <TEMPERATURE_SENSOR_0_init+0x18>)
     47e:	4b04      	ldr	r3, [pc, #16]	; (490 <TEMPERATURE_SENSOR_0_init+0x1c>)
     480:	4798      	blx	r3
}
     482:	bd10      	pop	{r4, pc}
     484:	00000455 	.word	0x00000455
     488:	40003000 	.word	0x40003000
     48c:	200002f0 	.word	0x200002f0
     490:	00000999 	.word	0x00000999

00000494 <system_init>:

void system_init(void)
{
     494:	b5f0      	push	{r4, r5, r6, r7, lr}
     496:	46c6      	mov	lr, r8
     498:	b500      	push	{lr}
 * Currently the following initialization functions are supported:
 *  - System clock initialization
 */
static inline void init_mcu(void)
{
	_init_chip();
     49a:	4b3f      	ldr	r3, [pc, #252]	; (598 <system_init+0x104>)
     49c:	4798      	blx	r3
	((Port *)hw)->Group[submodule_index].OUTCLR.reg = mask;
     49e:	22c0      	movs	r2, #192	; 0xc0
     4a0:	05d2      	lsls	r2, r2, #23
     4a2:	2320      	movs	r3, #32
     4a4:	6153      	str	r3, [r2, #20]
	((Port *)hw)->Group[submodule_index].DIRSET.reg = mask;
     4a6:	6093      	str	r3, [r2, #8]
	((Port *)hw)->Group[submodule_index].WRCONFIG.reg = data;
     4a8:	2382      	movs	r3, #130	; 0x82
     4aa:	05db      	lsls	r3, r3, #23
     4ac:	493b      	ldr	r1, [pc, #236]	; (59c <system_init+0x108>)
     4ae:	6299      	str	r1, [r3, #40]	; 0x28
     4b0:	24c0      	movs	r4, #192	; 0xc0
     4b2:	0624      	lsls	r4, r4, #24
     4b4:	629c      	str	r4, [r3, #40]	; 0x28
	tmp = ((Port *)hw)->Group[submodule_index].PINCFG[index].reg;
     4b6:	2545      	movs	r5, #69	; 0x45
     4b8:	5d58      	ldrb	r0, [r3, r5]
	tmp &= ~PORT_PINCFG_PMUXEN;
     4ba:	2101      	movs	r1, #1
     4bc:	4388      	bics	r0, r1
	((Port *)hw)->Group[submodule_index].PINCFG[index].reg = tmp;
     4be:	5558      	strb	r0, [r3, r5]
	((Port *)hw)->Group[submodule_index].OUTCLR.reg = mask;
     4c0:	2080      	movs	r0, #128	; 0x80
     4c2:	0080      	lsls	r0, r0, #2
     4c4:	6150      	str	r0, [r2, #20]
	((Port *)hw)->Group[submodule_index].DIRSET.reg = mask;
     4c6:	6090      	str	r0, [r2, #8]
	((Port *)hw)->Group[submodule_index].WRCONFIG.reg = data;
     4c8:	4835      	ldr	r0, [pc, #212]	; (5a0 <system_init+0x10c>)
     4ca:	6298      	str	r0, [r3, #40]	; 0x28
     4cc:	629c      	str	r4, [r3, #40]	; 0x28
	tmp = ((Port *)hw)->Group[submodule_index].PINCFG[index].reg;
     4ce:	2449      	movs	r4, #73	; 0x49
     4d0:	5d18      	ldrb	r0, [r3, r4]
	tmp &= ~PORT_PINCFG_PMUXEN;
     4d2:	4388      	bics	r0, r1
	((Port *)hw)->Group[submodule_index].PINCFG[index].reg = tmp;
     4d4:	5518      	strb	r0, [r3, r4]
	((Port *)hw)->Group[submodule_index].OUTCLR.reg = mask;
     4d6:	2080      	movs	r0, #128	; 0x80
     4d8:	0500      	lsls	r0, r0, #20
     4da:	6150      	str	r0, [r2, #20]
	((Port *)hw)->Group[submodule_index].DIRSET.reg = mask;
     4dc:	6090      	str	r0, [r2, #8]
	((Port *)hw)->Group[submodule_index].WRCONFIG.reg = data;
     4de:	2480      	movs	r4, #128	; 0x80
     4e0:	05e4      	lsls	r4, r4, #23
     4e2:	629c      	str	r4, [r3, #40]	; 0x28
     4e4:	482f      	ldr	r0, [pc, #188]	; (5a4 <system_init+0x110>)
     4e6:	6298      	str	r0, [r3, #40]	; 0x28
	tmp = ((Port *)hw)->Group[submodule_index].PINCFG[index].reg;
     4e8:	3516      	adds	r5, #22
     4ea:	5d58      	ldrb	r0, [r3, r5]
	tmp &= ~PORT_PINCFG_PMUXEN;
     4ec:	4388      	bics	r0, r1
	((Port *)hw)->Group[submodule_index].PINCFG[index].reg = tmp;
     4ee:	5558      	strb	r0, [r3, r5]
	((Port *)hw)->Group[submodule_index].OUTCLR.reg = mask;
     4f0:	2080      	movs	r0, #128	; 0x80
     4f2:	0540      	lsls	r0, r0, #21
     4f4:	6150      	str	r0, [r2, #20]
	((Port *)hw)->Group[submodule_index].DIRSET.reg = mask;
     4f6:	6090      	str	r0, [r2, #8]
	((Port *)hw)->Group[submodule_index].WRCONFIG.reg = data;
     4f8:	629c      	str	r4, [r3, #40]	; 0x28
     4fa:	482b      	ldr	r0, [pc, #172]	; (5a8 <system_init+0x114>)
     4fc:	6298      	str	r0, [r3, #40]	; 0x28
	tmp = ((Port *)hw)->Group[submodule_index].PINCFG[index].reg;
     4fe:	3501      	adds	r5, #1
     500:	5d58      	ldrb	r0, [r3, r5]
	tmp &= ~PORT_PINCFG_PMUXEN;
     502:	4388      	bics	r0, r1
	((Port *)hw)->Group[submodule_index].PINCFG[index].reg = tmp;
     504:	5558      	strb	r0, [r3, r5]
	((Port *)hw)->Group[submodule_index].DIRCLR.reg = mask;
     506:	2084      	movs	r0, #132	; 0x84
     508:	4680      	mov	r8, r0
     50a:	2704      	movs	r7, #4
     50c:	5017      	str	r7, [r2, r0]
	((Port *)hw)->Group[submodule_index].WRCONFIG.reg = data;
     50e:	3024      	adds	r0, #36	; 0x24
     510:	4d26      	ldr	r5, [pc, #152]	; (5ac <system_init+0x118>)
     512:	501d      	str	r5, [r3, r0]
     514:	4d26      	ldr	r5, [pc, #152]	; (5b0 <system_init+0x11c>)
     516:	46ac      	mov	ip, r5
     518:	501d      	str	r5, [r3, r0]
	((Port *)hw)->Group[submodule_index].PINCFG[index].reg &= ~PORT_PINCFG_PULLEN;
     51a:	25c2      	movs	r5, #194	; 0xc2
     51c:	5d5e      	ldrb	r6, [r3, r5]
     51e:	43be      	bics	r6, r7
     520:	555e      	strb	r6, [r3, r5]
	tmp = ((Port *)hw)->Group[submodule_index].PINCFG[index].reg;
     522:	5d5e      	ldrb	r6, [r3, r5]
	tmp &= ~PORT_PINCFG_PMUXEN;
     524:	438e      	bics	r6, r1
	((Port *)hw)->Group[submodule_index].PINCFG[index].reg = tmp;
     526:	555e      	strb	r6, [r3, r5]
	((Port *)hw)->Group[submodule_index].DIRCLR.reg = mask;
     528:	3dba      	subs	r5, #186	; 0xba
     52a:	4646      	mov	r6, r8
     52c:	5195      	str	r5, [r2, r6]
	((Port *)hw)->Group[submodule_index].WRCONFIG.reg = data;
     52e:	4d21      	ldr	r5, [pc, #132]	; (5b4 <system_init+0x120>)
     530:	501d      	str	r5, [r3, r0]
     532:	4665      	mov	r5, ip
     534:	501d      	str	r5, [r3, r0]
	((Port *)hw)->Group[submodule_index].PINCFG[index].reg &= ~PORT_PINCFG_PULLEN;
     536:	25c3      	movs	r5, #195	; 0xc3
     538:	5d5e      	ldrb	r6, [r3, r5]
     53a:	43be      	bics	r6, r7
     53c:	555e      	strb	r6, [r3, r5]
	tmp = ((Port *)hw)->Group[submodule_index].PINCFG[index].reg;
     53e:	5d5e      	ldrb	r6, [r3, r5]
	tmp &= ~PORT_PINCFG_PMUXEN;
     540:	438e      	bics	r6, r1
	((Port *)hw)->Group[submodule_index].PINCFG[index].reg = tmp;
     542:	555e      	strb	r6, [r3, r5]
	((Port *)hw)->Group[submodule_index].OUTCLR.reg = mask;
     544:	3790      	adds	r7, #144	; 0x90
     546:	2580      	movs	r5, #128	; 0x80
     548:	03ed      	lsls	r5, r5, #15
     54a:	51d5      	str	r5, [r2, r7]
	((Port *)hw)->Group[submodule_index].DIRSET.reg = mask;
     54c:	2688      	movs	r6, #136	; 0x88
     54e:	46b0      	mov	r8, r6
     550:	5195      	str	r5, [r2, r6]
	((Port *)hw)->Group[submodule_index].WRCONFIG.reg = data;
     552:	501c      	str	r4, [r3, r0]
     554:	4d18      	ldr	r5, [pc, #96]	; (5b8 <system_init+0x124>)
     556:	501d      	str	r5, [r3, r0]
	tmp = ((Port *)hw)->Group[submodule_index].PINCFG[index].reg;
     558:	25d6      	movs	r5, #214	; 0xd6
     55a:	46ac      	mov	ip, r5
     55c:	5d5d      	ldrb	r5, [r3, r5]
	tmp &= ~PORT_PINCFG_PMUXEN;
     55e:	438d      	bics	r5, r1
	((Port *)hw)->Group[submodule_index].PINCFG[index].reg = tmp;
     560:	4666      	mov	r6, ip
     562:	559d      	strb	r5, [r3, r6]
	((Port *)hw)->Group[submodule_index].OUTCLR.reg = mask;
     564:	2580      	movs	r5, #128	; 0x80
     566:	042d      	lsls	r5, r5, #16
     568:	51d5      	str	r5, [r2, r7]
	((Port *)hw)->Group[submodule_index].DIRSET.reg = mask;
     56a:	4646      	mov	r6, r8
     56c:	5195      	str	r5, [r2, r6]
	((Port *)hw)->Group[submodule_index].WRCONFIG.reg = data;
     56e:	501c      	str	r4, [r3, r0]
     570:	4a12      	ldr	r2, [pc, #72]	; (5bc <system_init+0x128>)
     572:	501a      	str	r2, [r3, r0]
	tmp = ((Port *)hw)->Group[submodule_index].PINCFG[index].reg;
     574:	302f      	adds	r0, #47	; 0x2f
     576:	5c1a      	ldrb	r2, [r3, r0]
	tmp &= ~PORT_PINCFG_PMUXEN;
     578:	438a      	bics	r2, r1
	((Port *)hw)->Group[submodule_index].PINCFG[index].reg = tmp;
     57a:	541a      	strb	r2, [r3, r0]
	// Set pin direction to output
	gpio_set_pin_direction(led_2, GPIO_DIRECTION_OUT);

	gpio_set_pin_function(led_2, GPIO_PIN_FUNCTION_OFF);

	ADC_0_init();
     57c:	4b10      	ldr	r3, [pc, #64]	; (5c0 <system_init+0x12c>)
     57e:	4798      	blx	r3

	SPI_0_init();
     580:	4b10      	ldr	r3, [pc, #64]	; (5c4 <system_init+0x130>)
     582:	4798      	blx	r3
	USART_0_init();
     584:	4b10      	ldr	r3, [pc, #64]	; (5c8 <system_init+0x134>)
     586:	4798      	blx	r3
	CAN_0_init();
     588:	4b10      	ldr	r3, [pc, #64]	; (5cc <system_init+0x138>)
     58a:	4798      	blx	r3

	TEMPERATURE_SENSOR_0_init();
     58c:	4b10      	ldr	r3, [pc, #64]	; (5d0 <system_init+0x13c>)
     58e:	4798      	blx	r3
}
     590:	bc04      	pop	{r2}
     592:	4690      	mov	r8, r2
     594:	bdf0      	pop	{r4, r5, r6, r7, pc}
     596:	46c0      	nop			; (mov r8, r8)
     598:	00001195 	.word	0x00001195
     59c:	40000020 	.word	0x40000020
     5a0:	40000200 	.word	0x40000200
     5a4:	c0000800 	.word	0xc0000800
     5a8:	c0001000 	.word	0xc0001000
     5ac:	40020004 	.word	0x40020004
     5b0:	c0020000 	.word	0xc0020000
     5b4:	40020008 	.word	0x40020008
     5b8:	c0000040 	.word	0xc0000040
     5bc:	c0000080 	.word	0xc0000080
     5c0:	00000211 	.word	0x00000211
     5c4:	00000319 	.word	0x00000319
     5c8:	000003a1 	.word	0x000003a1
     5cc:	00000419 	.word	0x00000419
     5d0:	00000475 	.word	0x00000475

000005d4 <adc_sync_init>:
     5d4:	b570      	push	{r4, r5, r6, lr}
     5d6:	0004      	movs	r4, r0
     5d8:	000d      	movs	r5, r1
     5da:	2800      	cmp	r0, #0
     5dc:	d00c      	beq.n	5f8 <adc_sync_init+0x24>
     5de:	0008      	movs	r0, r1
     5e0:	1e43      	subs	r3, r0, #1
     5e2:	4198      	sbcs	r0, r3
     5e4:	b2c0      	uxtb	r0, r0
     5e6:	2239      	movs	r2, #57	; 0x39
     5e8:	4904      	ldr	r1, [pc, #16]	; (5fc <adc_sync_init+0x28>)
     5ea:	4b05      	ldr	r3, [pc, #20]	; (600 <adc_sync_init+0x2c>)
     5ec:	4798      	blx	r3
     5ee:	0029      	movs	r1, r5
     5f0:	0020      	movs	r0, r4
     5f2:	4b04      	ldr	r3, [pc, #16]	; (604 <adc_sync_init+0x30>)
     5f4:	4798      	blx	r3
     5f6:	bd70      	pop	{r4, r5, r6, pc}
     5f8:	2000      	movs	r0, #0
     5fa:	e7f4      	b.n	5e6 <adc_sync_init+0x12>
     5fc:	00005cb0 	.word	0x00005cb0
     600:	00000ccd 	.word	0x00000ccd
     604:	00000f4d 	.word	0x00000f4d

00000608 <adc_sync_enable_channel>:
     608:	b570      	push	{r4, r5, r6, lr}
     60a:	0004      	movs	r4, r0
     60c:	000d      	movs	r5, r1
     60e:	1e43      	subs	r3, r0, #1
     610:	4198      	sbcs	r0, r3
     612:	b2c0      	uxtb	r0, r0
     614:	224e      	movs	r2, #78	; 0x4e
     616:	4904      	ldr	r1, [pc, #16]	; (628 <adc_sync_enable_channel+0x20>)
     618:	4b04      	ldr	r3, [pc, #16]	; (62c <adc_sync_enable_channel+0x24>)
     61a:	4798      	blx	r3
     61c:	0029      	movs	r1, r5
     61e:	0020      	movs	r0, r4
     620:	4b03      	ldr	r3, [pc, #12]	; (630 <adc_sync_enable_channel+0x28>)
     622:	4798      	blx	r3
     624:	2000      	movs	r0, #0
     626:	bd70      	pop	{r4, r5, r6, pc}
     628:	00005cb0 	.word	0x00005cb0
     62c:	00000ccd 	.word	0x00000ccd
     630:	00000f85 	.word	0x00000f85

00000634 <adc_sync_read_channel>:
     634:	b5f0      	push	{r4, r5, r6, r7, lr}
     636:	46de      	mov	lr, fp
     638:	4657      	mov	r7, sl
     63a:	464e      	mov	r6, r9
     63c:	4645      	mov	r5, r8
     63e:	b5e0      	push	{r5, r6, r7, lr}
     640:	b083      	sub	sp, #12
     642:	0006      	movs	r6, r0
     644:	000d      	movs	r5, r1
     646:	4691      	mov	r9, r2
     648:	9301      	str	r3, [sp, #4]
     64a:	2800      	cmp	r0, #0
     64c:	d01e      	beq.n	68c <adc_sync_read_channel+0x58>
     64e:	2a00      	cmp	r2, #0
     650:	d01e      	beq.n	690 <adc_sync_read_channel+0x5c>
     652:	0018      	movs	r0, r3
     654:	1e43      	subs	r3, r0, #1
     656:	4198      	sbcs	r0, r3
     658:	2267      	movs	r2, #103	; 0x67
     65a:	491f      	ldr	r1, [pc, #124]	; (6d8 <adc_sync_read_channel+0xa4>)
     65c:	4f1f      	ldr	r7, [pc, #124]	; (6dc <adc_sync_read_channel+0xa8>)
     65e:	47b8      	blx	r7
     660:	0034      	movs	r4, r6
     662:	0030      	movs	r0, r6
     664:	4b1e      	ldr	r3, [pc, #120]	; (6e0 <adc_sync_read_channel+0xac>)
     666:	4798      	blx	r3
     668:	0001      	movs	r1, r0
     66a:	4680      	mov	r8, r0
     66c:	9801      	ldr	r0, [sp, #4]
     66e:	4b1d      	ldr	r3, [pc, #116]	; (6e4 <adc_sync_read_channel+0xb0>)
     670:	4798      	blx	r3
     672:	4248      	negs	r0, r1
     674:	4148      	adcs	r0, r1
     676:	b2c0      	uxtb	r0, r0
     678:	2269      	movs	r2, #105	; 0x69
     67a:	4917      	ldr	r1, [pc, #92]	; (6d8 <adc_sync_read_channel+0xa4>)
     67c:	47b8      	blx	r7
     67e:	2700      	movs	r7, #0
     680:	4b19      	ldr	r3, [pc, #100]	; (6e8 <adc_sync_read_channel+0xb4>)
     682:	469b      	mov	fp, r3
     684:	4e19      	ldr	r6, [pc, #100]	; (6ec <adc_sync_read_channel+0xb8>)
     686:	4b1a      	ldr	r3, [pc, #104]	; (6f0 <adc_sync_read_channel+0xbc>)
     688:	469a      	mov	sl, r3
     68a:	e008      	b.n	69e <adc_sync_read_channel+0x6a>
     68c:	2000      	movs	r0, #0
     68e:	e7e3      	b.n	658 <adc_sync_read_channel+0x24>
     690:	2000      	movs	r0, #0
     692:	e7e1      	b.n	658 <adc_sync_read_channel+0x24>
     694:	4447      	add	r7, r8
     696:	b2bf      	uxth	r7, r7
     698:	9b01      	ldr	r3, [sp, #4]
     69a:	42bb      	cmp	r3, r7
     69c:	d913      	bls.n	6c6 <adc_sync_read_channel+0x92>
     69e:	0020      	movs	r0, r4
     6a0:	47d8      	blx	fp
     6a2:	0029      	movs	r1, r5
     6a4:	0020      	movs	r0, r4
     6a6:	47b0      	blx	r6
     6a8:	2800      	cmp	r0, #0
     6aa:	d0fa      	beq.n	6a2 <adc_sync_read_channel+0x6e>
     6ac:	0029      	movs	r1, r5
     6ae:	0020      	movs	r0, r4
     6b0:	47d0      	blx	sl
     6b2:	464b      	mov	r3, r9
     6b4:	55d8      	strb	r0, [r3, r7]
     6b6:	4643      	mov	r3, r8
     6b8:	2b01      	cmp	r3, #1
     6ba:	d9eb      	bls.n	694 <adc_sync_read_channel+0x60>
     6bc:	464b      	mov	r3, r9
     6be:	19db      	adds	r3, r3, r7
     6c0:	0a00      	lsrs	r0, r0, #8
     6c2:	7058      	strb	r0, [r3, #1]
     6c4:	e7e6      	b.n	694 <adc_sync_read_channel+0x60>
     6c6:	0038      	movs	r0, r7
     6c8:	b003      	add	sp, #12
     6ca:	bc3c      	pop	{r2, r3, r4, r5}
     6cc:	4690      	mov	r8, r2
     6ce:	4699      	mov	r9, r3
     6d0:	46a2      	mov	sl, r4
     6d2:	46ab      	mov	fp, r5
     6d4:	bdf0      	pop	{r4, r5, r6, r7, pc}
     6d6:	46c0      	nop			; (mov r8, r8)
     6d8:	00005cb0 	.word	0x00005cb0
     6dc:	00000ccd 	.word	0x00000ccd
     6e0:	00000f99 	.word	0x00000f99
     6e4:	0000124d 	.word	0x0000124d
     6e8:	00000fb5 	.word	0x00000fb5
     6ec:	00000fab 	.word	0x00000fab
     6f0:	00000fc7 	.word	0x00000fc7

000006f4 <atomic_enter_critical>:
 */
__STATIC_FORCEINLINE uint32_t __get_PRIMASK(void)
{
  uint32_t result;

  __ASM volatile ("MRS %0, primask" : "=r" (result) :: "memory");
     6f4:	f3ef 8310 	mrs	r3, PRIMASK
     6f8:	6003      	str	r3, [r0, #0]
  __ASM volatile ("cpsid i" : : : "memory");
     6fa:	b672      	cpsid	i
  \details Ensures the apparent order of the explicit memory operations before
           and after the instruction, without ensuring their completion.
 */
__STATIC_FORCEINLINE void __DMB(void)
{
  __ASM volatile ("dmb 0xF":::"memory");
     6fc:	f3bf 8f5f 	dmb	sy
     700:	4770      	bx	lr

00000702 <atomic_leave_critical>:
     702:	f3bf 8f5f 	dmb	sy
     706:	6803      	ldr	r3, [r0, #0]
  __ASM volatile ("MSR primask, %0" : : "r" (priMask) : "memory");
     708:	f383 8810 	msr	PRIMASK, r3
     70c:	4770      	bx	lr

0000070e <can_tx_done>:
     70e:	b510      	push	{r4, lr}
     710:	69c3      	ldr	r3, [r0, #28]
     712:	2b00      	cmp	r3, #0
     714:	d000      	beq.n	718 <can_tx_done+0xa>
     716:	4798      	blx	r3
     718:	bd10      	pop	{r4, pc}

0000071a <can_rx_done>:
     71a:	b510      	push	{r4, lr}
     71c:	6a03      	ldr	r3, [r0, #32]
     71e:	2b00      	cmp	r3, #0
     720:	d000      	beq.n	724 <can_rx_done+0xa>
     722:	4798      	blx	r3
     724:	bd10      	pop	{r4, pc}

00000726 <can_irq_handler>:
     726:	b510      	push	{r4, lr}
     728:	6a43      	ldr	r3, [r0, #36]	; 0x24
     72a:	2b00      	cmp	r3, #0
     72c:	d000      	beq.n	730 <can_irq_handler+0xa>
     72e:	4798      	blx	r3
     730:	bd10      	pop	{r4, pc}
	...

00000734 <can_async_init>:
     734:	b570      	push	{r4, r5, r6, lr}
     736:	0005      	movs	r5, r0
     738:	000c      	movs	r4, r1
     73a:	2800      	cmp	r0, #0
     73c:	d014      	beq.n	768 <can_async_init+0x34>
     73e:	0008      	movs	r0, r1
     740:	1e43      	subs	r3, r0, #1
     742:	4198      	sbcs	r0, r3
     744:	b2c0      	uxtb	r0, r0
     746:	2241      	movs	r2, #65	; 0x41
     748:	4908      	ldr	r1, [pc, #32]	; (76c <can_async_init+0x38>)
     74a:	4b09      	ldr	r3, [pc, #36]	; (770 <can_async_init+0x3c>)
     74c:	4798      	blx	r3
     74e:	0021      	movs	r1, r4
     750:	0028      	movs	r0, r5
     752:	4b08      	ldr	r3, [pc, #32]	; (774 <can_async_init+0x40>)
     754:	4798      	blx	r3
     756:	2800      	cmp	r0, #0
     758:	d105      	bne.n	766 <can_async_init+0x32>
     75a:	4b07      	ldr	r3, [pc, #28]	; (778 <can_async_init+0x44>)
     75c:	606b      	str	r3, [r5, #4]
     75e:	4b07      	ldr	r3, [pc, #28]	; (77c <can_async_init+0x48>)
     760:	60ab      	str	r3, [r5, #8]
     762:	4b07      	ldr	r3, [pc, #28]	; (780 <can_async_init+0x4c>)
     764:	60eb      	str	r3, [r5, #12]
     766:	bd70      	pop	{r4, r5, r6, pc}
     768:	2000      	movs	r0, #0
     76a:	e7ec      	b.n	746 <can_async_init+0x12>
     76c:	00005ccc 	.word	0x00005ccc
     770:	00000ccd 	.word	0x00000ccd
     774:	00000fd5 	.word	0x00000fd5
     778:	0000070f 	.word	0x0000070f
     77c:	0000071b 	.word	0x0000071b
     780:	00000727 	.word	0x00000727

00000784 <delay_us>:
     784:	b510      	push	{r4, lr}
     786:	4b04      	ldr	r3, [pc, #16]	; (798 <delay_us+0x14>)
     788:	681c      	ldr	r4, [r3, #0]
     78a:	4b04      	ldr	r3, [pc, #16]	; (79c <delay_us+0x18>)
     78c:	4798      	blx	r3
     78e:	0001      	movs	r1, r0
     790:	0020      	movs	r0, r4
     792:	4b03      	ldr	r3, [pc, #12]	; (7a0 <delay_us+0x1c>)
     794:	4798      	blx	r3
     796:	bd10      	pop	{r4, pc}
     798:	2000018c 	.word	0x2000018c
     79c:	00001151 	.word	0x00001151
     7a0:	0000118d 	.word	0x0000118d

000007a4 <delay_ms>:
     7a4:	b510      	push	{r4, lr}
     7a6:	4b04      	ldr	r3, [pc, #16]	; (7b8 <delay_ms+0x14>)
     7a8:	681c      	ldr	r4, [r3, #0]
     7aa:	4b04      	ldr	r3, [pc, #16]	; (7bc <delay_ms+0x18>)
     7ac:	4798      	blx	r3
     7ae:	0001      	movs	r1, r0
     7b0:	0020      	movs	r0, r4
     7b2:	4b03      	ldr	r3, [pc, #12]	; (7c0 <delay_ms+0x1c>)
     7b4:	4798      	blx	r3
     7b6:	bd10      	pop	{r4, pc}
     7b8:	2000018c 	.word	0x2000018c
     7bc:	0000116d 	.word	0x0000116d
     7c0:	0000118d 	.word	0x0000118d

000007c4 <io_write>:
     7c4:	b570      	push	{r4, r5, r6, lr}
     7c6:	0006      	movs	r6, r0
     7c8:	000c      	movs	r4, r1
     7ca:	0015      	movs	r5, r2
     7cc:	2800      	cmp	r0, #0
     7ce:	d00d      	beq.n	7ec <io_write+0x28>
     7d0:	0008      	movs	r0, r1
     7d2:	1e43      	subs	r3, r0, #1
     7d4:	4198      	sbcs	r0, r3
     7d6:	b2c0      	uxtb	r0, r0
     7d8:	2234      	movs	r2, #52	; 0x34
     7da:	4905      	ldr	r1, [pc, #20]	; (7f0 <io_write+0x2c>)
     7dc:	4b05      	ldr	r3, [pc, #20]	; (7f4 <io_write+0x30>)
     7de:	4798      	blx	r3
     7e0:	6833      	ldr	r3, [r6, #0]
     7e2:	002a      	movs	r2, r5
     7e4:	0021      	movs	r1, r4
     7e6:	0030      	movs	r0, r6
     7e8:	4798      	blx	r3
     7ea:	bd70      	pop	{r4, r5, r6, pc}
     7ec:	2000      	movs	r0, #0
     7ee:	e7f3      	b.n	7d8 <io_write+0x14>
     7f0:	00005ce8 	.word	0x00005ce8
     7f4:	00000ccd 	.word	0x00000ccd

000007f8 <io_read>:
     7f8:	b570      	push	{r4, r5, r6, lr}
     7fa:	0006      	movs	r6, r0
     7fc:	000c      	movs	r4, r1
     7fe:	0015      	movs	r5, r2
     800:	2800      	cmp	r0, #0
     802:	d00d      	beq.n	820 <io_read+0x28>
     804:	0008      	movs	r0, r1
     806:	1e43      	subs	r3, r0, #1
     808:	4198      	sbcs	r0, r3
     80a:	b2c0      	uxtb	r0, r0
     80c:	223d      	movs	r2, #61	; 0x3d
     80e:	4905      	ldr	r1, [pc, #20]	; (824 <io_read+0x2c>)
     810:	4b05      	ldr	r3, [pc, #20]	; (828 <io_read+0x30>)
     812:	4798      	blx	r3
     814:	6873      	ldr	r3, [r6, #4]
     816:	002a      	movs	r2, r5
     818:	0021      	movs	r1, r4
     81a:	0030      	movs	r0, r6
     81c:	4798      	blx	r3
     81e:	bd70      	pop	{r4, r5, r6, pc}
     820:	2000      	movs	r0, #0
     822:	e7f3      	b.n	80c <io_read+0x14>
     824:	00005ce8 	.word	0x00005ce8
     828:	00000ccd 	.word	0x00000ccd

0000082c <spi_m_sync_init>:
     82c:	b570      	push	{r4, r5, r6, lr}
     82e:	0004      	movs	r4, r0
     830:	000d      	movs	r5, r1
     832:	2800      	cmp	r0, #0
     834:	d016      	beq.n	864 <spi_m_sync_init+0x38>
     836:	0008      	movs	r0, r1
     838:	1e43      	subs	r3, r0, #1
     83a:	4198      	sbcs	r0, r3
     83c:	b2c0      	uxtb	r0, r0
     83e:	2240      	movs	r2, #64	; 0x40
     840:	4909      	ldr	r1, [pc, #36]	; (868 <spi_m_sync_init+0x3c>)
     842:	4b0a      	ldr	r3, [pc, #40]	; (86c <spi_m_sync_init+0x40>)
     844:	4798      	blx	r3
     846:	6065      	str	r5, [r4, #4]
     848:	1d20      	adds	r0, r4, #4
     84a:	0029      	movs	r1, r5
     84c:	4b08      	ldr	r3, [pc, #32]	; (870 <spi_m_sync_init+0x44>)
     84e:	4798      	blx	r3
     850:	2800      	cmp	r0, #0
     852:	db06      	blt.n	862 <spi_m_sync_init+0x36>
     854:	4b07      	ldr	r3, [pc, #28]	; (874 <spi_m_sync_init+0x48>)
     856:	82a3      	strh	r3, [r4, #20]
     858:	4b07      	ldr	r3, [pc, #28]	; (878 <spi_m_sync_init+0x4c>)
     85a:	6123      	str	r3, [r4, #16]
     85c:	4b07      	ldr	r3, [pc, #28]	; (87c <spi_m_sync_init+0x50>)
     85e:	60e3      	str	r3, [r4, #12]
     860:	2000      	movs	r0, #0
     862:	bd70      	pop	{r4, r5, r6, pc}
     864:	2000      	movs	r0, #0
     866:	e7ea      	b.n	83e <spi_m_sync_init+0x12>
     868:	00005cfc 	.word	0x00005cfc
     86c:	00000ccd 	.word	0x00000ccd
     870:	000015a5 	.word	0x000015a5
     874:	ffff8000 	.word	0xffff8000
     878:	0000092d 	.word	0x0000092d
     87c:	000008f1 	.word	0x000008f1

00000880 <spi_m_sync_enable>:
     880:	b510      	push	{r4, lr}
     882:	0004      	movs	r4, r0
     884:	1e43      	subs	r3, r0, #1
     886:	4198      	sbcs	r0, r3
     888:	b2c0      	uxtb	r0, r0
     88a:	2257      	movs	r2, #87	; 0x57
     88c:	4903      	ldr	r1, [pc, #12]	; (89c <spi_m_sync_enable+0x1c>)
     88e:	4b04      	ldr	r3, [pc, #16]	; (8a0 <spi_m_sync_enable+0x20>)
     890:	4798      	blx	r3
     892:	1d20      	adds	r0, r4, #4
     894:	4b03      	ldr	r3, [pc, #12]	; (8a4 <spi_m_sync_enable+0x24>)
     896:	4798      	blx	r3
     898:	bd10      	pop	{r4, pc}
     89a:	46c0      	nop			; (mov r8, r8)
     89c:	00005cfc 	.word	0x00005cfc
     8a0:	00000ccd 	.word	0x00000ccd
     8a4:	0000169d 	.word	0x0000169d

000008a8 <spi_m_sync_transfer>:
     8a8:	b530      	push	{r4, r5, lr}
     8aa:	b087      	sub	sp, #28
     8ac:	0004      	movs	r4, r0
     8ae:	000d      	movs	r5, r1
     8b0:	2800      	cmp	r0, #0
     8b2:	d014      	beq.n	8de <spi_m_sync_transfer+0x36>
     8b4:	0008      	movs	r0, r1
     8b6:	1e43      	subs	r3, r0, #1
     8b8:	4198      	sbcs	r0, r3
     8ba:	b2c0      	uxtb	r0, r0
     8bc:	22b3      	movs	r2, #179	; 0xb3
     8be:	4909      	ldr	r1, [pc, #36]	; (8e4 <spi_m_sync_transfer+0x3c>)
     8c0:	4b09      	ldr	r3, [pc, #36]	; (8e8 <spi_m_sync_transfer+0x40>)
     8c2:	4798      	blx	r3
     8c4:	682b      	ldr	r3, [r5, #0]
     8c6:	9303      	str	r3, [sp, #12]
     8c8:	686b      	ldr	r3, [r5, #4]
     8ca:	9304      	str	r3, [sp, #16]
     8cc:	68ab      	ldr	r3, [r5, #8]
     8ce:	9301      	str	r3, [sp, #4]
     8d0:	9305      	str	r3, [sp, #20]
     8d2:	1d20      	adds	r0, r4, #4
     8d4:	a903      	add	r1, sp, #12
     8d6:	4b05      	ldr	r3, [pc, #20]	; (8ec <spi_m_sync_transfer+0x44>)
     8d8:	4798      	blx	r3
     8da:	b007      	add	sp, #28
     8dc:	bd30      	pop	{r4, r5, pc}
     8de:	2000      	movs	r0, #0
     8e0:	e7ec      	b.n	8bc <spi_m_sync_transfer+0x14>
     8e2:	46c0      	nop			; (mov r8, r8)
     8e4:	00005cfc 	.word	0x00005cfc
     8e8:	00000ccd 	.word	0x00000ccd
     8ec:	000016d1 	.word	0x000016d1

000008f0 <_spi_m_sync_io_write>:
     8f0:	b570      	push	{r4, r5, r6, lr}
     8f2:	b084      	sub	sp, #16
     8f4:	0004      	movs	r4, r0
     8f6:	000e      	movs	r6, r1
     8f8:	0015      	movs	r5, r2
     8fa:	1e43      	subs	r3, r0, #1
     8fc:	4198      	sbcs	r0, r3
     8fe:	b2c0      	uxtb	r0, r0
     900:	22a3      	movs	r2, #163	; 0xa3
     902:	4907      	ldr	r1, [pc, #28]	; (920 <_spi_m_sync_io_write+0x30>)
     904:	4b07      	ldr	r3, [pc, #28]	; (924 <_spi_m_sync_io_write+0x34>)
     906:	4798      	blx	r3
     908:	2300      	movs	r3, #0
     90a:	9302      	str	r3, [sp, #8]
     90c:	9601      	str	r6, [sp, #4]
     90e:	9503      	str	r5, [sp, #12]
     910:	0020      	movs	r0, r4
     912:	380c      	subs	r0, #12
     914:	a901      	add	r1, sp, #4
     916:	4b04      	ldr	r3, [pc, #16]	; (928 <_spi_m_sync_io_write+0x38>)
     918:	4798      	blx	r3
     91a:	b004      	add	sp, #16
     91c:	bd70      	pop	{r4, r5, r6, pc}
     91e:	46c0      	nop			; (mov r8, r8)
     920:	00005cfc 	.word	0x00005cfc
     924:	00000ccd 	.word	0x00000ccd
     928:	000008a9 	.word	0x000008a9

0000092c <_spi_m_sync_io_read>:
     92c:	b570      	push	{r4, r5, r6, lr}
     92e:	b084      	sub	sp, #16
     930:	0004      	movs	r4, r0
     932:	000e      	movs	r6, r1
     934:	0015      	movs	r5, r2
     936:	1e43      	subs	r3, r0, #1
     938:	4198      	sbcs	r0, r3
     93a:	b2c0      	uxtb	r0, r0
     93c:	2287      	movs	r2, #135	; 0x87
     93e:	4907      	ldr	r1, [pc, #28]	; (95c <_spi_m_sync_io_read+0x30>)
     940:	4b07      	ldr	r3, [pc, #28]	; (960 <_spi_m_sync_io_read+0x34>)
     942:	4798      	blx	r3
     944:	9602      	str	r6, [sp, #8]
     946:	2300      	movs	r3, #0
     948:	9301      	str	r3, [sp, #4]
     94a:	9503      	str	r5, [sp, #12]
     94c:	0020      	movs	r0, r4
     94e:	380c      	subs	r0, #12
     950:	a901      	add	r1, sp, #4
     952:	4b04      	ldr	r3, [pc, #16]	; (964 <_spi_m_sync_io_read+0x38>)
     954:	4798      	blx	r3
     956:	b004      	add	sp, #16
     958:	bd70      	pop	{r4, r5, r6, pc}
     95a:	46c0      	nop			; (mov r8, r8)
     95c:	00005cfc 	.word	0x00005cfc
     960:	00000ccd 	.word	0x00000ccd
     964:	000008a9 	.word	0x000008a9

00000968 <spi_m_sync_get_io_descriptor>:
     968:	b570      	push	{r4, r5, r6, lr}
     96a:	0004      	movs	r4, r0
     96c:	000d      	movs	r5, r1
     96e:	2800      	cmp	r0, #0
     970:	d00b      	beq.n	98a <spi_m_sync_get_io_descriptor+0x22>
     972:	0008      	movs	r0, r1
     974:	1e43      	subs	r3, r0, #1
     976:	4198      	sbcs	r0, r3
     978:	b2c0      	uxtb	r0, r0
     97a:	22bd      	movs	r2, #189	; 0xbd
     97c:	4904      	ldr	r1, [pc, #16]	; (990 <spi_m_sync_get_io_descriptor+0x28>)
     97e:	4b05      	ldr	r3, [pc, #20]	; (994 <spi_m_sync_get_io_descriptor+0x2c>)
     980:	4798      	blx	r3
     982:	340c      	adds	r4, #12
     984:	602c      	str	r4, [r5, #0]
     986:	2000      	movs	r0, #0
     988:	bd70      	pop	{r4, r5, r6, pc}
     98a:	2000      	movs	r0, #0
     98c:	e7f5      	b.n	97a <spi_m_sync_get_io_descriptor+0x12>
     98e:	46c0      	nop			; (mov r8, r8)
     990:	00005cfc 	.word	0x00005cfc
     994:	00000ccd 	.word	0x00000ccd

00000998 <temp_sync_init>:
     998:	b570      	push	{r4, r5, r6, lr}
     99a:	0004      	movs	r4, r0
     99c:	000d      	movs	r5, r1
     99e:	2800      	cmp	r0, #0
     9a0:	d00c      	beq.n	9bc <temp_sync_init+0x24>
     9a2:	0008      	movs	r0, r1
     9a4:	1e43      	subs	r3, r0, #1
     9a6:	4198      	sbcs	r0, r3
     9a8:	b2c0      	uxtb	r0, r0
     9aa:	222b      	movs	r2, #43	; 0x2b
     9ac:	4904      	ldr	r1, [pc, #16]	; (9c0 <temp_sync_init+0x28>)
     9ae:	4b05      	ldr	r3, [pc, #20]	; (9c4 <temp_sync_init+0x2c>)
     9b0:	4798      	blx	r3
     9b2:	0029      	movs	r1, r5
     9b4:	0020      	movs	r0, r4
     9b6:	4b04      	ldr	r3, [pc, #16]	; (9c8 <temp_sync_init+0x30>)
     9b8:	4798      	blx	r3
     9ba:	bd70      	pop	{r4, r5, r6, pc}
     9bc:	2000      	movs	r0, #0
     9be:	e7f4      	b.n	9aa <temp_sync_init+0x12>
     9c0:	00005d18 	.word	0x00005d18
     9c4:	00000ccd 	.word	0x00000ccd
     9c8:	000017e1 	.word	0x000017e1

000009cc <usart_transmission_complete>:
     9cc:	b510      	push	{r4, lr}
     9ce:	3808      	subs	r0, #8
     9d0:	2300      	movs	r3, #0
     9d2:	6303      	str	r3, [r0, #48]	; 0x30
     9d4:	6a43      	ldr	r3, [r0, #36]	; 0x24
     9d6:	2b00      	cmp	r3, #0
     9d8:	d000      	beq.n	9dc <usart_transmission_complete+0x10>
     9da:	4798      	blx	r3
     9dc:	bd10      	pop	{r4, pc}

000009de <usart_error>:
     9de:	b510      	push	{r4, lr}
     9e0:	3808      	subs	r0, #8
     9e2:	2300      	movs	r3, #0
     9e4:	6303      	str	r3, [r0, #48]	; 0x30
     9e6:	6ac3      	ldr	r3, [r0, #44]	; 0x2c
     9e8:	2b00      	cmp	r3, #0
     9ea:	d000      	beq.n	9ee <usart_error+0x10>
     9ec:	4798      	blx	r3
     9ee:	bd10      	pop	{r4, pc}

000009f0 <usart_fill_rx_buffer>:
     9f0:	b510      	push	{r4, lr}
     9f2:	0004      	movs	r4, r0
     9f4:	302c      	adds	r0, #44	; 0x2c
     9f6:	4b04      	ldr	r3, [pc, #16]	; (a08 <usart_fill_rx_buffer+0x18>)
     9f8:	4798      	blx	r3
     9fa:	6a23      	ldr	r3, [r4, #32]
     9fc:	3c08      	subs	r4, #8
     9fe:	2b00      	cmp	r3, #0
     a00:	d001      	beq.n	a06 <usart_fill_rx_buffer+0x16>
     a02:	0020      	movs	r0, r4
     a04:	4798      	blx	r3
     a06:	bd10      	pop	{r4, pc}
     a08:	00000d71 	.word	0x00000d71

00000a0c <usart_async_write>:
     a0c:	b570      	push	{r4, r5, r6, lr}
     a0e:	0004      	movs	r4, r0
     a10:	000e      	movs	r6, r1
     a12:	0015      	movs	r5, r2
     a14:	2800      	cmp	r0, #0
     a16:	d01d      	beq.n	a54 <usart_async_write+0x48>
     a18:	2900      	cmp	r1, #0
     a1a:	d01d      	beq.n	a58 <usart_async_write+0x4c>
     a1c:	0010      	movs	r0, r2
     a1e:	1e43      	subs	r3, r0, #1
     a20:	4198      	sbcs	r0, r3
     a22:	223c      	movs	r2, #60	; 0x3c
     a24:	32ff      	adds	r2, #255	; 0xff
     a26:	490f      	ldr	r1, [pc, #60]	; (a64 <usart_async_write+0x58>)
     a28:	4b0f      	ldr	r3, [pc, #60]	; (a68 <usart_async_write+0x5c>)
     a2a:	4798      	blx	r3
     a2c:	2344      	movs	r3, #68	; 0x44
     a2e:	5ae2      	ldrh	r2, [r4, r3]
     a30:	3308      	adds	r3, #8
     a32:	5ae3      	ldrh	r3, [r4, r3]
     a34:	429a      	cmp	r2, r3
     a36:	d111      	bne.n	a5c <usart_async_write+0x50>
     a38:	64a6      	str	r6, [r4, #72]	; 0x48
     a3a:	234c      	movs	r3, #76	; 0x4c
     a3c:	52e5      	strh	r5, [r4, r3]
     a3e:	2200      	movs	r2, #0
     a40:	3b08      	subs	r3, #8
     a42:	52e2      	strh	r2, [r4, r3]
     a44:	3b43      	subs	r3, #67	; 0x43
     a46:	6323      	str	r3, [r4, #48]	; 0x30
     a48:	0020      	movs	r0, r4
     a4a:	3008      	adds	r0, #8
     a4c:	4b07      	ldr	r3, [pc, #28]	; (a6c <usart_async_write+0x60>)
     a4e:	4798      	blx	r3
     a50:	0028      	movs	r0, r5
     a52:	bd70      	pop	{r4, r5, r6, pc}
     a54:	2000      	movs	r0, #0
     a56:	e7e4      	b.n	a22 <usart_async_write+0x16>
     a58:	2000      	movs	r0, #0
     a5a:	e7e2      	b.n	a22 <usart_async_write+0x16>
     a5c:	201c      	movs	r0, #28
     a5e:	4240      	negs	r0, r0
     a60:	e7f7      	b.n	a52 <usart_async_write+0x46>
     a62:	46c0      	nop			; (mov r8, r8)
     a64:	00005d34 	.word	0x00005d34
     a68:	00000ccd 	.word	0x00000ccd
     a6c:	000014b5 	.word	0x000014b5

00000a70 <usart_process_byte_sent>:
     a70:	b570      	push	{r4, r5, r6, lr}
     a72:	0004      	movs	r4, r0
     a74:	0001      	movs	r1, r0
     a76:	3908      	subs	r1, #8
     a78:	8f83      	ldrh	r3, [r0, #60]	; 0x3c
     a7a:	224c      	movs	r2, #76	; 0x4c
     a7c:	5a8a      	ldrh	r2, [r1, r2]
     a7e:	429a      	cmp	r2, r3
     a80:	d00c      	beq.n	a9c <usart_process_byte_sent+0x2c>
     a82:	000a      	movs	r2, r1
     a84:	6c89      	ldr	r1, [r1, #72]	; 0x48
     a86:	1c5d      	adds	r5, r3, #1
     a88:	2044      	movs	r0, #68	; 0x44
     a8a:	5215      	strh	r5, [r2, r0]
     a8c:	5cc9      	ldrb	r1, [r1, r3]
     a8e:	0020      	movs	r0, r4
     a90:	4b04      	ldr	r3, [pc, #16]	; (aa4 <usart_process_byte_sent+0x34>)
     a92:	4798      	blx	r3
     a94:	0020      	movs	r0, r4
     a96:	4b04      	ldr	r3, [pc, #16]	; (aa8 <usart_process_byte_sent+0x38>)
     a98:	4798      	blx	r3
     a9a:	bd70      	pop	{r4, r5, r6, pc}
     a9c:	4b03      	ldr	r3, [pc, #12]	; (aac <usart_process_byte_sent+0x3c>)
     a9e:	4798      	blx	r3
     aa0:	e7fb      	b.n	a9a <usart_process_byte_sent+0x2a>
     aa2:	46c0      	nop			; (mov r8, r8)
     aa4:	000014ad 	.word	0x000014ad
     aa8:	000014b5 	.word	0x000014b5
     aac:	000014bd 	.word	0x000014bd

00000ab0 <usart_async_read>:
     ab0:	b5f0      	push	{r4, r5, r6, r7, lr}
     ab2:	46ce      	mov	lr, r9
     ab4:	4647      	mov	r7, r8
     ab6:	b580      	push	{r7, lr}
     ab8:	b085      	sub	sp, #20
     aba:	0005      	movs	r5, r0
     abc:	000e      	movs	r6, r1
     abe:	0017      	movs	r7, r2
     ac0:	2800      	cmp	r0, #0
     ac2:	d015      	beq.n	af0 <usart_async_read+0x40>
     ac4:	2900      	cmp	r1, #0
     ac6:	d013      	beq.n	af0 <usart_async_read+0x40>
     ac8:	2a00      	cmp	r2, #0
     aca:	d12a      	bne.n	b22 <usart_async_read+0x72>
     acc:	22ac      	movs	r2, #172	; 0xac
     ace:	0052      	lsls	r2, r2, #1
     ad0:	4929      	ldr	r1, [pc, #164]	; (b78 <usart_async_read+0xc8>)
     ad2:	2000      	movs	r0, #0
     ad4:	4b29      	ldr	r3, [pc, #164]	; (b7c <usart_async_read+0xcc>)
     ad6:	4798      	blx	r3
     ad8:	a803      	add	r0, sp, #12
     ada:	4b29      	ldr	r3, [pc, #164]	; (b80 <usart_async_read+0xd0>)
     adc:	4798      	blx	r3
     ade:	0028      	movs	r0, r5
     ae0:	3034      	adds	r0, #52	; 0x34
     ae2:	4b28      	ldr	r3, [pc, #160]	; (b84 <usart_async_read+0xd4>)
     ae4:	4798      	blx	r3
     ae6:	a803      	add	r0, sp, #12
     ae8:	4b27      	ldr	r3, [pc, #156]	; (b88 <usart_async_read+0xd8>)
     aea:	4798      	blx	r3
     aec:	2500      	movs	r5, #0
     aee:	e03c      	b.n	b6a <usart_async_read+0xba>
     af0:	22ac      	movs	r2, #172	; 0xac
     af2:	0052      	lsls	r2, r2, #1
     af4:	4920      	ldr	r1, [pc, #128]	; (b78 <usart_async_read+0xc8>)
     af6:	2000      	movs	r0, #0
     af8:	4b20      	ldr	r3, [pc, #128]	; (b7c <usart_async_read+0xcc>)
     afa:	4798      	blx	r3
     afc:	a803      	add	r0, sp, #12
     afe:	4b20      	ldr	r3, [pc, #128]	; (b80 <usart_async_read+0xd0>)
     b00:	4798      	blx	r3
     b02:	3534      	adds	r5, #52	; 0x34
     b04:	0028      	movs	r0, r5
     b06:	9501      	str	r5, [sp, #4]
     b08:	4b1e      	ldr	r3, [pc, #120]	; (b84 <usart_async_read+0xd4>)
     b0a:	4798      	blx	r3
     b0c:	4680      	mov	r8, r0
     b0e:	a803      	add	r0, sp, #12
     b10:	4b1d      	ldr	r3, [pc, #116]	; (b88 <usart_async_read+0xd8>)
     b12:	4798      	blx	r3
     b14:	2500      	movs	r5, #0
     b16:	4643      	mov	r3, r8
     b18:	2b00      	cmp	r3, #0
     b1a:	d026      	beq.n	b6a <usart_async_read+0xba>
     b1c:	2f00      	cmp	r7, #0
     b1e:	d116      	bne.n	b4e <usart_async_read+0x9e>
     b20:	e023      	b.n	b6a <usart_async_read+0xba>
     b22:	22ac      	movs	r2, #172	; 0xac
     b24:	0052      	lsls	r2, r2, #1
     b26:	4914      	ldr	r1, [pc, #80]	; (b78 <usart_async_read+0xc8>)
     b28:	2001      	movs	r0, #1
     b2a:	4b14      	ldr	r3, [pc, #80]	; (b7c <usart_async_read+0xcc>)
     b2c:	4798      	blx	r3
     b2e:	a803      	add	r0, sp, #12
     b30:	4b13      	ldr	r3, [pc, #76]	; (b80 <usart_async_read+0xd0>)
     b32:	4798      	blx	r3
     b34:	3534      	adds	r5, #52	; 0x34
     b36:	0028      	movs	r0, r5
     b38:	9501      	str	r5, [sp, #4]
     b3a:	4b12      	ldr	r3, [pc, #72]	; (b84 <usart_async_read+0xd4>)
     b3c:	4798      	blx	r3
     b3e:	4680      	mov	r8, r0
     b40:	a803      	add	r0, sp, #12
     b42:	4b11      	ldr	r3, [pc, #68]	; (b88 <usart_async_read+0xd8>)
     b44:	4798      	blx	r3
     b46:	4643      	mov	r3, r8
     b48:	2500      	movs	r5, #0
     b4a:	2b00      	cmp	r3, #0
     b4c:	d00d      	beq.n	b6a <usart_async_read+0xba>
     b4e:	2400      	movs	r4, #0
     b50:	4b0e      	ldr	r3, [pc, #56]	; (b8c <usart_async_read+0xdc>)
     b52:	4699      	mov	r9, r3
     b54:	1c65      	adds	r5, r4, #1
     b56:	b2ad      	uxth	r5, r5
     b58:	1931      	adds	r1, r6, r4
     b5a:	9801      	ldr	r0, [sp, #4]
     b5c:	47c8      	blx	r9
     b5e:	3401      	adds	r4, #1
     b60:	4544      	cmp	r4, r8
     b62:	d202      	bcs.n	b6a <usart_async_read+0xba>
     b64:	b2a3      	uxth	r3, r4
     b66:	429f      	cmp	r7, r3
     b68:	d8f4      	bhi.n	b54 <usart_async_read+0xa4>
     b6a:	0028      	movs	r0, r5
     b6c:	b005      	add	sp, #20
     b6e:	bc0c      	pop	{r2, r3}
     b70:	4690      	mov	r8, r2
     b72:	4699      	mov	r9, r3
     b74:	bdf0      	pop	{r4, r5, r6, r7, pc}
     b76:	46c0      	nop			; (mov r8, r8)
     b78:	00005d34 	.word	0x00005d34
     b7c:	00000ccd 	.word	0x00000ccd
     b80:	000006f5 	.word	0x000006f5
     b84:	00000db1 	.word	0x00000db1
     b88:	00000703 	.word	0x00000703
     b8c:	00000d29 	.word	0x00000d29

00000b90 <usart_async_init>:
     b90:	b5f8      	push	{r3, r4, r5, r6, r7, lr}
     b92:	0004      	movs	r4, r0
     b94:	000d      	movs	r5, r1
     b96:	0016      	movs	r6, r2
     b98:	001f      	movs	r7, r3
     b9a:	2800      	cmp	r0, #0
     b9c:	d026      	beq.n	bec <usart_async_init+0x5c>
     b9e:	2900      	cmp	r1, #0
     ba0:	d026      	beq.n	bf0 <usart_async_init+0x60>
     ba2:	2a00      	cmp	r2, #0
     ba4:	d026      	beq.n	bf4 <usart_async_init+0x64>
     ba6:	0018      	movs	r0, r3
     ba8:	1e43      	subs	r3, r0, #1
     baa:	4198      	sbcs	r0, r3
     bac:	223a      	movs	r2, #58	; 0x3a
     bae:	4914      	ldr	r1, [pc, #80]	; (c00 <usart_async_init+0x70>)
     bb0:	4b14      	ldr	r3, [pc, #80]	; (c04 <usart_async_init+0x74>)
     bb2:	4798      	blx	r3
     bb4:	0020      	movs	r0, r4
     bb6:	3034      	adds	r0, #52	; 0x34
     bb8:	003a      	movs	r2, r7
     bba:	0031      	movs	r1, r6
     bbc:	4b12      	ldr	r3, [pc, #72]	; (c08 <usart_async_init+0x78>)
     bbe:	4798      	blx	r3
     bc0:	2800      	cmp	r0, #0
     bc2:	d119      	bne.n	bf8 <usart_async_init+0x68>
     bc4:	0020      	movs	r0, r4
     bc6:	3008      	adds	r0, #8
     bc8:	0029      	movs	r1, r5
     bca:	4b10      	ldr	r3, [pc, #64]	; (c0c <usart_async_init+0x7c>)
     bcc:	4798      	blx	r3
     bce:	2800      	cmp	r0, #0
     bd0:	d10b      	bne.n	bea <usart_async_init+0x5a>
     bd2:	4b0f      	ldr	r3, [pc, #60]	; (c10 <usart_async_init+0x80>)
     bd4:	6063      	str	r3, [r4, #4]
     bd6:	4b0f      	ldr	r3, [pc, #60]	; (c14 <usart_async_init+0x84>)
     bd8:	6023      	str	r3, [r4, #0]
     bda:	4b0f      	ldr	r3, [pc, #60]	; (c18 <usart_async_init+0x88>)
     bdc:	60a3      	str	r3, [r4, #8]
     bde:	4b0f      	ldr	r3, [pc, #60]	; (c1c <usart_async_init+0x8c>)
     be0:	60e3      	str	r3, [r4, #12]
     be2:	4b0f      	ldr	r3, [pc, #60]	; (c20 <usart_async_init+0x90>)
     be4:	6123      	str	r3, [r4, #16]
     be6:	4b0f      	ldr	r3, [pc, #60]	; (c24 <usart_async_init+0x94>)
     be8:	6163      	str	r3, [r4, #20]
     bea:	bdf8      	pop	{r3, r4, r5, r6, r7, pc}
     bec:	2000      	movs	r0, #0
     bee:	e7dd      	b.n	bac <usart_async_init+0x1c>
     bf0:	2000      	movs	r0, #0
     bf2:	e7db      	b.n	bac <usart_async_init+0x1c>
     bf4:	2000      	movs	r0, #0
     bf6:	e7d9      	b.n	bac <usart_async_init+0x1c>
     bf8:	200d      	movs	r0, #13
     bfa:	4240      	negs	r0, r0
     bfc:	e7f5      	b.n	bea <usart_async_init+0x5a>
     bfe:	46c0      	nop			; (mov r8, r8)
     c00:	00005d34 	.word	0x00005d34
     c04:	00000ccd 	.word	0x00000ccd
     c08:	00000cd5 	.word	0x00000cd5
     c0c:	0000141d 	.word	0x0000141d
     c10:	00000ab1 	.word	0x00000ab1
     c14:	00000a0d 	.word	0x00000a0d
     c18:	00000a71 	.word	0x00000a71
     c1c:	000009f1 	.word	0x000009f1
     c20:	000009cd 	.word	0x000009cd
     c24:	000009df 	.word	0x000009df

00000c28 <usart_async_enable>:
     c28:	b510      	push	{r4, lr}
     c2a:	0004      	movs	r4, r0
     c2c:	1e43      	subs	r3, r0, #1
     c2e:	4198      	sbcs	r0, r3
     c30:	b2c0      	uxtb	r0, r0
     c32:	2261      	movs	r2, #97	; 0x61
     c34:	4904      	ldr	r1, [pc, #16]	; (c48 <usart_async_enable+0x20>)
     c36:	4b05      	ldr	r3, [pc, #20]	; (c4c <usart_async_enable+0x24>)
     c38:	4798      	blx	r3
     c3a:	0020      	movs	r0, r4
     c3c:	3008      	adds	r0, #8
     c3e:	4b04      	ldr	r3, [pc, #16]	; (c50 <usart_async_enable+0x28>)
     c40:	4798      	blx	r3
     c42:	2000      	movs	r0, #0
     c44:	bd10      	pop	{r4, pc}
     c46:	46c0      	nop			; (mov r8, r8)
     c48:	00005d34 	.word	0x00005d34
     c4c:	00000ccd 	.word	0x00000ccd
     c50:	00001499 	.word	0x00001499

00000c54 <usart_async_register_callback>:
     c54:	b570      	push	{r4, r5, r6, lr}
     c56:	0005      	movs	r5, r0
     c58:	000e      	movs	r6, r1
     c5a:	0014      	movs	r4, r2
     c5c:	1e43      	subs	r3, r0, #1
     c5e:	4198      	sbcs	r0, r3
     c60:	b2c0      	uxtb	r0, r0
     c62:	2283      	movs	r2, #131	; 0x83
     c64:	4916      	ldr	r1, [pc, #88]	; (cc0 <usart_async_register_callback+0x6c>)
     c66:	4b17      	ldr	r3, [pc, #92]	; (cc4 <usart_async_register_callback+0x70>)
     c68:	4798      	blx	r3
     c6a:	2e01      	cmp	r6, #1
     c6c:	d011      	beq.n	c92 <usart_async_register_callback+0x3e>
     c6e:	2e00      	cmp	r6, #0
     c70:	d004      	beq.n	c7c <usart_async_register_callback+0x28>
     c72:	2e02      	cmp	r6, #2
     c74:	d018      	beq.n	ca8 <usart_async_register_callback+0x54>
     c76:	200d      	movs	r0, #13
     c78:	4240      	negs	r0, r0
     c7a:	e009      	b.n	c90 <usart_async_register_callback+0x3c>
     c7c:	62ac      	str	r4, [r5, #40]	; 0x28
     c7e:	1e62      	subs	r2, r4, #1
     c80:	4194      	sbcs	r4, r2
     c82:	b2e2      	uxtb	r2, r4
     c84:	0028      	movs	r0, r5
     c86:	3008      	adds	r0, #8
     c88:	2101      	movs	r1, #1
     c8a:	4b0f      	ldr	r3, [pc, #60]	; (cc8 <usart_async_register_callback+0x74>)
     c8c:	4798      	blx	r3
     c8e:	2000      	movs	r0, #0
     c90:	bd70      	pop	{r4, r5, r6, pc}
     c92:	626c      	str	r4, [r5, #36]	; 0x24
     c94:	1e62      	subs	r2, r4, #1
     c96:	4194      	sbcs	r4, r2
     c98:	b2e2      	uxtb	r2, r4
     c9a:	0028      	movs	r0, r5
     c9c:	3008      	adds	r0, #8
     c9e:	2102      	movs	r1, #2
     ca0:	4b09      	ldr	r3, [pc, #36]	; (cc8 <usart_async_register_callback+0x74>)
     ca2:	4798      	blx	r3
     ca4:	2000      	movs	r0, #0
     ca6:	e7f3      	b.n	c90 <usart_async_register_callback+0x3c>
     ca8:	62ec      	str	r4, [r5, #44]	; 0x2c
     caa:	1e62      	subs	r2, r4, #1
     cac:	4194      	sbcs	r4, r2
     cae:	b2e2      	uxtb	r2, r4
     cb0:	0028      	movs	r0, r5
     cb2:	3008      	adds	r0, #8
     cb4:	2103      	movs	r1, #3
     cb6:	4b04      	ldr	r3, [pc, #16]	; (cc8 <usart_async_register_callback+0x74>)
     cb8:	4798      	blx	r3
     cba:	2000      	movs	r0, #0
     cbc:	e7e8      	b.n	c90 <usart_async_register_callback+0x3c>
     cbe:	46c0      	nop			; (mov r8, r8)
     cc0:	00005d34 	.word	0x00005d34
     cc4:	00000ccd 	.word	0x00000ccd
     cc8:	000014c5 	.word	0x000014c5

00000ccc <assert>:
     ccc:	2800      	cmp	r0, #0
     cce:	d100      	bne.n	cd2 <assert+0x6>
     cd0:	be00      	bkpt	0x0000
     cd2:	4770      	bx	lr

00000cd4 <ringbuffer_init>:
     cd4:	b570      	push	{r4, r5, r6, lr}
     cd6:	0004      	movs	r4, r0
     cd8:	000e      	movs	r6, r1
     cda:	0015      	movs	r5, r2
     cdc:	2800      	cmp	r0, #0
     cde:	d00b      	beq.n	cf8 <ringbuffer_init+0x24>
     ce0:	2900      	cmp	r1, #0
     ce2:	d018      	beq.n	d16 <ringbuffer_init+0x42>
     ce4:	2001      	movs	r0, #1
     ce6:	2a00      	cmp	r2, #0
     ce8:	d107      	bne.n	cfa <ringbuffer_init+0x26>
     cea:	2228      	movs	r2, #40	; 0x28
     cec:	490c      	ldr	r1, [pc, #48]	; (d20 <ringbuffer_init+0x4c>)
     cee:	2000      	movs	r0, #0
     cf0:	4b0c      	ldr	r3, [pc, #48]	; (d24 <ringbuffer_init+0x50>)
     cf2:	4798      	blx	r3
     cf4:	1e6b      	subs	r3, r5, #1
     cf6:	e007      	b.n	d08 <ringbuffer_init+0x34>
     cf8:	2000      	movs	r0, #0
     cfa:	2228      	movs	r2, #40	; 0x28
     cfc:	4908      	ldr	r1, [pc, #32]	; (d20 <ringbuffer_init+0x4c>)
     cfe:	4b09      	ldr	r3, [pc, #36]	; (d24 <ringbuffer_init+0x50>)
     d00:	4798      	blx	r3
     d02:	1e6b      	subs	r3, r5, #1
     d04:	422b      	tst	r3, r5
     d06:	d108      	bne.n	d1a <ringbuffer_init+0x46>
     d08:	6063      	str	r3, [r4, #4]
     d0a:	2300      	movs	r3, #0
     d0c:	60a3      	str	r3, [r4, #8]
     d0e:	60e3      	str	r3, [r4, #12]
     d10:	6026      	str	r6, [r4, #0]
     d12:	2000      	movs	r0, #0
     d14:	bd70      	pop	{r4, r5, r6, pc}
     d16:	2000      	movs	r0, #0
     d18:	e7ef      	b.n	cfa <ringbuffer_init+0x26>
     d1a:	200d      	movs	r0, #13
     d1c:	4240      	negs	r0, r0
     d1e:	e7f9      	b.n	d14 <ringbuffer_init+0x40>
     d20:	00005d54 	.word	0x00005d54
     d24:	00000ccd 	.word	0x00000ccd

00000d28 <ringbuffer_get>:
     d28:	b570      	push	{r4, r5, r6, lr}
     d2a:	0004      	movs	r4, r0
     d2c:	000d      	movs	r5, r1
     d2e:	2800      	cmp	r0, #0
     d30:	d015      	beq.n	d5e <ringbuffer_get+0x36>
     d32:	0008      	movs	r0, r1
     d34:	1e43      	subs	r3, r0, #1
     d36:	4198      	sbcs	r0, r3
     d38:	b2c0      	uxtb	r0, r0
     d3a:	2240      	movs	r2, #64	; 0x40
     d3c:	490a      	ldr	r1, [pc, #40]	; (d68 <ringbuffer_get+0x40>)
     d3e:	4b0b      	ldr	r3, [pc, #44]	; (d6c <ringbuffer_get+0x44>)
     d40:	4798      	blx	r3
     d42:	68a3      	ldr	r3, [r4, #8]
     d44:	68e2      	ldr	r2, [r4, #12]
     d46:	429a      	cmp	r2, r3
     d48:	d00b      	beq.n	d62 <ringbuffer_get+0x3a>
     d4a:	6862      	ldr	r2, [r4, #4]
     d4c:	4013      	ands	r3, r2
     d4e:	6822      	ldr	r2, [r4, #0]
     d50:	5cd3      	ldrb	r3, [r2, r3]
     d52:	702b      	strb	r3, [r5, #0]
     d54:	68a3      	ldr	r3, [r4, #8]
     d56:	3301      	adds	r3, #1
     d58:	60a3      	str	r3, [r4, #8]
     d5a:	2000      	movs	r0, #0
     d5c:	bd70      	pop	{r4, r5, r6, pc}
     d5e:	2000      	movs	r0, #0
     d60:	e7eb      	b.n	d3a <ringbuffer_get+0x12>
     d62:	200a      	movs	r0, #10
     d64:	4240      	negs	r0, r0
     d66:	e7f9      	b.n	d5c <ringbuffer_get+0x34>
     d68:	00005d54 	.word	0x00005d54
     d6c:	00000ccd 	.word	0x00000ccd

00000d70 <ringbuffer_put>:
     d70:	b570      	push	{r4, r5, r6, lr}
     d72:	0004      	movs	r4, r0
     d74:	000d      	movs	r5, r1
     d76:	1e43      	subs	r3, r0, #1
     d78:	4198      	sbcs	r0, r3
     d7a:	b2c0      	uxtb	r0, r0
     d7c:	2251      	movs	r2, #81	; 0x51
     d7e:	490a      	ldr	r1, [pc, #40]	; (da8 <ringbuffer_put+0x38>)
     d80:	4b0a      	ldr	r3, [pc, #40]	; (dac <ringbuffer_put+0x3c>)
     d82:	4798      	blx	r3
     d84:	6863      	ldr	r3, [r4, #4]
     d86:	68e2      	ldr	r2, [r4, #12]
     d88:	4013      	ands	r3, r2
     d8a:	6822      	ldr	r2, [r4, #0]
     d8c:	54d5      	strb	r5, [r2, r3]
     d8e:	68e3      	ldr	r3, [r4, #12]
     d90:	6861      	ldr	r1, [r4, #4]
     d92:	68a2      	ldr	r2, [r4, #8]
     d94:	1a9a      	subs	r2, r3, r2
     d96:	428a      	cmp	r2, r1
     d98:	d901      	bls.n	d9e <ringbuffer_put+0x2e>
     d9a:	1a59      	subs	r1, r3, r1
     d9c:	60a1      	str	r1, [r4, #8]
     d9e:	3301      	adds	r3, #1
     da0:	60e3      	str	r3, [r4, #12]
     da2:	2000      	movs	r0, #0
     da4:	bd70      	pop	{r4, r5, r6, pc}
     da6:	46c0      	nop			; (mov r8, r8)
     da8:	00005d54 	.word	0x00005d54
     dac:	00000ccd 	.word	0x00000ccd

00000db0 <ringbuffer_num>:
     db0:	b510      	push	{r4, lr}
     db2:	0004      	movs	r4, r0
     db4:	1e43      	subs	r3, r0, #1
     db6:	4198      	sbcs	r0, r3
     db8:	b2c0      	uxtb	r0, r0
     dba:	2267      	movs	r2, #103	; 0x67
     dbc:	4903      	ldr	r1, [pc, #12]	; (dcc <ringbuffer_num+0x1c>)
     dbe:	4b04      	ldr	r3, [pc, #16]	; (dd0 <ringbuffer_num+0x20>)
     dc0:	4798      	blx	r3
     dc2:	68e0      	ldr	r0, [r4, #12]
     dc4:	68a3      	ldr	r3, [r4, #8]
     dc6:	1ac0      	subs	r0, r0, r3
     dc8:	bd10      	pop	{r4, pc}
     dca:	46c0      	nop			; (mov r8, r8)
     dcc:	00005d54 	.word	0x00005d54
     dd0:	00000ccd 	.word	0x00000ccd

00000dd4 <_sbrk>:
     dd4:	0003      	movs	r3, r0
     dd6:	4a06      	ldr	r2, [pc, #24]	; (df0 <_sbrk+0x1c>)
     dd8:	6812      	ldr	r2, [r2, #0]
     dda:	2a00      	cmp	r2, #0
     ddc:	d004      	beq.n	de8 <_sbrk+0x14>
     dde:	4a04      	ldr	r2, [pc, #16]	; (df0 <_sbrk+0x1c>)
     de0:	6810      	ldr	r0, [r2, #0]
     de2:	18c3      	adds	r3, r0, r3
     de4:	6013      	str	r3, [r2, #0]
     de6:	4770      	bx	lr
     de8:	4902      	ldr	r1, [pc, #8]	; (df4 <_sbrk+0x20>)
     dea:	4a01      	ldr	r2, [pc, #4]	; (df0 <_sbrk+0x1c>)
     dec:	6011      	str	r1, [r2, #0]
     dee:	e7f6      	b.n	dde <_sbrk+0xa>
     df0:	20000190 	.word	0x20000190
     df4:	200023a8 	.word	0x200023a8

00000df8 <_adc_init>:
     df8:	b510      	push	{r4, lr}
     dfa:	8c03      	ldrh	r3, [r0, #32]
     dfc:	07db      	lsls	r3, r3, #31
     dfe:	d418      	bmi.n	e32 <_adc_init+0x3a>
     e00:	2203      	movs	r2, #3
     e02:	8c03      	ldrh	r3, [r0, #32]
     e04:	4213      	tst	r3, r2
     e06:	d1fc      	bne.n	e02 <_adc_init+0xa>
     e08:	7803      	ldrb	r3, [r0, #0]
     e0a:	079b      	lsls	r3, r3, #30
     e0c:	d50b      	bpl.n	e26 <_adc_init+0x2e>
     e0e:	7803      	ldrb	r3, [r0, #0]
     e10:	2202      	movs	r2, #2
     e12:	4393      	bics	r3, r2
     e14:	7003      	strb	r3, [r0, #0]
     e16:	3201      	adds	r2, #1
     e18:	8c03      	ldrh	r3, [r0, #32]
     e1a:	4213      	tst	r3, r2
     e1c:	d1fc      	bne.n	e18 <_adc_init+0x20>
     e1e:	2202      	movs	r2, #2
     e20:	8c03      	ldrh	r3, [r0, #32]
     e22:	4213      	tst	r3, r2
     e24:	d1fc      	bne.n	e20 <_adc_init+0x28>
     e26:	2301      	movs	r3, #1
     e28:	7003      	strb	r3, [r0, #0]
     e2a:	2203      	movs	r2, #3
     e2c:	8c03      	ldrh	r3, [r0, #32]
     e2e:	4213      	tst	r3, r2
     e30:	d1fc      	bne.n	e2c <_adc_init+0x34>
     e32:	2201      	movs	r2, #1
     e34:	8c03      	ldrh	r3, [r0, #32]
     e36:	4213      	tst	r3, r2
     e38:	d1fc      	bne.n	e34 <_adc_init+0x3c>
     e3a:	00ca      	lsls	r2, r1, #3
     e3c:	1a52      	subs	r2, r2, r1
     e3e:	0092      	lsls	r2, r2, #2
     e40:	4b36      	ldr	r3, [pc, #216]	; (f1c <_adc_init+0x124>)
     e42:	189b      	adds	r3, r3, r2
     e44:	789a      	ldrb	r2, [r3, #2]
     e46:	7042      	strb	r2, [r0, #1]
     e48:	78da      	ldrb	r2, [r3, #3]
     e4a:	7082      	strb	r2, [r0, #2]
     e4c:	791a      	ldrb	r2, [r3, #4]
     e4e:	70c2      	strb	r2, [r0, #3]
     e50:	88db      	ldrh	r3, [r3, #6]
     e52:	8103      	strh	r3, [r0, #8]
     e54:	8c03      	ldrh	r3, [r0, #32]
     e56:	055b      	lsls	r3, r3, #21
     e58:	d1fc      	bne.n	e54 <_adc_init+0x5c>
     e5a:	00cb      	lsls	r3, r1, #3
     e5c:	1a5b      	subs	r3, r3, r1
     e5e:	009b      	lsls	r3, r3, #2
     e60:	4a2e      	ldr	r2, [pc, #184]	; (f1c <_adc_init+0x124>)
     e62:	18d3      	adds	r3, r2, r3
     e64:	891b      	ldrh	r3, [r3, #8]
     e66:	8143      	strh	r3, [r0, #10]
     e68:	8c03      	ldrh	r3, [r0, #32]
     e6a:	055b      	lsls	r3, r3, #21
     e6c:	d1fc      	bne.n	e68 <_adc_init+0x70>
     e6e:	00cb      	lsls	r3, r1, #3
     e70:	1a5b      	subs	r3, r3, r1
     e72:	009b      	lsls	r3, r3, #2
     e74:	4a29      	ldr	r2, [pc, #164]	; (f1c <_adc_init+0x124>)
     e76:	18d3      	adds	r3, r2, r3
     e78:	7a9b      	ldrb	r3, [r3, #10]
     e7a:	7303      	strb	r3, [r0, #12]
     e7c:	8c03      	ldrh	r3, [r0, #32]
     e7e:	055b      	lsls	r3, r3, #21
     e80:	d1fc      	bne.n	e7c <_adc_init+0x84>
     e82:	00cb      	lsls	r3, r1, #3
     e84:	1a5b      	subs	r3, r3, r1
     e86:	009b      	lsls	r3, r3, #2
     e88:	4a24      	ldr	r2, [pc, #144]	; (f1c <_adc_init+0x124>)
     e8a:	18d3      	adds	r3, r2, r3
     e8c:	7adb      	ldrb	r3, [r3, #11]
     e8e:	7343      	strb	r3, [r0, #13]
     e90:	8c03      	ldrh	r3, [r0, #32]
     e92:	055b      	lsls	r3, r3, #21
     e94:	d1fc      	bne.n	e90 <_adc_init+0x98>
     e96:	00cb      	lsls	r3, r1, #3
     e98:	1a5b      	subs	r3, r3, r1
     e9a:	009b      	lsls	r3, r3, #2
     e9c:	4a1f      	ldr	r2, [pc, #124]	; (f1c <_adc_init+0x124>)
     e9e:	18d3      	adds	r3, r2, r3
     ea0:	899b      	ldrh	r3, [r3, #12]
     ea2:	81c3      	strh	r3, [r0, #14]
     ea4:	2240      	movs	r2, #64	; 0x40
     ea6:	8c03      	ldrh	r3, [r0, #32]
     ea8:	4213      	tst	r3, r2
     eaa:	d1fc      	bne.n	ea6 <_adc_init+0xae>
     eac:	00cb      	lsls	r3, r1, #3
     eae:	1a5b      	subs	r3, r3, r1
     eb0:	009b      	lsls	r3, r3, #2
     eb2:	4a1a      	ldr	r2, [pc, #104]	; (f1c <_adc_init+0x124>)
     eb4:	18d3      	adds	r3, r2, r3
     eb6:	89db      	ldrh	r3, [r3, #14]
     eb8:	8203      	strh	r3, [r0, #16]
     eba:	2280      	movs	r2, #128	; 0x80
     ebc:	8c03      	ldrh	r3, [r0, #32]
     ebe:	4213      	tst	r3, r2
     ec0:	d1fc      	bne.n	ebc <_adc_init+0xc4>
     ec2:	00cb      	lsls	r3, r1, #3
     ec4:	1a5b      	subs	r3, r3, r1
     ec6:	009b      	lsls	r3, r3, #2
     ec8:	4a14      	ldr	r2, [pc, #80]	; (f1c <_adc_init+0x124>)
     eca:	18d3      	adds	r3, r2, r3
     ecc:	8a1b      	ldrh	r3, [r3, #16]
     ece:	8243      	strh	r3, [r0, #18]
     ed0:	2280      	movs	r2, #128	; 0x80
     ed2:	0052      	lsls	r2, r2, #1
     ed4:	8c03      	ldrh	r3, [r0, #32]
     ed6:	4213      	tst	r3, r2
     ed8:	d1fc      	bne.n	ed4 <_adc_init+0xdc>
     eda:	00cb      	lsls	r3, r1, #3
     edc:	1a5b      	subs	r3, r3, r1
     ede:	009b      	lsls	r3, r3, #2
     ee0:	4a0e      	ldr	r2, [pc, #56]	; (f1c <_adc_init+0x124>)
     ee2:	18d3      	adds	r3, r2, r3
     ee4:	8a5b      	ldrh	r3, [r3, #18]
     ee6:	8283      	strh	r3, [r0, #20]
     ee8:	2280      	movs	r2, #128	; 0x80
     eea:	0092      	lsls	r2, r2, #2
     eec:	8c03      	ldrh	r3, [r0, #32]
     eee:	4213      	tst	r3, r2
     ef0:	d1fc      	bne.n	eec <_adc_init+0xf4>
     ef2:	4c0a      	ldr	r4, [pc, #40]	; (f1c <_adc_init+0x124>)
     ef4:	00cb      	lsls	r3, r1, #3
     ef6:	1a5a      	subs	r2, r3, r1
     ef8:	0092      	lsls	r2, r2, #2
     efa:	18a2      	adds	r2, r4, r2
     efc:	7d12      	ldrb	r2, [r2, #20]
     efe:	7702      	strb	r2, [r0, #28]
     f00:	2200      	movs	r2, #0
     f02:	6282      	str	r2, [r0, #40]	; 0x28
     f04:	1a59      	subs	r1, r3, r1
     f06:	0089      	lsls	r1, r1, #2
     f08:	1861      	adds	r1, r4, r1
     f0a:	784b      	ldrb	r3, [r1, #1]
     f0c:	7003      	strb	r3, [r0, #0]
     f0e:	3203      	adds	r2, #3
     f10:	8c03      	ldrh	r3, [r0, #32]
     f12:	4213      	tst	r3, r2
     f14:	d1fc      	bne.n	f10 <_adc_init+0x118>
     f16:	2000      	movs	r0, #0
     f18:	bd10      	pop	{r4, pc}
     f1a:	46c0      	nop			; (mov r8, r8)
     f1c:	00005d78 	.word	0x00005d78

00000f20 <_adc_get_regs>:
     f20:	b510      	push	{r4, lr}
     f22:	4b07      	ldr	r3, [pc, #28]	; (f40 <_adc_get_regs+0x20>)
     f24:	469c      	mov	ip, r3
     f26:	4460      	add	r0, ip
     f28:	0a80      	lsrs	r0, r0, #10
     f2a:	b2c0      	uxtb	r0, r0
     f2c:	2800      	cmp	r0, #0
     f2e:	d004      	beq.n	f3a <_adc_get_regs+0x1a>
     f30:	228d      	movs	r2, #141	; 0x8d
     f32:	4904      	ldr	r1, [pc, #16]	; (f44 <_adc_get_regs+0x24>)
     f34:	2000      	movs	r0, #0
     f36:	4b04      	ldr	r3, [pc, #16]	; (f48 <_adc_get_regs+0x28>)
     f38:	4798      	blx	r3
     f3a:	2000      	movs	r0, #0
     f3c:	bd10      	pop	{r4, pc}
     f3e:	46c0      	nop			; (mov r8, r8)
     f40:	bdffbc00 	.word	0xbdffbc00
     f44:	00005d94 	.word	0x00005d94
     f48:	00000ccd 	.word	0x00000ccd

00000f4c <_adc_sync_init>:
     f4c:	b570      	push	{r4, r5, r6, lr}
     f4e:	0005      	movs	r5, r0
     f50:	000c      	movs	r4, r1
     f52:	1e43      	subs	r3, r0, #1
     f54:	4198      	sbcs	r0, r3
     f56:	b2c0      	uxtb	r0, r0
     f58:	22d4      	movs	r2, #212	; 0xd4
     f5a:	4906      	ldr	r1, [pc, #24]	; (f74 <_adc_sync_init+0x28>)
     f5c:	4b06      	ldr	r3, [pc, #24]	; (f78 <_adc_sync_init+0x2c>)
     f5e:	4798      	blx	r3
     f60:	602c      	str	r4, [r5, #0]
     f62:	0020      	movs	r0, r4
     f64:	4b05      	ldr	r3, [pc, #20]	; (f7c <_adc_sync_init+0x30>)
     f66:	4798      	blx	r3
     f68:	0001      	movs	r1, r0
     f6a:	0020      	movs	r0, r4
     f6c:	4b04      	ldr	r3, [pc, #16]	; (f80 <_adc_sync_init+0x34>)
     f6e:	4798      	blx	r3
     f70:	bd70      	pop	{r4, r5, r6, pc}
     f72:	46c0      	nop			; (mov r8, r8)
     f74:	00005d94 	.word	0x00005d94
     f78:	00000ccd 	.word	0x00000ccd
     f7c:	00000f21 	.word	0x00000f21
     f80:	00000df9 	.word	0x00000df9

00000f84 <_adc_sync_enable_channel>:
     f84:	6802      	ldr	r2, [r0, #0]
     f86:	7813      	ldrb	r3, [r2, #0]
     f88:	2102      	movs	r1, #2
     f8a:	430b      	orrs	r3, r1
     f8c:	7013      	strb	r3, [r2, #0]
     f8e:	3101      	adds	r1, #1
     f90:	8c13      	ldrh	r3, [r2, #32]
     f92:	420b      	tst	r3, r1
     f94:	d1fc      	bne.n	f90 <_adc_sync_enable_channel+0xc>
     f96:	4770      	bx	lr

00000f98 <_adc_sync_get_data_size>:
     f98:	6803      	ldr	r3, [r0, #0]
     f9a:	8958      	ldrh	r0, [r3, #10]
     f9c:	0680      	lsls	r0, r0, #26
     f9e:	0f80      	lsrs	r0, r0, #30
     fa0:	3803      	subs	r0, #3
     fa2:	1e43      	subs	r3, r0, #1
     fa4:	4198      	sbcs	r0, r3
     fa6:	3001      	adds	r0, #1
     fa8:	4770      	bx	lr

00000faa <_adc_sync_is_channel_conversion_done>:
     faa:	6803      	ldr	r3, [r0, #0]
     fac:	7998      	ldrb	r0, [r3, #6]
     fae:	2301      	movs	r3, #1
     fb0:	4018      	ands	r0, r3
     fb2:	4770      	bx	lr

00000fb4 <_adc_sync_convert>:
     fb4:	6802      	ldr	r2, [r0, #0]
     fb6:	7e13      	ldrb	r3, [r2, #24]
     fb8:	2102      	movs	r1, #2
     fba:	430b      	orrs	r3, r1
     fbc:	7613      	strb	r3, [r2, #24]
     fbe:	8c13      	ldrh	r3, [r2, #32]
     fc0:	055b      	lsls	r3, r3, #21
     fc2:	d1fc      	bne.n	fbe <_adc_sync_convert+0xa>
     fc4:	4770      	bx	lr

00000fc6 <_adc_sync_read_channel_data>:
     fc6:	6803      	ldr	r3, [r0, #0]
     fc8:	8c98      	ldrh	r0, [r3, #36]	; 0x24
     fca:	b280      	uxth	r0, r0
     fcc:	4770      	bx	lr

00000fce <_adc_get_adc_sync>:
     fce:	2000      	movs	r0, #0
     fd0:	4770      	bx	lr
	...

00000fd4 <_can_async_init>:
     fd4:	b5f0      	push	{r4, r5, r6, r7, lr}
     fd6:	6001      	str	r1, [r0, #0]
     fd8:	698b      	ldr	r3, [r1, #24]
     fda:	2201      	movs	r2, #1
     fdc:	4313      	orrs	r3, r2
     fde:	618b      	str	r3, [r1, #24]
     fe0:	6802      	ldr	r2, [r0, #0]
     fe2:	2401      	movs	r4, #1
     fe4:	6993      	ldr	r3, [r2, #24]
     fe6:	421c      	tst	r4, r3
     fe8:	d0fc      	beq.n	fe4 <_can_async_init+0x10>
     fea:	6993      	ldr	r3, [r2, #24]
     fec:	2402      	movs	r4, #2
     fee:	4323      	orrs	r3, r4
     ff0:	6193      	str	r3, [r2, #24]
     ff2:	4b34      	ldr	r3, [pc, #208]	; (10c4 <_can_async_init+0xf0>)
     ff4:	4299      	cmp	r1, r3
     ff6:	d010      	beq.n	101a <_can_async_init+0x46>
     ff8:	6802      	ldr	r2, [r0, #0]
     ffa:	6993      	ldr	r3, [r2, #24]
     ffc:	2102      	movs	r1, #2
     ffe:	438b      	bics	r3, r1
    1000:	6193      	str	r3, [r2, #24]
    1002:	6802      	ldr	r2, [r0, #0]
    1004:	6993      	ldr	r3, [r2, #24]
    1006:	3901      	subs	r1, #1
    1008:	438b      	bics	r3, r1
    100a:	6193      	str	r3, [r2, #24]
    100c:	6801      	ldr	r1, [r0, #0]
    100e:	2201      	movs	r2, #1
    1010:	698b      	ldr	r3, [r1, #24]
    1012:	421a      	tst	r2, r3
    1014:	d1fc      	bne.n	1010 <_can_async_init+0x3c>
    1016:	2000      	movs	r0, #0
    1018:	bdf0      	pop	{r4, r5, r6, r7, pc}
    101a:	4b2b      	ldr	r3, [pc, #172]	; (10c8 <_can_async_init+0xf4>)
    101c:	001a      	movs	r2, r3
    101e:	c201      	stmia	r2!, {r0}
    1020:	492a      	ldr	r1, [pc, #168]	; (10cc <_can_async_init+0xf8>)
    1022:	6181      	str	r1, [r0, #24]
    1024:	6801      	ldr	r1, [r0, #0]
    1026:	698c      	ldr	r4, [r1, #24]
    1028:	618c      	str	r4, [r1, #24]
    102a:	6801      	ldr	r1, [r0, #0]
    102c:	2400      	movs	r4, #0
    102e:	608c      	str	r4, [r1, #8]
    1030:	6801      	ldr	r1, [r0, #0]
    1032:	4d27      	ldr	r5, [pc, #156]	; (10d0 <_can_async_init+0xfc>)
    1034:	61cd      	str	r5, [r1, #28]
    1036:	6801      	ldr	r1, [r0, #0]
    1038:	4d26      	ldr	r5, [pc, #152]	; (10d4 <_can_async_init+0x100>)
    103a:	60cd      	str	r5, [r1, #12]
    103c:	4d26      	ldr	r5, [pc, #152]	; (10d8 <_can_async_init+0x104>)
    103e:	042d      	lsls	r5, r5, #16
    1040:	0c2d      	lsrs	r5, r5, #16
    1042:	2180      	movs	r1, #128	; 0x80
    1044:	0289      	lsls	r1, r1, #10
    1046:	430d      	orrs	r5, r1
    1048:	26a0      	movs	r6, #160	; 0xa0
    104a:	6807      	ldr	r7, [r0, #0]
    104c:	51bd      	str	r5, [r7, r6]
    104e:	25bc      	movs	r5, #188	; 0xbc
    1050:	6806      	ldr	r6, [r0, #0]
    1052:	5174      	str	r4, [r6, r5]
    1054:	350c      	adds	r5, #12
    1056:	6806      	ldr	r6, [r0, #0]
    1058:	5174      	str	r4, [r6, r5]
    105a:	4d20      	ldr	r5, [pc, #128]	; (10dc <_can_async_init+0x108>)
    105c:	042d      	lsls	r5, r5, #16
    105e:	0c2d      	lsrs	r5, r5, #16
    1060:	2680      	movs	r6, #128	; 0x80
    1062:	04b6      	lsls	r6, r6, #18
    1064:	4335      	orrs	r5, r6
    1066:	26c0      	movs	r6, #192	; 0xc0
    1068:	6807      	ldr	r7, [r0, #0]
    106a:	51bd      	str	r5, [r7, r6]
    106c:	0412      	lsls	r2, r2, #16
    106e:	0c12      	lsrs	r2, r2, #16
    1070:	430a      	orrs	r2, r1
    1072:	25f0      	movs	r5, #240	; 0xf0
    1074:	6806      	ldr	r6, [r0, #0]
    1076:	5172      	str	r2, [r6, r5]
    1078:	3d70      	subs	r5, #112	; 0x70
    107a:	2228      	movs	r2, #40	; 0x28
    107c:	6806      	ldr	r6, [r0, #0]
    107e:	5172      	str	r2, [r6, r5]
    1080:	001a      	movs	r2, r3
    1082:	3214      	adds	r2, #20
    1084:	0412      	lsls	r2, r2, #16
    1086:	0c12      	lsrs	r2, r2, #16
    1088:	430a      	orrs	r2, r1
    108a:	2684      	movs	r6, #132	; 0x84
    108c:	6807      	ldr	r7, [r0, #0]
    108e:	51ba      	str	r2, [r7, r6]
    1090:	331c      	adds	r3, #28
    1092:	041b      	lsls	r3, r3, #16
    1094:	0c1b      	lsrs	r3, r3, #16
    1096:	430b      	orrs	r3, r1
    1098:	2288      	movs	r2, #136	; 0x88
    109a:	6801      	ldr	r1, [r0, #0]
    109c:	508b      	str	r3, [r1, r2]
    109e:	2390      	movs	r3, #144	; 0x90
    10a0:	6802      	ldr	r2, [r0, #0]
    10a2:	50d4      	str	r4, [r2, r3]
 */
__STATIC_INLINE void __NVIC_DisableIRQ(IRQn_Type IRQn)
{
  if ((int32_t)(IRQn) >= 0)
  {
    NVIC->ICER[0U] = (uint32_t)(1UL << (((uint32_t)IRQn) & 0x1FUL));
    10a4:	4b0e      	ldr	r3, [pc, #56]	; (10e0 <_can_async_init+0x10c>)
    10a6:	2280      	movs	r2, #128	; 0x80
    10a8:	0212      	lsls	r2, r2, #8
    10aa:	515a      	str	r2, [r3, r5]
  __ASM volatile ("dsb 0xF":::"memory");
    10ac:	f3bf 8f4f 	dsb	sy
  __ASM volatile ("isb 0xF":::"memory");
    10b0:	f3bf 8f6f 	isb	sy
 */
__STATIC_INLINE void __NVIC_ClearPendingIRQ(IRQn_Type IRQn)
{
  if ((int32_t)(IRQn) >= 0)
  {
    NVIC->ICPR[0U] = (uint32_t)(1UL << (((uint32_t)IRQn) & 0x1FUL));
    10b4:	21c0      	movs	r1, #192	; 0xc0
    10b6:	0049      	lsls	r1, r1, #1
    10b8:	505a      	str	r2, [r3, r1]
    NVIC->ISER[0U] = (uint32_t)(1UL << (((uint32_t)IRQn) & 0x1FUL));
    10ba:	601a      	str	r2, [r3, #0]
    10bc:	6803      	ldr	r3, [r0, #0]
    10be:	2201      	movs	r2, #1
    10c0:	65da      	str	r2, [r3, #92]	; 0x5c
    10c2:	e799      	b.n	ff8 <_can_async_init+0x24>
    10c4:	42001c00 	.word	0x42001c00
    10c8:	20000194 	.word	0x20000194
    10cc:	20000000 	.word	0x20000000
    10d0:	06020a07 	.word	0x06020a07
    10d4:	00000a33 	.word	0x00000a33
    10d8:	20000360 	.word	0x20000360
    10dc:	20000380 	.word	0x20000380
    10e0:	e000e100 	.word	0xe000e100

000010e4 <CAN0_Handler>:
    10e4:	b570      	push	{r4, r5, r6, lr}
    10e6:	4b19      	ldr	r3, [pc, #100]	; (114c <CAN0_Handler+0x68>)
    10e8:	681d      	ldr	r5, [r3, #0]
    10ea:	682b      	ldr	r3, [r5, #0]
    10ec:	6d1c      	ldr	r4, [r3, #80]	; 0x50
    10ee:	07e3      	lsls	r3, r4, #31
    10f0:	d414      	bmi.n	111c <CAN0_Handler+0x38>
    10f2:	05a3      	lsls	r3, r4, #22
    10f4:	d416      	bmi.n	1124 <CAN0_Handler+0x40>
    10f6:	01a3      	lsls	r3, r4, #6
    10f8:	d418      	bmi.n	112c <CAN0_Handler+0x48>
    10fa:	01e3      	lsls	r3, r4, #7
    10fc:	d41b      	bmi.n	1136 <CAN0_Handler+0x52>
    10fe:	0223      	lsls	r3, r4, #8
    1100:	d507      	bpl.n	1112 <CAN0_Handler+0x2e>
    1102:	682b      	ldr	r3, [r5, #0]
    1104:	6c59      	ldr	r1, [r3, #68]	; 0x44
    1106:	0689      	lsls	r1, r1, #26
    1108:	0fc9      	lsrs	r1, r1, #31
    110a:	3101      	adds	r1, #1
    110c:	0028      	movs	r0, r5
    110e:	68eb      	ldr	r3, [r5, #12]
    1110:	4798      	blx	r3
    1112:	0723      	lsls	r3, r4, #28
    1114:	d414      	bmi.n	1140 <CAN0_Handler+0x5c>
    1116:	682b      	ldr	r3, [r5, #0]
    1118:	651c      	str	r4, [r3, #80]	; 0x50
    111a:	bd70      	pop	{r4, r5, r6, pc}
    111c:	0028      	movs	r0, r5
    111e:	68ab      	ldr	r3, [r5, #8]
    1120:	4798      	blx	r3
    1122:	e7e6      	b.n	10f2 <CAN0_Handler+0xe>
    1124:	0028      	movs	r0, r5
    1126:	686b      	ldr	r3, [r5, #4]
    1128:	4798      	blx	r3
    112a:	e7e4      	b.n	10f6 <CAN0_Handler+0x12>
    112c:	2103      	movs	r1, #3
    112e:	0028      	movs	r0, r5
    1130:	68eb      	ldr	r3, [r5, #12]
    1132:	4798      	blx	r3
    1134:	e7e1      	b.n	10fa <CAN0_Handler+0x16>
    1136:	2100      	movs	r1, #0
    1138:	0028      	movs	r0, r5
    113a:	68eb      	ldr	r3, [r5, #12]
    113c:	4798      	blx	r3
    113e:	e7de      	b.n	10fe <CAN0_Handler+0x1a>
    1140:	2104      	movs	r1, #4
    1142:	0028      	movs	r0, r5
    1144:	68eb      	ldr	r3, [r5, #12]
    1146:	4798      	blx	r3
    1148:	e7e5      	b.n	1116 <CAN0_Handler+0x32>
    114a:	46c0      	nop			; (mov r8, r8)
    114c:	20000194 	.word	0x20000194

00001150 <_get_cycles_for_us>:
    1150:	b510      	push	{r4, lr}
    1152:	0003      	movs	r3, r0
    1154:	20c8      	movs	r0, #200	; 0xc8
    1156:	0080      	lsls	r0, r0, #2
    1158:	4358      	muls	r0, r3
    115a:	302c      	adds	r0, #44	; 0x2c
    115c:	30ff      	adds	r0, #255	; 0xff
    115e:	2196      	movs	r1, #150	; 0x96
    1160:	0049      	lsls	r1, r1, #1
    1162:	4b01      	ldr	r3, [pc, #4]	; (1168 <_get_cycles_for_us+0x18>)
    1164:	4798      	blx	r3
    1166:	bd10      	pop	{r4, pc}
    1168:	00001217 	.word	0x00001217

0000116c <_get_cycles_for_ms>:
    116c:	b510      	push	{r4, lr}
    116e:	0003      	movs	r3, r0
    1170:	20c8      	movs	r0, #200	; 0xc8
    1172:	0080      	lsls	r0, r0, #2
    1174:	4358      	muls	r0, r3
    1176:	3002      	adds	r0, #2
    1178:	2103      	movs	r1, #3
    117a:	4b03      	ldr	r3, [pc, #12]	; (1188 <_get_cycles_for_ms+0x1c>)
    117c:	4798      	blx	r3
    117e:	0003      	movs	r3, r0
    1180:	0080      	lsls	r0, r0, #2
    1182:	18c0      	adds	r0, r0, r3
    1184:	0040      	lsls	r0, r0, #1
    1186:	bd10      	pop	{r4, pc}
    1188:	00001217 	.word	0x00001217

0000118c <_delay_cycles>:
    118c:	3901      	subs	r1, #1
    118e:	d8fd      	bhi.n	118c <_delay_cycles>
    1190:	4770      	bx	lr
	...

00001194 <_init_chip>:
    1194:	b510      	push	{r4, lr}
    1196:	4b08      	ldr	r3, [pc, #32]	; (11b8 <_init_chip+0x24>)
    1198:	685a      	ldr	r2, [r3, #4]
    119a:	605a      	str	r2, [r3, #4]
    119c:	4b07      	ldr	r3, [pc, #28]	; (11bc <_init_chip+0x28>)
    119e:	4798      	blx	r3
    11a0:	4b07      	ldr	r3, [pc, #28]	; (11c0 <_init_chip+0x2c>)
    11a2:	4798      	blx	r3
    11a4:	4b07      	ldr	r3, [pc, #28]	; (11c4 <_init_chip+0x30>)
    11a6:	4798      	blx	r3
    11a8:	4b07      	ldr	r3, [pc, #28]	; (11c8 <_init_chip+0x34>)
    11aa:	4798      	blx	r3
    11ac:	20ff      	movs	r0, #255	; 0xff
    11ae:	4b07      	ldr	r3, [pc, #28]	; (11cc <_init_chip+0x38>)
    11b0:	4798      	blx	r3
    11b2:	4b07      	ldr	r3, [pc, #28]	; (11d0 <_init_chip+0x3c>)
    11b4:	4798      	blx	r3
    11b6:	bd10      	pop	{r4, pc}
    11b8:	41004000 	.word	0x41004000
    11bc:	00001305 	.word	0x00001305
    11c0:	0000131d 	.word	0x0000131d
    11c4:	000012f9 	.word	0x000012f9
    11c8:	0000135d 	.word	0x0000135d
    11cc:	000012bd 	.word	0x000012bd
    11d0:	000011d5 	.word	0x000011d5

000011d4 <_div_init>:
    11d4:	2290      	movs	r2, #144	; 0x90
    11d6:	05d2      	lsls	r2, r2, #23
    11d8:	7813      	ldrb	r3, [r2, #0]
    11da:	2102      	movs	r1, #2
    11dc:	438b      	bics	r3, r1
    11de:	7013      	strb	r3, [r2, #0]
    11e0:	4770      	bx	lr

000011e2 <__aeabi_idiv>:
    11e2:	b510      	push	{r4, lr}
    11e4:	b082      	sub	sp, #8
  __ASM volatile ("MRS %0, primask" : "=r" (result) :: "memory");
    11e6:	f3ef 8310 	mrs	r3, PRIMASK
    11ea:	9301      	str	r3, [sp, #4]
  __ASM volatile ("cpsid i" : : : "memory");
    11ec:	b672      	cpsid	i
    11ee:	2390      	movs	r3, #144	; 0x90
    11f0:	05db      	lsls	r3, r3, #23
    11f2:	781a      	ldrb	r2, [r3, #0]
    11f4:	2401      	movs	r4, #1
    11f6:	4322      	orrs	r2, r4
    11f8:	701a      	strb	r2, [r3, #0]
    11fa:	6098      	str	r0, [r3, #8]
    11fc:	60d9      	str	r1, [r3, #12]
    11fe:	001a      	movs	r2, r3
    1200:	7913      	ldrb	r3, [r2, #4]
    1202:	07db      	lsls	r3, r3, #31
    1204:	d4fc      	bmi.n	1200 <__aeabi_idiv+0x1e>
    1206:	2390      	movs	r3, #144	; 0x90
    1208:	05db      	lsls	r3, r3, #23
    120a:	6918      	ldr	r0, [r3, #16]
    120c:	9b01      	ldr	r3, [sp, #4]
  __ASM volatile ("MSR primask, %0" : : "r" (priMask) : "memory");
    120e:	f383 8810 	msr	PRIMASK, r3
    1212:	b002      	add	sp, #8
    1214:	bd10      	pop	{r4, pc}

00001216 <__aeabi_uidiv>:
    1216:	b510      	push	{r4, lr}
    1218:	b082      	sub	sp, #8
  __ASM volatile ("MRS %0, primask" : "=r" (result) :: "memory");
    121a:	f3ef 8310 	mrs	r3, PRIMASK
    121e:	9301      	str	r3, [sp, #4]
  __ASM volatile ("cpsid i" : : : "memory");
    1220:	b672      	cpsid	i
    1222:	2390      	movs	r3, #144	; 0x90
    1224:	05db      	lsls	r3, r3, #23
    1226:	781a      	ldrb	r2, [r3, #0]
    1228:	2401      	movs	r4, #1
    122a:	43a2      	bics	r2, r4
    122c:	701a      	strb	r2, [r3, #0]
    122e:	6098      	str	r0, [r3, #8]
    1230:	60d9      	str	r1, [r3, #12]
    1232:	001a      	movs	r2, r3
    1234:	7913      	ldrb	r3, [r2, #4]
    1236:	07db      	lsls	r3, r3, #31
    1238:	d4fc      	bmi.n	1234 <__aeabi_uidiv+0x1e>
    123a:	2390      	movs	r3, #144	; 0x90
    123c:	05db      	lsls	r3, r3, #23
    123e:	6918      	ldr	r0, [r3, #16]
    1240:	9b01      	ldr	r3, [sp, #4]
  __ASM volatile ("MSR primask, %0" : : "r" (priMask) : "memory");
    1242:	f383 8810 	msr	PRIMASK, r3
    1246:	b002      	add	sp, #8
    1248:	bd10      	pop	{r4, pc}
	...

0000124c <__aeabi_idivmod>:
    124c:	b510      	push	{r4, lr}
    124e:	b082      	sub	sp, #8
  __ASM volatile ("MRS %0, primask" : "=r" (result) :: "memory");
    1250:	f3ef 8310 	mrs	r3, PRIMASK
    1254:	9301      	str	r3, [sp, #4]
  __ASM volatile ("cpsid i" : : : "memory");
    1256:	b672      	cpsid	i
    1258:	2390      	movs	r3, #144	; 0x90
    125a:	05db      	lsls	r3, r3, #23
    125c:	781a      	ldrb	r2, [r3, #0]
    125e:	2401      	movs	r4, #1
    1260:	4322      	orrs	r2, r4
    1262:	701a      	strb	r2, [r3, #0]
    1264:	6098      	str	r0, [r3, #8]
    1266:	60d9      	str	r1, [r3, #12]
    1268:	001a      	movs	r2, r3
    126a:	7913      	ldrb	r3, [r2, #4]
    126c:	07db      	lsls	r3, r3, #31
    126e:	d4fc      	bmi.n	126a <__aeabi_idivmod+0x1e>
    1270:	4b03      	ldr	r3, [pc, #12]	; (1280 <__aeabi_idivmod+0x34>)
    1272:	6818      	ldr	r0, [r3, #0]
    1274:	6859      	ldr	r1, [r3, #4]
    1276:	9b01      	ldr	r3, [sp, #4]
  __ASM volatile ("MSR primask, %0" : : "r" (priMask) : "memory");
    1278:	f383 8810 	msr	PRIMASK, r3
    127c:	b002      	add	sp, #8
    127e:	bd10      	pop	{r4, pc}
    1280:	48000010 	.word	0x48000010

00001284 <__aeabi_uidivmod>:
    1284:	b510      	push	{r4, lr}
    1286:	b082      	sub	sp, #8
  __ASM volatile ("MRS %0, primask" : "=r" (result) :: "memory");
    1288:	f3ef 8310 	mrs	r3, PRIMASK
    128c:	9301      	str	r3, [sp, #4]
  __ASM volatile ("cpsid i" : : : "memory");
    128e:	b672      	cpsid	i
    1290:	2390      	movs	r3, #144	; 0x90
    1292:	05db      	lsls	r3, r3, #23
    1294:	781a      	ldrb	r2, [r3, #0]
    1296:	2401      	movs	r4, #1
    1298:	43a2      	bics	r2, r4
    129a:	701a      	strb	r2, [r3, #0]
    129c:	6098      	str	r0, [r3, #8]
    129e:	60d9      	str	r1, [r3, #12]
    12a0:	001a      	movs	r2, r3
    12a2:	7913      	ldrb	r3, [r2, #4]
    12a4:	07db      	lsls	r3, r3, #31
    12a6:	d4fc      	bmi.n	12a2 <__aeabi_uidivmod+0x1e>
    12a8:	4b03      	ldr	r3, [pc, #12]	; (12b8 <__aeabi_uidivmod+0x34>)
    12aa:	6818      	ldr	r0, [r3, #0]
    12ac:	6859      	ldr	r1, [r3, #4]
    12ae:	9b01      	ldr	r3, [sp, #4]
  __ASM volatile ("MSR primask, %0" : : "r" (priMask) : "memory");
    12b0:	f383 8810 	msr	PRIMASK, r3
    12b4:	b002      	add	sp, #8
    12b6:	bd10      	pop	{r4, pc}
    12b8:	48000010 	.word	0x48000010

000012bc <_gclk_init_generators_by_fref>:
    12bc:	07c3      	lsls	r3, r0, #31
    12be:	d507      	bpl.n	12d0 <_gclk_init_generators_by_fref+0x14>
    12c0:	4a09      	ldr	r2, [pc, #36]	; (12e8 <_gclk_init_generators_by_fref+0x2c>)
    12c2:	4b0a      	ldr	r3, [pc, #40]	; (12ec <_gclk_init_generators_by_fref+0x30>)
    12c4:	621a      	str	r2, [r3, #32]
    12c6:	0019      	movs	r1, r3
    12c8:	4a09      	ldr	r2, [pc, #36]	; (12f0 <_gclk_init_generators_by_fref+0x34>)
    12ca:	684b      	ldr	r3, [r1, #4]
    12cc:	4213      	tst	r3, r2
    12ce:	d1fc      	bne.n	12ca <_gclk_init_generators_by_fref+0xe>
    12d0:	0783      	lsls	r3, r0, #30
    12d2:	d507      	bpl.n	12e4 <_gclk_init_generators_by_fref+0x28>
    12d4:	4a07      	ldr	r2, [pc, #28]	; (12f4 <_gclk_init_generators_by_fref+0x38>)
    12d6:	4b05      	ldr	r3, [pc, #20]	; (12ec <_gclk_init_generators_by_fref+0x30>)
    12d8:	625a      	str	r2, [r3, #36]	; 0x24
    12da:	0019      	movs	r1, r3
    12dc:	4a04      	ldr	r2, [pc, #16]	; (12f0 <_gclk_init_generators_by_fref+0x34>)
    12de:	684b      	ldr	r3, [r1, #4]
    12e0:	4213      	tst	r3, r2
    12e2:	d1fc      	bne.n	12de <_gclk_init_generators_by_fref+0x22>
    12e4:	4770      	bx	lr
    12e6:	46c0      	nop			; (mov r8, r8)
    12e8:	00010106 	.word	0x00010106
    12ec:	40001c00 	.word	0x40001c00
    12f0:	000007fd 	.word	0x000007fd
    12f4:	00080106 	.word	0x00080106

000012f8 <_mclk_init>:
    12f8:	2201      	movs	r2, #1
    12fa:	4b01      	ldr	r3, [pc, #4]	; (1300 <_mclk_init+0x8>)
    12fc:	711a      	strb	r2, [r3, #4]
    12fe:	4770      	bx	lr
    1300:	40000800 	.word	0x40000800

00001304 <_osc32kctrl_init_sources>:
    1304:	4b04      	ldr	r3, [pc, #16]	; (1318 <_osc32kctrl_init_sources+0x14>)
    1306:	69da      	ldr	r2, [r3, #28]
    1308:	21f8      	movs	r1, #248	; 0xf8
    130a:	0149      	lsls	r1, r1, #5
    130c:	400a      	ands	r2, r1
    130e:	61da      	str	r2, [r3, #28]
    1310:	2201      	movs	r2, #1
    1312:	611a      	str	r2, [r3, #16]
    1314:	4770      	bx	lr
    1316:	46c0      	nop			; (mov r8, r8)
    1318:	40001400 	.word	0x40001400

0000131c <_oscctrl_init_sources>:
    131c:	4b0e      	ldr	r3, [pc, #56]	; (1358 <_oscctrl_init_sources+0x3c>)
    131e:	2202      	movs	r2, #2
    1320:	751a      	strb	r2, [r3, #20]
    1322:	3203      	adds	r2, #3
    1324:	755a      	strb	r2, [r3, #21]
    1326:	0019      	movs	r1, r3
    1328:	3a01      	subs	r2, #1
    132a:	698b      	ldr	r3, [r1, #24]
    132c:	421a      	tst	r2, r3
    132e:	d1fc      	bne.n	132a <_oscctrl_init_sources+0xe>
    1330:	4909      	ldr	r1, [pc, #36]	; (1358 <_oscctrl_init_sources+0x3c>)
    1332:	2204      	movs	r2, #4
    1334:	698b      	ldr	r3, [r1, #24]
    1336:	421a      	tst	r2, r3
    1338:	d1fc      	bne.n	1334 <_oscctrl_init_sources+0x18>
    133a:	2207      	movs	r2, #7
    133c:	4b06      	ldr	r3, [pc, #24]	; (1358 <_oscctrl_init_sources+0x3c>)
    133e:	759a      	strb	r2, [r3, #22]
    1340:	0019      	movs	r1, r3
    1342:	3209      	adds	r2, #9
    1344:	68cb      	ldr	r3, [r1, #12]
    1346:	421a      	tst	r2, r3
    1348:	d0fc      	beq.n	1344 <_oscctrl_init_sources+0x28>
    134a:	4a03      	ldr	r2, [pc, #12]	; (1358 <_oscctrl_init_sources+0x3c>)
    134c:	7d13      	ldrb	r3, [r2, #20]
    134e:	2180      	movs	r1, #128	; 0x80
    1350:	430b      	orrs	r3, r1
    1352:	7513      	strb	r3, [r2, #20]
    1354:	4770      	bx	lr
    1356:	46c0      	nop			; (mov r8, r8)
    1358:	40001000 	.word	0x40001000

0000135c <_oscctrl_init_referenced_generators>:
    135c:	4770      	bx	lr

0000135e <_spi_sync_enable>:
    135e:	69c3      	ldr	r3, [r0, #28]
    1360:	07db      	lsls	r3, r3, #31
    1362:	d409      	bmi.n	1378 <_spi_sync_enable+0x1a>
    1364:	6803      	ldr	r3, [r0, #0]
    1366:	2202      	movs	r2, #2
    1368:	4313      	orrs	r3, r2
    136a:	6003      	str	r3, [r0, #0]
    136c:	3201      	adds	r2, #1
    136e:	69c3      	ldr	r3, [r0, #28]
    1370:	421a      	tst	r2, r3
    1372:	d1fc      	bne.n	136e <_spi_sync_enable+0x10>
    1374:	2000      	movs	r0, #0
    1376:	4770      	bx	lr
    1378:	2004      	movs	r0, #4
    137a:	4240      	negs	r0, r0
    137c:	e7fb      	b.n	1376 <_spi_sync_enable+0x18>
	...

00001380 <_usart_init>:
    1380:	b510      	push	{r4, lr}
    1382:	0004      	movs	r4, r0
    1384:	4b1f      	ldr	r3, [pc, #124]	; (1404 <_usart_init+0x84>)
    1386:	18c3      	adds	r3, r0, r3
    1388:	0a9b      	lsrs	r3, r3, #10
    138a:	b2db      	uxtb	r3, r3
    138c:	2b04      	cmp	r3, #4
    138e:	d004      	beq.n	139a <_usart_init+0x1a>
    1390:	4a1d      	ldr	r2, [pc, #116]	; (1408 <_usart_init+0x88>)
    1392:	491e      	ldr	r1, [pc, #120]	; (140c <_usart_init+0x8c>)
    1394:	2000      	movs	r0, #0
    1396:	4b1e      	ldr	r3, [pc, #120]	; (1410 <_usart_init+0x90>)
    1398:	4798      	blx	r3
    139a:	69e3      	ldr	r3, [r4, #28]
    139c:	07db      	lsls	r3, r3, #31
    139e:	d418      	bmi.n	13d2 <_usart_init+0x52>
    13a0:	2203      	movs	r2, #3
    13a2:	69e3      	ldr	r3, [r4, #28]
    13a4:	421a      	tst	r2, r3
    13a6:	d1fc      	bne.n	13a2 <_usart_init+0x22>
    13a8:	6823      	ldr	r3, [r4, #0]
    13aa:	079b      	lsls	r3, r3, #30
    13ac:	d50b      	bpl.n	13c6 <_usart_init+0x46>
    13ae:	6823      	ldr	r3, [r4, #0]
    13b0:	2202      	movs	r2, #2
    13b2:	4393      	bics	r3, r2
    13b4:	6023      	str	r3, [r4, #0]
    13b6:	3201      	adds	r2, #1
    13b8:	69e3      	ldr	r3, [r4, #28]
    13ba:	421a      	tst	r2, r3
    13bc:	d1fc      	bne.n	13b8 <_usart_init+0x38>
    13be:	2202      	movs	r2, #2
    13c0:	69e3      	ldr	r3, [r4, #28]
    13c2:	421a      	tst	r2, r3
    13c4:	d1fc      	bne.n	13c0 <_usart_init+0x40>
    13c6:	2305      	movs	r3, #5
    13c8:	6023      	str	r3, [r4, #0]
    13ca:	2203      	movs	r2, #3
    13cc:	69e3      	ldr	r3, [r4, #28]
    13ce:	421a      	tst	r2, r3
    13d0:	d1fc      	bne.n	13cc <_usart_init+0x4c>
    13d2:	2201      	movs	r2, #1
    13d4:	69e3      	ldr	r3, [r4, #28]
    13d6:	421a      	tst	r2, r3
    13d8:	d1fc      	bne.n	13d4 <_usart_init+0x54>
    13da:	4b0e      	ldr	r3, [pc, #56]	; (1414 <_usart_init+0x94>)
    13dc:	6023      	str	r3, [r4, #0]
    13de:	2203      	movs	r2, #3
    13e0:	69e3      	ldr	r3, [r4, #28]
    13e2:	421a      	tst	r2, r3
    13e4:	d1fc      	bne.n	13e0 <_usart_init+0x60>
    13e6:	23c0      	movs	r3, #192	; 0xc0
    13e8:	029b      	lsls	r3, r3, #10
    13ea:	6063      	str	r3, [r4, #4]
    13ec:	2207      	movs	r2, #7
    13ee:	69e3      	ldr	r3, [r4, #28]
    13f0:	421a      	tst	r2, r3
    13f2:	d1fc      	bne.n	13ee <_usart_init+0x6e>
    13f4:	4b08      	ldr	r3, [pc, #32]	; (1418 <_usart_init+0x98>)
    13f6:	81a3      	strh	r3, [r4, #12]
    13f8:	2300      	movs	r3, #0
    13fa:	73a3      	strb	r3, [r4, #14]
    13fc:	2230      	movs	r2, #48	; 0x30
    13fe:	54a3      	strb	r3, [r4, r2]
    1400:	2000      	movs	r0, #0
    1402:	bd10      	pop	{r4, pc}
    1404:	bdfffc00 	.word	0xbdfffc00
    1408:	0000025e 	.word	0x0000025e
    140c:	00005dac 	.word	0x00005dac
    1410:	00000ccd 	.word	0x00000ccd
    1414:	40100004 	.word	0x40100004
    1418:	ffffd8ad 	.word	0xffffd8ad

0000141c <_usart_async_init>:
    141c:	b570      	push	{r4, r5, r6, lr}
    141e:	0005      	movs	r5, r0
    1420:	000c      	movs	r4, r1
    1422:	1e43      	subs	r3, r0, #1
    1424:	4198      	sbcs	r0, r3
    1426:	b2c0      	uxtb	r0, r0
    1428:	22c4      	movs	r2, #196	; 0xc4
    142a:	4914      	ldr	r1, [pc, #80]	; (147c <_usart_async_init+0x60>)
    142c:	4b14      	ldr	r3, [pc, #80]	; (1480 <_usart_async_init+0x64>)
    142e:	4798      	blx	r3
    1430:	0020      	movs	r0, r4
    1432:	4b14      	ldr	r3, [pc, #80]	; (1484 <_usart_async_init+0x68>)
    1434:	4798      	blx	r3
    1436:	2800      	cmp	r0, #0
    1438:	d000      	beq.n	143c <_usart_async_init+0x20>
    143a:	bd70      	pop	{r4, r5, r6, pc}
    143c:	61ac      	str	r4, [r5, #24]
    143e:	4b12      	ldr	r3, [pc, #72]	; (1488 <_usart_async_init+0x6c>)
    1440:	429c      	cmp	r4, r3
    1442:	d017      	beq.n	1474 <_usart_async_init+0x58>
    1444:	4b11      	ldr	r3, [pc, #68]	; (148c <_usart_async_init+0x70>)
    1446:	469c      	mov	ip, r3
    1448:	4464      	add	r4, ip
    144a:	0aa4      	lsrs	r4, r4, #10
    144c:	3409      	adds	r4, #9
  if ((int32_t)(IRQn) >= 0)
    144e:	b2e3      	uxtb	r3, r4
    1450:	0622      	lsls	r2, r4, #24
    1452:	d4f2      	bmi.n	143a <_usart_async_init+0x1e>
    NVIC->ICER[0U] = (uint32_t)(1UL << (((uint32_t)IRQn) & 0x1FUL));
    1454:	221f      	movs	r2, #31
    1456:	401a      	ands	r2, r3
    1458:	2301      	movs	r3, #1
    145a:	4093      	lsls	r3, r2
    145c:	4a0c      	ldr	r2, [pc, #48]	; (1490 <_usart_async_init+0x74>)
    145e:	2180      	movs	r1, #128	; 0x80
    1460:	5053      	str	r3, [r2, r1]
  __ASM volatile ("dsb 0xF":::"memory");
    1462:	f3bf 8f4f 	dsb	sy
  __ASM volatile ("isb 0xF":::"memory");
    1466:	f3bf 8f6f 	isb	sy
    NVIC->ICPR[0U] = (uint32_t)(1UL << (((uint32_t)IRQn) & 0x1FUL));
    146a:	3101      	adds	r1, #1
    146c:	31ff      	adds	r1, #255	; 0xff
    146e:	5053      	str	r3, [r2, r1]
    NVIC->ISER[0U] = (uint32_t)(1UL << (((uint32_t)IRQn) & 0x1FUL));
    1470:	6013      	str	r3, [r2, #0]
    1472:	e7e2      	b.n	143a <_usart_async_init+0x1e>
    1474:	4b07      	ldr	r3, [pc, #28]	; (1494 <_usart_async_init+0x78>)
    1476:	601d      	str	r5, [r3, #0]
    1478:	230d      	movs	r3, #13
    147a:	e7eb      	b.n	1454 <_usart_async_init+0x38>
    147c:	00005dac 	.word	0x00005dac
    1480:	00000ccd 	.word	0x00000ccd
    1484:	00001381 	.word	0x00001381
    1488:	42001400 	.word	0x42001400
    148c:	bdfffc00 	.word	0xbdfffc00
    1490:	e000e100 	.word	0xe000e100
    1494:	200001c0 	.word	0x200001c0

00001498 <_usart_async_enable>:
    1498:	6982      	ldr	r2, [r0, #24]
    149a:	6813      	ldr	r3, [r2, #0]
    149c:	2102      	movs	r1, #2
    149e:	430b      	orrs	r3, r1
    14a0:	6013      	str	r3, [r2, #0]
    14a2:	3101      	adds	r1, #1
    14a4:	69d3      	ldr	r3, [r2, #28]
    14a6:	4219      	tst	r1, r3
    14a8:	d1fc      	bne.n	14a4 <_usart_async_enable+0xc>
    14aa:	4770      	bx	lr

000014ac <_usart_async_write_byte>:
    14ac:	6983      	ldr	r3, [r0, #24]
    14ae:	b289      	uxth	r1, r1
    14b0:	8519      	strh	r1, [r3, #40]	; 0x28
    14b2:	4770      	bx	lr

000014b4 <_usart_async_enable_byte_sent_irq>:
    14b4:	6983      	ldr	r3, [r0, #24]
    14b6:	2201      	movs	r2, #1
    14b8:	759a      	strb	r2, [r3, #22]
    14ba:	4770      	bx	lr

000014bc <_usart_async_enable_tx_done_irq>:
    14bc:	6983      	ldr	r3, [r0, #24]
    14be:	2202      	movs	r2, #2
    14c0:	759a      	strb	r2, [r3, #22]
    14c2:	4770      	bx	lr

000014c4 <_usart_async_set_irq_state>:
    14c4:	b570      	push	{r4, r5, r6, lr}
    14c6:	0004      	movs	r4, r0
    14c8:	000d      	movs	r5, r1
    14ca:	0016      	movs	r6, r2
    14cc:	1e43      	subs	r3, r0, #1
    14ce:	4198      	sbcs	r0, r3
    14d0:	b2c0      	uxtb	r0, r0
    14d2:	4a16      	ldr	r2, [pc, #88]	; (152c <_usart_async_set_irq_state+0x68>)
    14d4:	4916      	ldr	r1, [pc, #88]	; (1530 <_usart_async_set_irq_state+0x6c>)
    14d6:	4b17      	ldr	r3, [pc, #92]	; (1534 <_usart_async_set_irq_state+0x70>)
    14d8:	4798      	blx	r3
    14da:	2302      	movs	r3, #2
    14dc:	002a      	movs	r2, r5
    14de:	439a      	bics	r2, r3
    14e0:	d10e      	bne.n	1500 <_usart_async_set_irq_state+0x3c>
    14e2:	69a3      	ldr	r3, [r4, #24]
    14e4:	2e00      	cmp	r6, #0
    14e6:	d105      	bne.n	14f4 <_usart_async_set_irq_state+0x30>
    14e8:	2201      	movs	r2, #1
    14ea:	751a      	strb	r2, [r3, #20]
    14ec:	69a3      	ldr	r3, [r4, #24]
    14ee:	3201      	adds	r2, #1
    14f0:	751a      	strb	r2, [r3, #20]
    14f2:	bd70      	pop	{r4, r5, r6, pc}
    14f4:	2201      	movs	r2, #1
    14f6:	759a      	strb	r2, [r3, #22]
    14f8:	69a3      	ldr	r3, [r4, #24]
    14fa:	3201      	adds	r2, #1
    14fc:	759a      	strb	r2, [r3, #22]
    14fe:	e7f8      	b.n	14f2 <_usart_async_set_irq_state+0x2e>
    1500:	2d01      	cmp	r5, #1
    1502:	d007      	beq.n	1514 <_usart_async_set_irq_state+0x50>
    1504:	2d03      	cmp	r5, #3
    1506:	d1f4      	bne.n	14f2 <_usart_async_set_irq_state+0x2e>
    1508:	69a3      	ldr	r3, [r4, #24]
    150a:	2e00      	cmp	r6, #0
    150c:	d00b      	beq.n	1526 <_usart_async_set_irq_state+0x62>
    150e:	2280      	movs	r2, #128	; 0x80
    1510:	759a      	strb	r2, [r3, #22]
    1512:	e7ee      	b.n	14f2 <_usart_async_set_irq_state+0x2e>
    1514:	69a3      	ldr	r3, [r4, #24]
    1516:	2e00      	cmp	r6, #0
    1518:	d102      	bne.n	1520 <_usart_async_set_irq_state+0x5c>
    151a:	2204      	movs	r2, #4
    151c:	751a      	strb	r2, [r3, #20]
    151e:	e7e8      	b.n	14f2 <_usart_async_set_irq_state+0x2e>
    1520:	2204      	movs	r2, #4
    1522:	759a      	strb	r2, [r3, #22]
    1524:	e7e5      	b.n	14f2 <_usart_async_set_irq_state+0x2e>
    1526:	2280      	movs	r2, #128	; 0x80
    1528:	751a      	strb	r2, [r3, #20]
    152a:	e7e2      	b.n	14f2 <_usart_async_set_irq_state+0x2e>
    152c:	0000021e 	.word	0x0000021e
    1530:	00005dac 	.word	0x00005dac
    1534:	00000ccd 	.word	0x00000ccd

00001538 <SERCOM4_Handler>:
    1538:	b510      	push	{r4, lr}
    153a:	4b19      	ldr	r3, [pc, #100]	; (15a0 <SERCOM4_Handler+0x68>)
    153c:	6818      	ldr	r0, [r3, #0]
    153e:	6984      	ldr	r4, [r0, #24]
    1540:	7e23      	ldrb	r3, [r4, #24]
    1542:	07db      	lsls	r3, r3, #31
    1544:	d502      	bpl.n	154c <SERCOM4_Handler+0x14>
    1546:	7da3      	ldrb	r3, [r4, #22]
    1548:	07db      	lsls	r3, r3, #31
    154a:	d40f      	bmi.n	156c <SERCOM4_Handler+0x34>
    154c:	7e23      	ldrb	r3, [r4, #24]
    154e:	079b      	lsls	r3, r3, #30
    1550:	d502      	bpl.n	1558 <SERCOM4_Handler+0x20>
    1552:	7da3      	ldrb	r3, [r4, #22]
    1554:	079b      	lsls	r3, r3, #30
    1556:	d40e      	bmi.n	1576 <SERCOM4_Handler+0x3e>
    1558:	7e23      	ldrb	r3, [r4, #24]
    155a:	075b      	lsls	r3, r3, #29
    155c:	d515      	bpl.n	158a <SERCOM4_Handler+0x52>
    155e:	8b62      	ldrh	r2, [r4, #26]
    1560:	2337      	movs	r3, #55	; 0x37
    1562:	421a      	tst	r2, r3
    1564:	d00c      	beq.n	1580 <SERCOM4_Handler+0x48>
    1566:	3348      	adds	r3, #72	; 0x48
    1568:	8363      	strh	r3, [r4, #26]
    156a:	bd10      	pop	{r4, pc}
    156c:	2301      	movs	r3, #1
    156e:	7523      	strb	r3, [r4, #20]
    1570:	6803      	ldr	r3, [r0, #0]
    1572:	4798      	blx	r3
    1574:	e7f9      	b.n	156a <SERCOM4_Handler+0x32>
    1576:	2302      	movs	r3, #2
    1578:	7523      	strb	r3, [r4, #20]
    157a:	6883      	ldr	r3, [r0, #8]
    157c:	4798      	blx	r3
    157e:	e7f4      	b.n	156a <SERCOM4_Handler+0x32>
    1580:	8d21      	ldrh	r1, [r4, #40]	; 0x28
    1582:	b2c9      	uxtb	r1, r1
    1584:	6843      	ldr	r3, [r0, #4]
    1586:	4798      	blx	r3
    1588:	e7ef      	b.n	156a <SERCOM4_Handler+0x32>
    158a:	7e23      	ldrb	r3, [r4, #24]
    158c:	09db      	lsrs	r3, r3, #7
    158e:	d0ec      	beq.n	156a <SERCOM4_Handler+0x32>
    1590:	2380      	movs	r3, #128	; 0x80
    1592:	7623      	strb	r3, [r4, #24]
    1594:	68c3      	ldr	r3, [r0, #12]
    1596:	4798      	blx	r3
    1598:	8b63      	ldrh	r3, [r4, #26]
    159a:	b29b      	uxth	r3, r3
    159c:	8363      	strh	r3, [r4, #26]
    159e:	e7e4      	b.n	156a <SERCOM4_Handler+0x32>
    15a0:	200001c0 	.word	0x200001c0

000015a4 <_spi_m_sync_init>:
    15a4:	b570      	push	{r4, r5, r6, lr}
    15a6:	0005      	movs	r5, r0
    15a8:	000c      	movs	r4, r1
    15aa:	4b35      	ldr	r3, [pc, #212]	; (1680 <_spi_m_sync_init+0xdc>)
    15ac:	18cb      	adds	r3, r1, r3
    15ae:	0a9b      	lsrs	r3, r3, #10
    15b0:	b2db      	uxtb	r3, r3
    15b2:	2b02      	cmp	r3, #2
    15b4:	d00b      	beq.n	15ce <_spi_m_sync_init+0x2a>
    15b6:	2800      	cmp	r0, #0
    15b8:	d051      	beq.n	165e <_spi_m_sync_init+0xba>
    15ba:	1e60      	subs	r0, r4, #1
    15bc:	4184      	sbcs	r4, r0
    15be:	b2e0      	uxtb	r0, r4
    15c0:	4a30      	ldr	r2, [pc, #192]	; (1684 <_spi_m_sync_init+0xe0>)
    15c2:	4931      	ldr	r1, [pc, #196]	; (1688 <_spi_m_sync_init+0xe4>)
    15c4:	4b31      	ldr	r3, [pc, #196]	; (168c <_spi_m_sync_init+0xe8>)
    15c6:	4798      	blx	r3
    15c8:	200d      	movs	r0, #13
    15ca:	4240      	negs	r0, r0
    15cc:	e046      	b.n	165c <_spi_m_sync_init+0xb8>
    15ce:	2800      	cmp	r0, #0
    15d0:	d14d      	bne.n	166e <_spi_m_sync_init+0xca>
    15d2:	4a2c      	ldr	r2, [pc, #176]	; (1684 <_spi_m_sync_init+0xe0>)
    15d4:	492c      	ldr	r1, [pc, #176]	; (1688 <_spi_m_sync_init+0xe4>)
    15d6:	2000      	movs	r0, #0
    15d8:	4b2c      	ldr	r3, [pc, #176]	; (168c <_spi_m_sync_init+0xe8>)
    15da:	4798      	blx	r3
    15dc:	69e3      	ldr	r3, [r4, #28]
    15de:	07db      	lsls	r3, r3, #31
    15e0:	d418      	bmi.n	1614 <_spi_m_sync_init+0x70>
    15e2:	2203      	movs	r2, #3
    15e4:	69e3      	ldr	r3, [r4, #28]
    15e6:	421a      	tst	r2, r3
    15e8:	d1fc      	bne.n	15e4 <_spi_m_sync_init+0x40>
    15ea:	6823      	ldr	r3, [r4, #0]
    15ec:	079b      	lsls	r3, r3, #30
    15ee:	d50b      	bpl.n	1608 <_spi_m_sync_init+0x64>
    15f0:	6823      	ldr	r3, [r4, #0]
    15f2:	2202      	movs	r2, #2
    15f4:	4393      	bics	r3, r2
    15f6:	6023      	str	r3, [r4, #0]
    15f8:	3201      	adds	r2, #1
    15fa:	69e3      	ldr	r3, [r4, #28]
    15fc:	421a      	tst	r2, r3
    15fe:	d1fc      	bne.n	15fa <_spi_m_sync_init+0x56>
    1600:	2202      	movs	r2, #2
    1602:	69e3      	ldr	r3, [r4, #28]
    1604:	421a      	tst	r2, r3
    1606:	d1fc      	bne.n	1602 <_spi_m_sync_init+0x5e>
    1608:	230d      	movs	r3, #13
    160a:	6023      	str	r3, [r4, #0]
    160c:	2203      	movs	r2, #3
    160e:	69e3      	ldr	r3, [r4, #28]
    1610:	421a      	tst	r2, r3
    1612:	d1fc      	bne.n	160e <_spi_m_sync_init+0x6a>
    1614:	2201      	movs	r2, #1
    1616:	69e3      	ldr	r3, [r4, #28]
    1618:	421a      	tst	r2, r3
    161a:	d1fc      	bne.n	1616 <_spi_m_sync_init+0x72>
    161c:	602c      	str	r4, [r5, #0]
    161e:	0020      	movs	r0, r4
    1620:	1e43      	subs	r3, r0, #1
    1622:	4198      	sbcs	r0, r3
    1624:	b2c0      	uxtb	r0, r0
    1626:	4a1a      	ldr	r2, [pc, #104]	; (1690 <_spi_m_sync_init+0xec>)
    1628:	4917      	ldr	r1, [pc, #92]	; (1688 <_spi_m_sync_init+0xe4>)
    162a:	4b18      	ldr	r3, [pc, #96]	; (168c <_spi_m_sync_init+0xe8>)
    162c:	4798      	blx	r3
    162e:	4b19      	ldr	r3, [pc, #100]	; (1694 <_spi_m_sync_init+0xf0>)
    1630:	6023      	str	r3, [r4, #0]
    1632:	2203      	movs	r2, #3
    1634:	69e3      	ldr	r3, [r4, #28]
    1636:	421a      	tst	r2, r3
    1638:	d1fc      	bne.n	1634 <_spi_m_sync_init+0x90>
    163a:	2380      	movs	r3, #128	; 0x80
    163c:	029b      	lsls	r3, r3, #10
    163e:	6063      	str	r3, [r4, #4]
    1640:	2207      	movs	r2, #7
    1642:	69e3      	ldr	r3, [r4, #28]
    1644:	421a      	tst	r2, r3
    1646:	d1fc      	bne.n	1642 <_spi_m_sync_init+0x9e>
    1648:	2309      	movs	r3, #9
    164a:	7323      	strb	r3, [r4, #12]
    164c:	2200      	movs	r2, #0
    164e:	3327      	adds	r3, #39	; 0x27
    1650:	54e2      	strb	r2, [r4, r3]
    1652:	3b2f      	subs	r3, #47	; 0x2f
    1654:	712b      	strb	r3, [r5, #4]
    1656:	4b10      	ldr	r3, [pc, #64]	; (1698 <_spi_m_sync_init+0xf4>)
    1658:	80eb      	strh	r3, [r5, #6]
    165a:	2000      	movs	r0, #0
    165c:	bd70      	pop	{r4, r5, r6, pc}
    165e:	4a09      	ldr	r2, [pc, #36]	; (1684 <_spi_m_sync_init+0xe0>)
    1660:	4909      	ldr	r1, [pc, #36]	; (1688 <_spi_m_sync_init+0xe4>)
    1662:	2000      	movs	r0, #0
    1664:	4b09      	ldr	r3, [pc, #36]	; (168c <_spi_m_sync_init+0xe8>)
    1666:	4798      	blx	r3
    1668:	200d      	movs	r0, #13
    166a:	4240      	negs	r0, r0
    166c:	e7f6      	b.n	165c <_spi_m_sync_init+0xb8>
    166e:	0008      	movs	r0, r1
    1670:	1e43      	subs	r3, r0, #1
    1672:	4198      	sbcs	r0, r3
    1674:	b2c0      	uxtb	r0, r0
    1676:	4a03      	ldr	r2, [pc, #12]	; (1684 <_spi_m_sync_init+0xe0>)
    1678:	4903      	ldr	r1, [pc, #12]	; (1688 <_spi_m_sync_init+0xe4>)
    167a:	4b04      	ldr	r3, [pc, #16]	; (168c <_spi_m_sync_init+0xe8>)
    167c:	4798      	blx	r3
    167e:	e7ad      	b.n	15dc <_spi_m_sync_init+0x38>
    1680:	bdfffc00 	.word	0xbdfffc00
    1684:	00000948 	.word	0x00000948
    1688:	00005dac 	.word	0x00005dac
    168c:	00000ccd 	.word	0x00000ccd
    1690:	0000090d 	.word	0x0000090d
    1694:	0001000c 	.word	0x0001000c
    1698:	000001ff 	.word	0x000001ff

0000169c <_spi_m_sync_enable>:
    169c:	b510      	push	{r4, lr}
    169e:	1e04      	subs	r4, r0, #0
    16a0:	d00b      	beq.n	16ba <_spi_m_sync_enable+0x1e>
    16a2:	6800      	ldr	r0, [r0, #0]
    16a4:	1e43      	subs	r3, r0, #1
    16a6:	4198      	sbcs	r0, r3
    16a8:	b2c0      	uxtb	r0, r0
    16aa:	4a05      	ldr	r2, [pc, #20]	; (16c0 <_spi_m_sync_enable+0x24>)
    16ac:	4905      	ldr	r1, [pc, #20]	; (16c4 <_spi_m_sync_enable+0x28>)
    16ae:	4b06      	ldr	r3, [pc, #24]	; (16c8 <_spi_m_sync_enable+0x2c>)
    16b0:	4798      	blx	r3
    16b2:	6820      	ldr	r0, [r4, #0]
    16b4:	4b05      	ldr	r3, [pc, #20]	; (16cc <_spi_m_sync_enable+0x30>)
    16b6:	4798      	blx	r3
    16b8:	bd10      	pop	{r4, pc}
    16ba:	2000      	movs	r0, #0
    16bc:	e7f5      	b.n	16aa <_spi_m_sync_enable+0xe>
    16be:	46c0      	nop			; (mov r8, r8)
    16c0:	000009a3 	.word	0x000009a3
    16c4:	00005dac 	.word	0x00005dac
    16c8:	00000ccd 	.word	0x00000ccd
    16cc:	0000135f 	.word	0x0000135f

000016d0 <_spi_m_sync_trans>:
    16d0:	b5f0      	push	{r4, r5, r6, r7, lr}
    16d2:	46de      	mov	lr, fp
    16d4:	4657      	mov	r7, sl
    16d6:	464e      	mov	r6, r9
    16d8:	4645      	mov	r5, r8
    16da:	b5e0      	push	{r5, r6, r7, lr}
    16dc:	b083      	sub	sp, #12
    16de:	4681      	mov	r9, r0
    16e0:	000e      	movs	r6, r1
    16e2:	6804      	ldr	r4, [r0, #0]
    16e4:	680b      	ldr	r3, [r1, #0]
    16e6:	4698      	mov	r8, r3
    16e8:	684d      	ldr	r5, [r1, #4]
    16ea:	7903      	ldrb	r3, [r0, #4]
    16ec:	9301      	str	r3, [sp, #4]
    16ee:	2800      	cmp	r0, #0
    16f0:	d015      	beq.n	171e <_spi_m_sync_trans+0x4e>
    16f2:	0020      	movs	r0, r4
    16f4:	1e43      	subs	r3, r0, #1
    16f6:	4198      	sbcs	r0, r3
    16f8:	b2c0      	uxtb	r0, r0
    16fa:	4a36      	ldr	r2, [pc, #216]	; (17d4 <_spi_m_sync_trans+0x104>)
    16fc:	4936      	ldr	r1, [pc, #216]	; (17d8 <_spi_m_sync_trans+0x108>)
    16fe:	4b37      	ldr	r3, [pc, #220]	; (17dc <_spi_m_sync_trans+0x10c>)
    1700:	4798      	blx	r3
    1702:	69e3      	ldr	r3, [r4, #28]
    1704:	075b      	lsls	r3, r3, #29
    1706:	d13f      	bne.n	1788 <_spi_m_sync_trans+0xb8>
    1708:	2303      	movs	r3, #3
    170a:	69e0      	ldr	r0, [r4, #28]
    170c:	4018      	ands	r0, r3
    170e:	d1fc      	bne.n	170a <_spi_m_sync_trans+0x3a>
    1710:	6823      	ldr	r3, [r4, #0]
    1712:	079b      	lsls	r3, r3, #30
    1714:	d53b      	bpl.n	178e <_spi_m_sync_trans+0xbe>
    1716:	0002      	movs	r2, r0
    1718:	2301      	movs	r3, #1
    171a:	469c      	mov	ip, r3
    171c:	e009      	b.n	1732 <_spi_m_sync_trans+0x62>
    171e:	2000      	movs	r0, #0
    1720:	e7eb      	b.n	16fa <_spi_m_sync_trans+0x2a>
    1722:	3501      	adds	r5, #1
    1724:	3201      	adds	r2, #1
    1726:	b25b      	sxtb	r3, r3
    1728:	2b00      	cmp	r3, #0
    172a:	db16      	blt.n	175a <_spi_m_sync_trans+0x8a>
    172c:	68b3      	ldr	r3, [r6, #8]
    172e:	4283      	cmp	r3, r0
    1730:	d927      	bls.n	1782 <_spi_m_sync_trans+0xb2>
    1732:	7e23      	ldrb	r3, [r4, #24]
    1734:	b2db      	uxtb	r3, r3
    1736:	2104      	movs	r1, #4
    1738:	4219      	tst	r1, r3
    173a:	d02b      	beq.n	1794 <_spi_m_sync_trans+0xc4>
    173c:	6aa7      	ldr	r7, [r4, #40]	; 0x28
    173e:	2d00      	cmp	r5, #0
    1740:	d0f0      	beq.n	1724 <_spi_m_sync_trans+0x54>
    1742:	702f      	strb	r7, [r5, #0]
    1744:	9901      	ldr	r1, [sp, #4]
    1746:	2901      	cmp	r1, #1
    1748:	d9eb      	bls.n	1722 <_spi_m_sync_trans+0x52>
    174a:	0a3f      	lsrs	r7, r7, #8
    174c:	706f      	strb	r7, [r5, #1]
    174e:	3502      	adds	r5, #2
    1750:	e7e8      	b.n	1724 <_spi_m_sync_trans+0x54>
    1752:	2101      	movs	r1, #1
    1754:	468b      	mov	fp, r1
    1756:	44d8      	add	r8, fp
    1758:	e037      	b.n	17ca <_spi_m_sync_trans+0xfa>
    175a:	2301      	movs	r3, #1
    175c:	425b      	negs	r3, r3
    175e:	8363      	strh	r3, [r4, #26]
    1760:	3381      	adds	r3, #129	; 0x81
    1762:	7623      	strb	r3, [r4, #24]
    1764:	2013      	movs	r0, #19
    1766:	4240      	negs	r0, r0
    1768:	2203      	movs	r2, #3
    176a:	7e23      	ldrb	r3, [r4, #24]
    176c:	4213      	tst	r3, r2
    176e:	d0fc      	beq.n	176a <_spi_m_sync_trans+0x9a>
    1770:	2303      	movs	r3, #3
    1772:	7623      	strb	r3, [r4, #24]
    1774:	b003      	add	sp, #12
    1776:	bc3c      	pop	{r2, r3, r4, r5}
    1778:	4690      	mov	r8, r2
    177a:	4699      	mov	r9, r3
    177c:	46a2      	mov	sl, r4
    177e:	46ab      	mov	fp, r5
    1780:	bdf0      	pop	{r4, r5, r6, r7, pc}
    1782:	4293      	cmp	r3, r2
    1784:	d8d5      	bhi.n	1732 <_spi_m_sync_trans+0x62>
    1786:	e7ef      	b.n	1768 <_spi_m_sync_trans+0x98>
    1788:	2004      	movs	r0, #4
    178a:	4240      	negs	r0, r0
    178c:	e7f2      	b.n	1774 <_spi_m_sync_trans+0xa4>
    178e:	2014      	movs	r0, #20
    1790:	4240      	negs	r0, r0
    1792:	e7ef      	b.n	1774 <_spi_m_sync_trans+0xa4>
    1794:	4290      	cmp	r0, r2
    1796:	d8c6      	bhi.n	1726 <_spi_m_sync_trans+0x56>
    1798:	4667      	mov	r7, ip
    179a:	421f      	tst	r7, r3
    179c:	d0c3      	beq.n	1726 <_spi_m_sync_trans+0x56>
    179e:	464f      	mov	r7, r9
    17a0:	88ff      	ldrh	r7, [r7, #6]
    17a2:	46ba      	mov	sl, r7
    17a4:	4647      	mov	r7, r8
    17a6:	2f00      	cmp	r7, #0
    17a8:	d00f      	beq.n	17ca <_spi_m_sync_trans+0xfa>
    17aa:	783f      	ldrb	r7, [r7, #0]
    17ac:	46ba      	mov	sl, r7
    17ae:	9901      	ldr	r1, [sp, #4]
    17b0:	2901      	cmp	r1, #1
    17b2:	d9ce      	bls.n	1752 <_spi_m_sync_trans+0x82>
    17b4:	4647      	mov	r7, r8
    17b6:	787f      	ldrb	r7, [r7, #1]
    17b8:	023f      	lsls	r7, r7, #8
    17ba:	46bb      	mov	fp, r7
    17bc:	4657      	mov	r7, sl
    17be:	4659      	mov	r1, fp
    17c0:	430f      	orrs	r7, r1
    17c2:	46ba      	mov	sl, r7
    17c4:	2102      	movs	r1, #2
    17c6:	468b      	mov	fp, r1
    17c8:	44d8      	add	r8, fp
    17ca:	3001      	adds	r0, #1
    17cc:	4657      	mov	r7, sl
    17ce:	62a7      	str	r7, [r4, #40]	; 0x28
    17d0:	e7a9      	b.n	1726 <_spi_m_sync_trans+0x56>
    17d2:	46c0      	nop			; (mov r8, r8)
    17d4:	00000aa8 	.word	0x00000aa8
    17d8:	00005dac 	.word	0x00005dac
    17dc:	00000ccd 	.word	0x00000ccd

000017e0 <_temp_sync_init>:
    17e0:	b570      	push	{r4, r5, r6, lr}
    17e2:	0005      	movs	r5, r0
    17e4:	000c      	movs	r4, r1
    17e6:	688b      	ldr	r3, [r1, #8]
    17e8:	07db      	lsls	r3, r3, #31
    17ea:	d52d      	bpl.n	1848 <_temp_sync_init+0x68>
    17ec:	2201      	movs	r2, #1
    17ee:	68a3      	ldr	r3, [r4, #8]
    17f0:	421a      	tst	r2, r3
    17f2:	d1fc      	bne.n	17ee <_temp_sync_init+0xe>
    17f4:	4921      	ldr	r1, [pc, #132]	; (187c <_temp_sync_init+0x9c>)
    17f6:	680b      	ldr	r3, [r1, #0]
    17f8:	021a      	lsls	r2, r3, #8
    17fa:	20fc      	movs	r0, #252	; 0xfc
    17fc:	0180      	lsls	r0, r0, #6
    17fe:	4002      	ands	r2, r0
    1800:	051b      	lsls	r3, r3, #20
    1802:	0e9b      	lsrs	r3, r3, #26
    1804:	4313      	orrs	r3, r2
    1806:	6223      	str	r3, [r4, #32]
    1808:	4e1d      	ldr	r6, [pc, #116]	; (1880 <_temp_sync_init+0xa0>)
    180a:	6833      	ldr	r3, [r6, #0]
    180c:	0518      	lsls	r0, r3, #20
    180e:	23f0      	movs	r3, #240	; 0xf0
    1810:	041b      	lsls	r3, r3, #16
    1812:	4018      	ands	r0, r3
    1814:	680b      	ldr	r3, [r1, #0]
    1816:	0b1b      	lsrs	r3, r3, #12
    1818:	4318      	orrs	r0, r3
    181a:	4b1a      	ldr	r3, [pc, #104]	; (1884 <_temp_sync_init+0xa4>)
    181c:	4798      	blx	r3
    181e:	491a      	ldr	r1, [pc, #104]	; (1888 <_temp_sync_init+0xa8>)
    1820:	4b1a      	ldr	r3, [pc, #104]	; (188c <_temp_sync_init+0xac>)
    1822:	4798      	blx	r3
    1824:	4b1a      	ldr	r3, [pc, #104]	; (1890 <_temp_sync_init+0xb0>)
    1826:	4798      	blx	r3
    1828:	61a0      	str	r0, [r4, #24]
    182a:	6833      	ldr	r3, [r6, #0]
    182c:	011b      	lsls	r3, r3, #4
    182e:	0a1b      	lsrs	r3, r3, #8
    1830:	61e3      	str	r3, [r4, #28]
    1832:	602c      	str	r4, [r5, #0]
    1834:	2300      	movs	r3, #0
    1836:	7023      	strb	r3, [r4, #0]
    1838:	2203      	movs	r2, #3
    183a:	68a3      	ldr	r3, [r4, #8]
    183c:	421a      	tst	r2, r3
    183e:	d1fc      	bne.n	183a <_temp_sync_init+0x5a>
    1840:	2300      	movs	r3, #0
    1842:	70a3      	strb	r3, [r4, #2]
    1844:	2000      	movs	r0, #0
    1846:	bd70      	pop	{r4, r5, r6, pc}
    1848:	2203      	movs	r2, #3
    184a:	68a3      	ldr	r3, [r4, #8]
    184c:	421a      	tst	r2, r3
    184e:	d1fc      	bne.n	184a <_temp_sync_init+0x6a>
    1850:	7823      	ldrb	r3, [r4, #0]
    1852:	079b      	lsls	r3, r3, #30
    1854:	d50b      	bpl.n	186e <_temp_sync_init+0x8e>
    1856:	7823      	ldrb	r3, [r4, #0]
    1858:	2202      	movs	r2, #2
    185a:	4393      	bics	r3, r2
    185c:	7023      	strb	r3, [r4, #0]
    185e:	3201      	adds	r2, #1
    1860:	68a3      	ldr	r3, [r4, #8]
    1862:	421a      	tst	r2, r3
    1864:	d1fc      	bne.n	1860 <_temp_sync_init+0x80>
    1866:	2202      	movs	r2, #2
    1868:	68a3      	ldr	r3, [r4, #8]
    186a:	421a      	tst	r2, r3
    186c:	d1fc      	bne.n	1868 <_temp_sync_init+0x88>
    186e:	2301      	movs	r3, #1
    1870:	7023      	strb	r3, [r4, #0]
    1872:	2203      	movs	r2, #3
    1874:	68a3      	ldr	r3, [r4, #8]
    1876:	421a      	tst	r2, r3
    1878:	d1fc      	bne.n	1874 <_temp_sync_init+0x94>
    187a:	e7b7      	b.n	17ec <_temp_sync_init+0xc>
    187c:	00806030 	.word	0x00806030
    1880:	00806034 	.word	0x00806034
    1884:	00002695 	.word	0x00002695
    1888:	3caaaaab 	.word	0x3caaaaab
    188c:	000020dd 	.word	0x000020dd
    1890:	00001e1d 	.word	0x00001e1d

00001894 <main>:
#include "spi_serial.h"



int main(void)
{
    1894:	b570      	push	{r4, r5, r6, lr}
	/* Initializes MCU, drivers and middleware */
	atmel_start_init();
    1896:	4b0e      	ldr	r3, [pc, #56]	; (18d0 <main+0x3c>)
    1898:	4798      	blx	r3
	uart_init();
    189a:	4b0e      	ldr	r3, [pc, #56]	; (18d4 <main+0x40>)
    189c:	4798      	blx	r3
	((Port *)hw)->Group[submodule_index].OUTSET.reg = mask;
    189e:	24c0      	movs	r4, #192	; 0xc0
    18a0:	05e4      	lsls	r4, r4, #23
    18a2:	2320      	movs	r3, #32
    18a4:	61a3      	str	r3, [r4, #24]

	gpio_set_pin_level(relay_signal, true);

	//ADC
	adc_sync_enable_channel(&ADC_0, 0);
    18a6:	2100      	movs	r1, #0
    18a8:	480b      	ldr	r0, [pc, #44]	; (18d8 <main+0x44>)
    18aa:	4b0c      	ldr	r3, [pc, #48]	; (18dc <main+0x48>)
    18ac:	4798      	blx	r3
    18ae:	2380      	movs	r3, #128	; 0x80
    18b0:	009b      	lsls	r3, r3, #2
    18b2:	61a3      	str	r3, [r4, #24]
	gpio_set_pin_level(spi_cs, true);
	//spi
	spi_init();
    18b4:	4b0a      	ldr	r3, [pc, #40]	; (18e0 <main+0x4c>)
    18b6:	4798      	blx	r3
	
	/* Replace with your application code */
	while (1) {
		if(serial_receiving == 1)
    18b8:	4c0a      	ldr	r4, [pc, #40]	; (18e4 <main+0x50>)
		{
			if(serial_complete == 1)
    18ba:	4d0b      	ldr	r5, [pc, #44]	; (18e8 <main+0x54>)
			{
				usart_done();
    18bc:	4e0b      	ldr	r6, [pc, #44]	; (18ec <main+0x58>)
		if(serial_receiving == 1)
    18be:	7823      	ldrb	r3, [r4, #0]
    18c0:	2b01      	cmp	r3, #1
    18c2:	d1fc      	bne.n	18be <main+0x2a>
			if(serial_complete == 1)
    18c4:	782b      	ldrb	r3, [r5, #0]
    18c6:	2b01      	cmp	r3, #1
    18c8:	d1f9      	bne.n	18be <main+0x2a>
				usart_done();
    18ca:	47b0      	blx	r6
    18cc:	e7f7      	b.n	18be <main+0x2a>
    18ce:	46c0      	nop			; (mov r8, r8)
    18d0:	0000011d 	.word	0x0000011d
    18d4:	00001de9 	.word	0x00001de9
    18d8:	200002f4 	.word	0x200002f4
    18dc:	00000609 	.word	0x00000609
    18e0:	000018f1 	.word	0x000018f1
    18e4:	200001f0 	.word	0x200001f0
    18e8:	200002bc 	.word	0x200002bc
    18ec:	00001ab1 	.word	0x00001ab1

000018f0 <spi_init>:




void spi_init(void)
{
    18f0:	b510      	push	{r4, lr}

spi_m_sync_get_io_descriptor(&SPI_0, &spi_io);
    18f2:	4c04      	ldr	r4, [pc, #16]	; (1904 <spi_init+0x14>)
    18f4:	4904      	ldr	r1, [pc, #16]	; (1908 <spi_init+0x18>)
    18f6:	0020      	movs	r0, r4
    18f8:	4b04      	ldr	r3, [pc, #16]	; (190c <spi_init+0x1c>)
    18fa:	4798      	blx	r3
spi_m_sync_enable(&SPI_0);
    18fc:	0020      	movs	r0, r4
    18fe:	4b04      	ldr	r3, [pc, #16]	; (1910 <spi_init+0x20>)
    1900:	4798      	blx	r3
}
    1902:	bd10      	pop	{r4, pc}
    1904:	200002f8 	.word	0x200002f8
    1908:	200003a0 	.word	0x200003a0
    190c:	00000969 	.word	0x00000969
    1910:	00000881 	.word	0x00000881

00001914 <pec15_calc>:


uint16_t pec15_calc(uint8_t len, //Number of bytes that will be used to calculate a PEC
uint8_t *data //Array of data that will be used to calculate  a PEC
)
{
    1914:	b570      	push	{r4, r5, r6, lr}
	uint16_t remainder,addr;
	remainder = 16;//initialize the PEC
	
	for (uint8_t i = 0; i<len; i++) // loops for each byte in data array
    1916:	2800      	cmp	r0, #0
    1918:	d016      	beq.n	1948 <pec15_calc+0x34>
    191a:	000a      	movs	r2, r1
    191c:	3801      	subs	r0, #1
    191e:	b2c0      	uxtb	r0, r0
    1920:	3001      	adds	r0, #1
    1922:	1809      	adds	r1, r1, r0
    1924:	2010      	movs	r0, #16
	{
		addr = ((remainder>>7)^data[i])&0xff;//calculate PEC table address
		
		remainder = (remainder<<8)^crc15Table[addr];
    1926:	4e09      	ldr	r6, [pc, #36]	; (194c <pec15_calc+0x38>)
		addr = ((remainder>>7)^data[i])&0xff;//calculate PEC table address
    1928:	25ff      	movs	r5, #255	; 0xff
    192a:	09c4      	lsrs	r4, r0, #7
    192c:	7813      	ldrb	r3, [r2, #0]
    192e:	4063      	eors	r3, r4
		remainder = (remainder<<8)^crc15Table[addr];
    1930:	402b      	ands	r3, r5
    1932:	005b      	lsls	r3, r3, #1
    1934:	0200      	lsls	r0, r0, #8
    1936:	5b9b      	ldrh	r3, [r3, r6]
    1938:	4058      	eors	r0, r3
    193a:	b280      	uxth	r0, r0
    193c:	3201      	adds	r2, #1
	for (uint8_t i = 0; i<len; i++) // loops for each byte in data array
    193e:	428a      	cmp	r2, r1
    1940:	d1f3      	bne.n	192a <pec15_calc+0x16>
		
	}
	
	return(remainder*2);//The CRC15 has a 0 in the LSB so the remainder must be multiplied by 2
    1942:	0040      	lsls	r0, r0, #1
    1944:	b280      	uxth	r0, r0
}
    1946:	bd70      	pop	{r4, r5, r6, pc}
	remainder = 16;//initialize the PEC
    1948:	2010      	movs	r0, #16
    194a:	e7fa      	b.n	1942 <pec15_calc+0x2e>
    194c:	00005dc8 	.word	0x00005dc8

00001950 <cmd_68>:
{
    1950:	b570      	push	{r4, r5, r6, lr}
    1952:	b082      	sub	sp, #8
    1954:	25c0      	movs	r5, #192	; 0xc0
    1956:	05ed      	lsls	r5, r5, #23
    1958:	2280      	movs	r2, #128	; 0x80
    195a:	0412      	lsls	r2, r2, #16
    195c:	2398      	movs	r3, #152	; 0x98
    195e:	50ea      	str	r2, [r5, r3]
	cmd[0] = tx_cmd[0];
    1960:	ac01      	add	r4, sp, #4
    1962:	7803      	ldrb	r3, [r0, #0]
    1964:	7023      	strb	r3, [r4, #0]
	cmd[1] =  tx_cmd[1];
    1966:	7843      	ldrb	r3, [r0, #1]
    1968:	7063      	strb	r3, [r4, #1]
	cmd_pec = pec15_calc(2, cmd);
    196a:	0021      	movs	r1, r4
    196c:	2002      	movs	r0, #2
    196e:	4b0c      	ldr	r3, [pc, #48]	; (19a0 <cmd_68+0x50>)
    1970:	4798      	blx	r3
	cmd[2] = (uint8_t)(cmd_pec >> 8);
    1972:	0a03      	lsrs	r3, r0, #8
    1974:	70a3      	strb	r3, [r4, #2]
	cmd[3] = (uint8_t)(cmd_pec);
    1976:	70e0      	strb	r0, [r4, #3]
    1978:	2380      	movs	r3, #128	; 0x80
    197a:	051b      	lsls	r3, r3, #20
    197c:	61ab      	str	r3, [r5, #24]
	((Port *)hw)->Group[submodule_index].OUTCLR.reg = mask;
    197e:	2680      	movs	r6, #128	; 0x80
    1980:	00b6      	lsls	r6, r6, #2
    1982:	616e      	str	r6, [r5, #20]
	io_write(spi_io, cmd, 4);
    1984:	4b07      	ldr	r3, [pc, #28]	; (19a4 <cmd_68+0x54>)
    1986:	6818      	ldr	r0, [r3, #0]
    1988:	2204      	movs	r2, #4
    198a:	0021      	movs	r1, r4
    198c:	4b06      	ldr	r3, [pc, #24]	; (19a8 <cmd_68+0x58>)
    198e:	4798      	blx	r3
	delay_us(2000);
    1990:	20fa      	movs	r0, #250	; 0xfa
    1992:	00c0      	lsls	r0, r0, #3
    1994:	4b05      	ldr	r3, [pc, #20]	; (19ac <cmd_68+0x5c>)
    1996:	4798      	blx	r3
	((Port *)hw)->Group[submodule_index].OUTSET.reg = mask;
    1998:	61ae      	str	r6, [r5, #24]
}
    199a:	b002      	add	sp, #8
    199c:	bd70      	pop	{r4, r5, r6, pc}
    199e:	46c0      	nop			; (mov r8, r8)
    19a0:	00001915 	.word	0x00001915
    19a4:	200003a0 	.word	0x200003a0
    19a8:	000007c5 	.word	0x000007c5
    19ac:	00000785 	.word	0x00000785

000019b0 <LTC681x_adcv>:
{
    19b0:	b510      	push	{r4, lr}
    19b2:	b082      	sub	sp, #8
	cmd[0] = md_bits + 0x02;
    19b4:	ac01      	add	r4, sp, #4
	md_bits = (MD & 0x02) >> 1;
    19b6:	0783      	lsls	r3, r0, #30
    19b8:	0fdb      	lsrs	r3, r3, #31
	cmd[0] = md_bits + 0x02;
    19ba:	3302      	adds	r3, #2
    19bc:	7023      	strb	r3, [r4, #0]
	cmd[1] =  md_bits + 0x60 + (DCP<<4) + CH;
    19be:	0109      	lsls	r1, r1, #4
    19c0:	3260      	adds	r2, #96	; 0x60
    19c2:	1889      	adds	r1, r1, r2
	md_bits = (MD & 0x01) << 7;
    19c4:	01c0      	lsls	r0, r0, #7
	cmd[1] =  md_bits + 0x60 + (DCP<<4) + CH;
    19c6:	1809      	adds	r1, r1, r0
    19c8:	7061      	strb	r1, [r4, #1]
    19ca:	2180      	movs	r1, #128	; 0x80
    19cc:	03c9      	lsls	r1, r1, #15
    19ce:	2398      	movs	r3, #152	; 0x98
    19d0:	22c0      	movs	r2, #192	; 0xc0
    19d2:	05d2      	lsls	r2, r2, #23
    19d4:	50d1      	str	r1, [r2, r3]
	cmd_68(cmd);
    19d6:	0020      	movs	r0, r4
    19d8:	4b01      	ldr	r3, [pc, #4]	; (19e0 <LTC681x_adcv+0x30>)
    19da:	4798      	blx	r3
}
    19dc:	b002      	add	sp, #8
    19de:	bd10      	pop	{r4, pc}
    19e0:	00001951 	.word	0x00001951

000019e4 <LTC681x_adstat>:
{
    19e4:	b500      	push	{lr}
    19e6:	b083      	sub	sp, #12
	cmd[0] = md_bits + 0x08;
    19e8:	aa01      	add	r2, sp, #4
	md_bits = (MD & 0x02) >> 1;
    19ea:	0783      	lsls	r3, r0, #30
    19ec:	0fdb      	lsrs	r3, r3, #31
	cmd[0] = md_bits + 0x08;
    19ee:	3308      	adds	r3, #8
    19f0:	7013      	strb	r3, [r2, #0]
	md_bits = (MD & 0x01) << 7;
    19f2:	01c0      	lsls	r0, r0, #7
	cmd[1] = md_bits + 0xD0 + CHG ;
    19f4:	3930      	subs	r1, #48	; 0x30
    19f6:	1841      	adds	r1, r0, r1
    19f8:	7051      	strb	r1, [r2, #1]
	cmd_68(cmd);		
    19fa:	0010      	movs	r0, r2
    19fc:	4b01      	ldr	r3, [pc, #4]	; (1a04 <LTC681x_adstat+0x20>)
    19fe:	4798      	blx	r3
}
    1a00:	b003      	add	sp, #12
    1a02:	bd00      	pop	{pc}
    1a04:	00001951 	.word	0x00001951

00001a08 <LTC681x_adax>:

/* Start ADC Conversion for GPIO and Vref2  */
void LTC681x_adax(uint8_t MD, //ADC Mode
uint8_t CHG //GPIO Channels to be measured
)
{
    1a08:	b500      	push	{lr}
    1a0a:	b083      	sub	sp, #12
	uint8_t cmd[4];
	uint8_t md_bits;
	
	md_bits = (MD & 0x02) >> 1;
	cmd[0] = md_bits + 0x04;
    1a0c:	aa01      	add	r2, sp, #4
	md_bits = (MD & 0x02) >> 1;
    1a0e:	0783      	lsls	r3, r0, #30
    1a10:	0fdb      	lsrs	r3, r3, #31
	cmd[0] = md_bits + 0x04;
    1a12:	3304      	adds	r3, #4
    1a14:	7013      	strb	r3, [r2, #0]
	md_bits = (MD & 0x01) << 7;
    1a16:	01c0      	lsls	r0, r0, #7
	cmd[1] = md_bits + 0x60 + CHG ;
    1a18:	3160      	adds	r1, #96	; 0x60
    1a1a:	1841      	adds	r1, r0, r1
    1a1c:	7051      	strb	r1, [r2, #1]
	
	cmd_68(cmd);
    1a1e:	0010      	movs	r0, r2
    1a20:	4b01      	ldr	r3, [pc, #4]	; (1a28 <LTC681x_adax+0x20>)
    1a22:	4798      	blx	r3
    1a24:	b003      	add	sp, #12
    1a26:	bd00      	pop	{pc}
    1a28:	00001951 	.word	0x00001951

00001a2c <usart_return>:
	 	serial_complete = 0;
}

//sends an the rx array on usart
void usart_return(uint8_t rx[], uint8_t tx[])
{
    1a2c:	b570      	push	{r4, r5, r6, lr}
    1a2e:	0005      	movs	r5, r0
    1a30:	000c      	movs	r4, r1
		//copy message to tx buffer
		memcpy(&tx[17], &rx[0], SERIAL_BUF_SIZE);
    1a32:	0008      	movs	r0, r1
    1a34:	3011      	adds	r0, #17
    1a36:	22c8      	movs	r2, #200	; 0xc8
    1a38:	0029      	movs	r1, r5
    1a3a:	4b06      	ldr	r3, [pc, #24]	; (1a54 <usart_return+0x28>)
    1a3c:	4798      	blx	r3

		//print
		io_write(&USART_0.io, tx, strlen(rx) + 17);
    1a3e:	0028      	movs	r0, r5
    1a40:	4b05      	ldr	r3, [pc, #20]	; (1a58 <usart_return+0x2c>)
    1a42:	4798      	blx	r3
    1a44:	3011      	adds	r0, #17
    1a46:	b282      	uxth	r2, r0
    1a48:	0021      	movs	r1, r4
    1a4a:	4804      	ldr	r0, [pc, #16]	; (1a5c <usart_return+0x30>)
    1a4c:	4b04      	ldr	r3, [pc, #16]	; (1a60 <usart_return+0x34>)
    1a4e:	4798      	blx	r3
		
		//clear memory
		memset(&rx, 0x00, SERIAL_BUF_SIZE);
		memset(&tx, 0x00, SERIAL_BUF_SIZE+18);
		
}
    1a50:	bd70      	pop	{r4, r5, r6, pc}
    1a52:	46c0      	nop			; (mov r8, r8)
    1a54:	00003fd9 	.word	0x00003fd9
    1a58:	000040dd 	.word	0x000040dd
    1a5c:	20000310 	.word	0x20000310
    1a60:	000007c5 	.word	0x000007c5

00001a64 <usart_send>:

//sends a the string on usart (might work with arrays aswell)
void usart_send(uint8_t *str1)
{
    1a64:	b570      	push	{r4, r5, r6, lr}
    1a66:	0005      	movs	r5, r0
	//Copy the string to the tx_buffer, so that it can be sent using io_write
	memcpy(&tx_buffer[17], &str1[0], SERIAL_BUF_SIZE);
    1a68:	4c0a      	ldr	r4, [pc, #40]	; (1a94 <usart_send+0x30>)
    1a6a:	22c8      	movs	r2, #200	; 0xc8
    1a6c:	0001      	movs	r1, r0
    1a6e:	0020      	movs	r0, r4
    1a70:	4b09      	ldr	r3, [pc, #36]	; (1a98 <usart_send+0x34>)
    1a72:	4798      	blx	r3
	
	//print to the serialcom port
	io_write(&USART_0.io, tx_buffer, (17  + strlen(str1)));
    1a74:	0028      	movs	r0, r5
    1a76:	4b09      	ldr	r3, [pc, #36]	; (1a9c <usart_send+0x38>)
    1a78:	4798      	blx	r3
    1a7a:	3011      	adds	r0, #17
    1a7c:	b282      	uxth	r2, r0
    1a7e:	0021      	movs	r1, r4
    1a80:	3911      	subs	r1, #17
    1a82:	4807      	ldr	r0, [pc, #28]	; (1aa0 <usart_send+0x3c>)
    1a84:	4b07      	ldr	r3, [pc, #28]	; (1aa4 <usart_send+0x40>)
    1a86:	4798      	blx	r3
	//io_write(&USART_0.io, msg, total_bytes + 16);
	
	//clear memory, so that there is a clean buffer for next message
	memset(&rx_buffer, 0x00, SERIAL_BUF_SIZE);
    1a88:	22c8      	movs	r2, #200	; 0xc8
    1a8a:	2100      	movs	r1, #0
    1a8c:	4806      	ldr	r0, [pc, #24]	; (1aa8 <usart_send+0x44>)
    1a8e:	4b07      	ldr	r3, [pc, #28]	; (1aac <usart_send+0x48>)
    1a90:	4798      	blx	r3
	
}
    1a92:	bd70      	pop	{r4, r5, r6, pc}
    1a94:	20000031 	.word	0x20000031
    1a98:	00003fd9 	.word	0x00003fd9
    1a9c:	000040dd 	.word	0x000040dd
    1aa0:	20000310 	.word	0x20000310
    1aa4:	000007c5 	.word	0x000007c5
    1aa8:	200001f4 	.word	0x200001f4
    1aac:	00003feb 	.word	0x00003feb

00001ab0 <usart_done>:
{
    1ab0:	b5f0      	push	{r4, r5, r6, r7, lr}
    1ab2:	46ce      	mov	lr, r9
    1ab4:	4647      	mov	r7, r8
    1ab6:	b580      	push	{r7, lr}
    1ab8:	b083      	sub	sp, #12
	if(rx_buffer[0] == 'o' && rx_buffer[1] == 'n'){
    1aba:	4b8a      	ldr	r3, [pc, #552]	; (1ce4 <usart_done+0x234>)
    1abc:	781b      	ldrb	r3, [r3, #0]
    1abe:	2b6f      	cmp	r3, #111	; 0x6f
    1ac0:	d040      	beq.n	1b44 <usart_done+0x94>
	else if(rx_buffer[0] == 'o' && rx_buffer[1] == 'f' && rx_buffer[2] =='f'){
    1ac2:	4b88      	ldr	r3, [pc, #544]	; (1ce4 <usart_done+0x234>)
    1ac4:	781b      	ldrb	r3, [r3, #0]
    1ac6:	2b6f      	cmp	r3, #111	; 0x6f
    1ac8:	d04d      	beq.n	1b66 <usart_done+0xb6>
	 else if (rx_buffer[0] == 'a' && rx_buffer[1] == 'd' && rx_buffer[2] =='c'){
    1aca:	4b86      	ldr	r3, [pc, #536]	; (1ce4 <usart_done+0x234>)
    1acc:	781b      	ldrb	r3, [r3, #0]
    1ace:	2b61      	cmp	r3, #97	; 0x61
    1ad0:	d056      	beq.n	1b80 <usart_done+0xd0>
	 else if (rx_buffer[0] == 't' && rx_buffer[1] == 'e' && rx_buffer[2] =='s'){
    1ad2:	4b84      	ldr	r3, [pc, #528]	; (1ce4 <usart_done+0x234>)
    1ad4:	781b      	ldrb	r3, [r3, #0]
    1ad6:	2b74      	cmp	r3, #116	; 0x74
    1ad8:	d065      	beq.n	1ba6 <usart_done+0xf6>
	 else if (rx_buffer[0] == '1'){
    1ada:	4b82      	ldr	r3, [pc, #520]	; (1ce4 <usart_done+0x234>)
    1adc:	781b      	ldrb	r3, [r3, #0]
    1ade:	2b31      	cmp	r3, #49	; 0x31
    1ae0:	d100      	bne.n	1ae4 <usart_done+0x34>
    1ae2:	e070      	b.n	1bc6 <usart_done+0x116>
	  else if (rx_buffer[0] == '2'){
    1ae4:	4b7f      	ldr	r3, [pc, #508]	; (1ce4 <usart_done+0x234>)
    1ae6:	781b      	ldrb	r3, [r3, #0]
    1ae8:	2b32      	cmp	r3, #50	; 0x32
    1aea:	d100      	bne.n	1aee <usart_done+0x3e>
    1aec:	e07a      	b.n	1be4 <usart_done+0x134>
	 else if (rx_buffer[0] == '3'){
    1aee:	4b7d      	ldr	r3, [pc, #500]	; (1ce4 <usart_done+0x234>)
    1af0:	781b      	ldrb	r3, [r3, #0]
    1af2:	2b33      	cmp	r3, #51	; 0x33
    1af4:	d100      	bne.n	1af8 <usart_done+0x48>
    1af6:	e0b4      	b.n	1c62 <usart_done+0x1b2>
	 else if(rx_buffer[0] == '4'){
    1af8:	4b7a      	ldr	r3, [pc, #488]	; (1ce4 <usart_done+0x234>)
    1afa:	781b      	ldrb	r3, [r3, #0]
    1afc:	2b34      	cmp	r3, #52	; 0x34
    1afe:	d100      	bne.n	1b02 <usart_done+0x52>
    1b00:	e0d2      	b.n	1ca8 <usart_done+0x1f8>
	 else if (rx_buffer[0] == '5'){
    1b02:	4b78      	ldr	r3, [pc, #480]	; (1ce4 <usart_done+0x234>)
    1b04:	781b      	ldrb	r3, [r3, #0]
    1b06:	2b35      	cmp	r3, #53	; 0x35
    1b08:	d100      	bne.n	1b0c <usart_done+0x5c>
    1b0a:	e0d4      	b.n	1cb6 <usart_done+0x206>
	 else if (rx_buffer[0] == '6'){
    1b0c:	4b75      	ldr	r3, [pc, #468]	; (1ce4 <usart_done+0x234>)
    1b0e:	781b      	ldrb	r3, [r3, #0]
    1b10:	2b36      	cmp	r3, #54	; 0x36
    1b12:	d100      	bne.n	1b16 <usart_done+0x66>
    1b14:	e0d5      	b.n	1cc2 <usart_done+0x212>
	  else if (rx_buffer[0] == '7'){
    1b16:	4b73      	ldr	r3, [pc, #460]	; (1ce4 <usart_done+0x234>)
    1b18:	781b      	ldrb	r3, [r3, #0]
    1b1a:	2b37      	cmp	r3, #55	; 0x37
    1b1c:	d100      	bne.n	1b20 <usart_done+0x70>
    1b1e:	e0d5      	b.n	1ccc <usart_done+0x21c>
	 else if (rx_buffer[0] == '8'){
    1b20:	4b70      	ldr	r3, [pc, #448]	; (1ce4 <usart_done+0x234>)
    1b22:	781b      	ldrb	r3, [r3, #0]
    1b24:	2b38      	cmp	r3, #56	; 0x38
    1b26:	d100      	bne.n	1b2a <usart_done+0x7a>
    1b28:	e0d6      	b.n	1cd8 <usart_done+0x228>
		 usart_send("Error: No such command");
    1b2a:	486f      	ldr	r0, [pc, #444]	; (1ce8 <usart_done+0x238>)
    1b2c:	4b6f      	ldr	r3, [pc, #444]	; (1cec <usart_done+0x23c>)
    1b2e:	4798      	blx	r3
	 	serial_receiving = 0;
    1b30:	2300      	movs	r3, #0
    1b32:	4a6f      	ldr	r2, [pc, #444]	; (1cf0 <usart_done+0x240>)
    1b34:	7013      	strb	r3, [r2, #0]
	 	serial_complete = 0;
    1b36:	4a6f      	ldr	r2, [pc, #444]	; (1cf4 <usart_done+0x244>)
    1b38:	7013      	strb	r3, [r2, #0]
}
    1b3a:	b003      	add	sp, #12
    1b3c:	bc0c      	pop	{r2, r3}
    1b3e:	4690      	mov	r8, r2
    1b40:	4699      	mov	r9, r3
    1b42:	bdf0      	pop	{r4, r5, r6, r7, pc}
	if(rx_buffer[0] == 'o' && rx_buffer[1] == 'n'){
    1b44:	4b67      	ldr	r3, [pc, #412]	; (1ce4 <usart_done+0x234>)
    1b46:	785b      	ldrb	r3, [r3, #1]
    1b48:	2b6e      	cmp	r3, #110	; 0x6e
    1b4a:	d1ba      	bne.n	1ac2 <usart_done+0x12>
    1b4c:	2220      	movs	r2, #32
    1b4e:	23c0      	movs	r3, #192	; 0xc0
    1b50:	05db      	lsls	r3, r3, #23
    1b52:	619a      	str	r2, [r3, #24]
		usart_send(relay_on);
    1b54:	4868      	ldr	r0, [pc, #416]	; (1cf8 <usart_done+0x248>)
    1b56:	4c65      	ldr	r4, [pc, #404]	; (1cec <usart_done+0x23c>)
    1b58:	47a0      	blx	r4
		delay_ms(50);
    1b5a:	2032      	movs	r0, #50	; 0x32
    1b5c:	4b67      	ldr	r3, [pc, #412]	; (1cfc <usart_done+0x24c>)
    1b5e:	4798      	blx	r3
		usart_send("Relay test");
    1b60:	4867      	ldr	r0, [pc, #412]	; (1d00 <usart_done+0x250>)
    1b62:	47a0      	blx	r4
    1b64:	e7e4      	b.n	1b30 <usart_done+0x80>
	else if(rx_buffer[0] == 'o' && rx_buffer[1] == 'f' && rx_buffer[2] =='f'){
    1b66:	4b5f      	ldr	r3, [pc, #380]	; (1ce4 <usart_done+0x234>)
    1b68:	785b      	ldrb	r3, [r3, #1]
    1b6a:	2b66      	cmp	r3, #102	; 0x66
    1b6c:	d1ad      	bne.n	1aca <usart_done+0x1a>
    1b6e:	4b5d      	ldr	r3, [pc, #372]	; (1ce4 <usart_done+0x234>)
    1b70:	789b      	ldrb	r3, [r3, #2]
    1b72:	2b66      	cmp	r3, #102	; 0x66
    1b74:	d1a9      	bne.n	1aca <usart_done+0x1a>
	((Port *)hw)->Group[submodule_index].OUTCLR.reg = mask;
    1b76:	2220      	movs	r2, #32
    1b78:	23c0      	movs	r3, #192	; 0xc0
    1b7a:	05db      	lsls	r3, r3, #23
    1b7c:	615a      	str	r2, [r3, #20]
    1b7e:	e7d7      	b.n	1b30 <usart_done+0x80>
	 else if (rx_buffer[0] == 'a' && rx_buffer[1] == 'd' && rx_buffer[2] =='c'){
    1b80:	4b58      	ldr	r3, [pc, #352]	; (1ce4 <usart_done+0x234>)
    1b82:	785b      	ldrb	r3, [r3, #1]
    1b84:	2b64      	cmp	r3, #100	; 0x64
    1b86:	d1a4      	bne.n	1ad2 <usart_done+0x22>
    1b88:	4b56      	ldr	r3, [pc, #344]	; (1ce4 <usart_done+0x234>)
    1b8a:	789b      	ldrb	r3, [r3, #2]
    1b8c:	2b63      	cmp	r3, #99	; 0x63
    1b8e:	d1a0      	bne.n	1ad2 <usart_done+0x22>
	((Port *)hw)->Group[submodule_index].OUTSET.reg = mask;
    1b90:	2180      	movs	r1, #128	; 0x80
    1b92:	03c9      	lsls	r1, r1, #15
    1b94:	3335      	adds	r3, #53	; 0x35
    1b96:	22c0      	movs	r2, #192	; 0xc0
    1b98:	05d2      	lsls	r2, r2, #23
    1b9a:	50d1      	str	r1, [r2, r3]
		 usart_return(&rx_buffer[1], tx_buffer);
    1b9c:	4959      	ldr	r1, [pc, #356]	; (1d04 <usart_done+0x254>)
    1b9e:	485a      	ldr	r0, [pc, #360]	; (1d08 <usart_done+0x258>)
    1ba0:	4b5a      	ldr	r3, [pc, #360]	; (1d0c <usart_done+0x25c>)
    1ba2:	4798      	blx	r3
    1ba4:	e7c4      	b.n	1b30 <usart_done+0x80>
	 else if (rx_buffer[0] == 't' && rx_buffer[1] == 'e' && rx_buffer[2] =='s'){
    1ba6:	4b4f      	ldr	r3, [pc, #316]	; (1ce4 <usart_done+0x234>)
    1ba8:	785b      	ldrb	r3, [r3, #1]
    1baa:	2b65      	cmp	r3, #101	; 0x65
    1bac:	d195      	bne.n	1ada <usart_done+0x2a>
    1bae:	4b4d      	ldr	r3, [pc, #308]	; (1ce4 <usart_done+0x234>)
    1bb0:	789b      	ldrb	r3, [r3, #2]
    1bb2:	2b73      	cmp	r3, #115	; 0x73
    1bb4:	d000      	beq.n	1bb8 <usart_done+0x108>
    1bb6:	e790      	b.n	1ada <usart_done+0x2a>
    1bb8:	2180      	movs	r1, #128	; 0x80
    1bba:	03c9      	lsls	r1, r1, #15
    1bbc:	3325      	adds	r3, #37	; 0x25
    1bbe:	22c0      	movs	r2, #192	; 0xc0
    1bc0:	05d2      	lsls	r2, r2, #23
    1bc2:	50d1      	str	r1, [r2, r3]
    1bc4:	e7b4      	b.n	1b30 <usart_done+0x80>
		adc_sync_read_channel(&ADC_0, 0, adc_buffer, 2);
    1bc6:	4c52      	ldr	r4, [pc, #328]	; (1d10 <usart_done+0x260>)
    1bc8:	3b2f      	subs	r3, #47	; 0x2f
    1bca:	0022      	movs	r2, r4
    1bcc:	2100      	movs	r1, #0
    1bce:	4851      	ldr	r0, [pc, #324]	; (1d14 <usart_done+0x264>)
    1bd0:	4d51      	ldr	r5, [pc, #324]	; (1d18 <usart_done+0x268>)
    1bd2:	47a8      	blx	r5
		temp[1] = adc_buffer[1];
    1bd4:	7863      	ldrb	r3, [r4, #1]
    1bd6:	7163      	strb	r3, [r4, #5]
		temp[0] = adc_buffer[0];
    1bd8:	7822      	ldrb	r2, [r4, #0]
    1bda:	7122      	strb	r2, [r4, #4]
		res = (temp[1] << 8) | temp[0];
    1bdc:	021b      	lsls	r3, r3, #8
    1bde:	4313      	orrs	r3, r2
    1be0:	80e3      	strh	r3, [r4, #6]
    1be2:	e7a5      	b.n	1b30 <usart_done+0x80>
		adc_sync_read_channel(&ADC_0, 0, adc_buffer, 2);
    1be4:	4c4a      	ldr	r4, [pc, #296]	; (1d10 <usart_done+0x260>)
    1be6:	3b30      	subs	r3, #48	; 0x30
    1be8:	0022      	movs	r2, r4
    1bea:	2100      	movs	r1, #0
    1bec:	4849      	ldr	r0, [pc, #292]	; (1d14 <usart_done+0x264>)
    1bee:	4d4a      	ldr	r5, [pc, #296]	; (1d18 <usart_done+0x268>)
    1bf0:	47a8      	blx	r5
		temp[1] = adc_buffer[1];
    1bf2:	7865      	ldrb	r5, [r4, #1]
    1bf4:	7165      	strb	r5, [r4, #5]
		temp[0] = adc_buffer[0];
    1bf6:	7823      	ldrb	r3, [r4, #0]
    1bf8:	7123      	strb	r3, [r4, #4]
		res = (temp[1] << 8) | temp[0];
    1bfa:	022d      	lsls	r5, r5, #8
    1bfc:	431d      	orrs	r5, r3
    1bfe:	80e5      	strh	r5, [r4, #6]
		thou = res / 1000 % 10;
    1c00:	4e46      	ldr	r6, [pc, #280]	; (1d1c <usart_done+0x26c>)
    1c02:	21fa      	movs	r1, #250	; 0xfa
    1c04:	0089      	lsls	r1, r1, #2
    1c06:	0028      	movs	r0, r5
    1c08:	47b0      	blx	r6
    1c0a:	b280      	uxth	r0, r0
    1c0c:	4b44      	ldr	r3, [pc, #272]	; (1d20 <usart_done+0x270>)
    1c0e:	4699      	mov	r9, r3
    1c10:	210a      	movs	r1, #10
    1c12:	4798      	blx	r3
    1c14:	b2cb      	uxtb	r3, r1
    1c16:	4698      	mov	r8, r3
    1c18:	7223      	strb	r3, [r4, #8]
		hund = res / 100  % 10;
    1c1a:	2164      	movs	r1, #100	; 0x64
    1c1c:	0028      	movs	r0, r5
    1c1e:	47b0      	blx	r6
    1c20:	b280      	uxth	r0, r0
    1c22:	210a      	movs	r1, #10
    1c24:	47c8      	blx	r9
    1c26:	b2cf      	uxtb	r7, r1
    1c28:	7267      	strb	r7, [r4, #9]
		tens = res / 10   % 10;
    1c2a:	210a      	movs	r1, #10
    1c2c:	0028      	movs	r0, r5
    1c2e:	47b0      	blx	r6
    1c30:	b280      	uxth	r0, r0
    1c32:	210a      	movs	r1, #10
    1c34:	47c8      	blx	r9
    1c36:	b2ce      	uxtb	r6, r1
    1c38:	72a6      	strb	r6, [r4, #10]
		ones = res % 10;
    1c3a:	210a      	movs	r1, #10
    1c3c:	0028      	movs	r0, r5
    1c3e:	47c8      	blx	r9
    1c40:	b2c9      	uxtb	r1, r1
    1c42:	72e1      	strb	r1, [r4, #11]
		adc_rest[0] = thou + 48;
    1c44:	4643      	mov	r3, r8
    1c46:	3330      	adds	r3, #48	; 0x30
    1c48:	7323      	strb	r3, [r4, #12]
		adc_rest[1] = hund + 48;
    1c4a:	3730      	adds	r7, #48	; 0x30
    1c4c:	7367      	strb	r7, [r4, #13]
		adc_rest[2] = tens + 48;
    1c4e:	3630      	adds	r6, #48	; 0x30
    1c50:	73a6      	strb	r6, [r4, #14]
		adc_rest[3] = ones + 48;
    1c52:	3130      	adds	r1, #48	; 0x30
    1c54:	73e1      	strb	r1, [r4, #15]
		usart_return(adc_rest, tx_buffer);
    1c56:	0020      	movs	r0, r4
    1c58:	300c      	adds	r0, #12
    1c5a:	492a      	ldr	r1, [pc, #168]	; (1d04 <usart_done+0x254>)
    1c5c:	4b2b      	ldr	r3, [pc, #172]	; (1d0c <usart_done+0x25c>)
    1c5e:	4798      	blx	r3
    1c60:	e766      	b.n	1b30 <usart_done+0x80>
		adc_sync_read_channel(&ADC_0, 0, adc_buffer, 2);
    1c62:	4c2b      	ldr	r4, [pc, #172]	; (1d10 <usart_done+0x260>)
    1c64:	3b31      	subs	r3, #49	; 0x31
    1c66:	0022      	movs	r2, r4
    1c68:	2100      	movs	r1, #0
    1c6a:	482a      	ldr	r0, [pc, #168]	; (1d14 <usart_done+0x264>)
    1c6c:	4d2a      	ldr	r5, [pc, #168]	; (1d18 <usart_done+0x268>)
    1c6e:	47a8      	blx	r5
		temp[1] = adc_buffer[1];
    1c70:	7860      	ldrb	r0, [r4, #1]
    1c72:	7160      	strb	r0, [r4, #5]
		temp[0] = adc_buffer[0];
    1c74:	7823      	ldrb	r3, [r4, #0]
    1c76:	7123      	strb	r3, [r4, #4]
		res = (temp[1] << 8) | temp[0];
    1c78:	0200      	lsls	r0, r0, #8
    1c7a:	4318      	orrs	r0, r3
    1c7c:	80e0      	strh	r0, [r4, #6]
		res2 = (float) res / 840;
    1c7e:	4b29      	ldr	r3, [pc, #164]	; (1d24 <usart_done+0x274>)
    1c80:	4798      	blx	r3
    1c82:	4929      	ldr	r1, [pc, #164]	; (1d28 <usart_done+0x278>)
    1c84:	4b29      	ldr	r3, [pc, #164]	; (1d2c <usart_done+0x27c>)
    1c86:	4798      	blx	r3
    1c88:	6120      	str	r0, [r4, #16]
		gcvt(res2, 6, buf);
    1c8a:	0025      	movs	r5, r4
    1c8c:	3514      	adds	r5, #20
    1c8e:	4b28      	ldr	r3, [pc, #160]	; (1d30 <usart_done+0x280>)
    1c90:	4798      	blx	r3
    1c92:	002b      	movs	r3, r5
    1c94:	2206      	movs	r2, #6
    1c96:	4e27      	ldr	r6, [pc, #156]	; (1d34 <usart_done+0x284>)
    1c98:	47b0      	blx	r6
		buf[7] = 'V';
    1c9a:	2356      	movs	r3, #86	; 0x56
    1c9c:	76e3      	strb	r3, [r4, #27]
		usart_return(buf, tx_buffer);
    1c9e:	4919      	ldr	r1, [pc, #100]	; (1d04 <usart_done+0x254>)
    1ca0:	0028      	movs	r0, r5
    1ca2:	4b1a      	ldr	r3, [pc, #104]	; (1d0c <usart_done+0x25c>)
    1ca4:	4798      	blx	r3
    1ca6:	e743      	b.n	1b30 <usart_done+0x80>
		 uint8_t temp_int[2] = {0b00000101, 0b01100000};
    1ca8:	a801      	add	r0, sp, #4
    1caa:	4b23      	ldr	r3, [pc, #140]	; (1d38 <usart_done+0x288>)
    1cac:	881b      	ldrh	r3, [r3, #0]
    1cae:	8003      	strh	r3, [r0, #0]
		 cmd_68(temp_int);
    1cb0:	4b22      	ldr	r3, [pc, #136]	; (1d3c <usart_done+0x28c>)
    1cb2:	4798      	blx	r3
    1cb4:	e73c      	b.n	1b30 <usart_done+0x80>
    1cb6:	2280      	movs	r2, #128	; 0x80
    1cb8:	0092      	lsls	r2, r2, #2
    1cba:	23c0      	movs	r3, #192	; 0xc0
    1cbc:	05db      	lsls	r3, r3, #23
    1cbe:	619a      	str	r2, [r3, #24]
    1cc0:	e736      	b.n	1b30 <usart_done+0x80>
		  LTC681x_adstat(0b10, 0b000);
    1cc2:	2100      	movs	r1, #0
    1cc4:	2002      	movs	r0, #2
    1cc6:	4b1e      	ldr	r3, [pc, #120]	; (1d40 <usart_done+0x290>)
    1cc8:	4798      	blx	r3
    1cca:	e731      	b.n	1b30 <usart_done+0x80>
		 LTC681x_adcv(0b10,0b0,0b000);
    1ccc:	2200      	movs	r2, #0
    1cce:	2100      	movs	r1, #0
    1cd0:	2002      	movs	r0, #2
    1cd2:	4b1c      	ldr	r3, [pc, #112]	; (1d44 <usart_done+0x294>)
    1cd4:	4798      	blx	r3
    1cd6:	e72b      	b.n	1b30 <usart_done+0x80>
		 LTC681x_adax(0b00, 0b000 );
    1cd8:	2100      	movs	r1, #0
    1cda:	2000      	movs	r0, #0
    1cdc:	4b1a      	ldr	r3, [pc, #104]	; (1d48 <usart_done+0x298>)
    1cde:	4798      	blx	r3
    1ce0:	e726      	b.n	1b30 <usart_done+0x80>
    1ce2:	46c0      	nop			; (mov r8, r8)
    1ce4:	200001f4 	.word	0x200001f4
    1ce8:	00005fd8 	.word	0x00005fd8
    1cec:	00001a65 	.word	0x00001a65
    1cf0:	200001f0 	.word	0x200001f0
    1cf4:	200002bc 	.word	0x200002bc
    1cf8:	20000014 	.word	0x20000014
    1cfc:	000007a5 	.word	0x000007a5
    1d00:	00005fcc 	.word	0x00005fcc
    1d04:	20000020 	.word	0x20000020
    1d08:	200001f5 	.word	0x200001f5
    1d0c:	00001a2d 	.word	0x00001a2d
    1d10:	200001c4 	.word	0x200001c4
    1d14:	200002f4 	.word	0x200002f4
    1d18:	00000635 	.word	0x00000635
    1d1c:	00001217 	.word	0x00001217
    1d20:	00001285 	.word	0x00001285
    1d24:	00002695 	.word	0x00002695
    1d28:	44520000 	.word	0x44520000
    1d2c:	00001e4d 	.word	0x00001e4d
    1d30:	00003a11 	.word	0x00003a11
    1d34:	00003f31 	.word	0x00003f31
    1d38:	00005fc8 	.word	0x00005fc8
    1d3c:	00001951 	.word	0x00001951
    1d40:	000019e5 	.word	0x000019e5
    1d44:	000019b1 	.word	0x000019b1
    1d48:	00001a09 	.word	0x00001a09

00001d4c <serial_tx_cb>:

static void serial_tx_cb(const struct usart_async_descriptor *const io_descr) {
	
	// Do nothing when tx interrupt is called
	
}
    1d4c:	4770      	bx	lr
	...

00001d50 <serial_rx_cb>:
{
    1d50:	b510      	push	{r4, lr}
    1d52:	b082      	sub	sp, #8
	count = io_read(&USART_0.io, &ch, 1);
    1d54:	2201      	movs	r2, #1
    1d56:	466b      	mov	r3, sp
    1d58:	1dd9      	adds	r1, r3, #7
    1d5a:	481f      	ldr	r0, [pc, #124]	; (1dd8 <serial_rx_cb+0x88>)
    1d5c:	4b1f      	ldr	r3, [pc, #124]	; (1ddc <serial_rx_cb+0x8c>)
    1d5e:	4798      	blx	r3
    1d60:	b2c1      	uxtb	r1, r0
	if(serial_receiving == 0)
    1d62:	4b1f      	ldr	r3, [pc, #124]	; (1de0 <serial_rx_cb+0x90>)
    1d64:	781b      	ldrb	r3, [r3, #0]
    1d66:	2b00      	cmp	r3, #0
    1d68:	d112      	bne.n	1d90 <serial_rx_cb+0x40>
		if (ch != '\r' && ch != '\n')
    1d6a:	466b      	mov	r3, sp
    1d6c:	79da      	ldrb	r2, [r3, #7]
    1d6e:	2a0d      	cmp	r2, #13
    1d70:	d024      	beq.n	1dbc <serial_rx_cb+0x6c>
    1d72:	2a0a      	cmp	r2, #10
    1d74:	d022      	beq.n	1dbc <serial_rx_cb+0x6c>
			serial_receiving =1;
    1d76:	4b1a      	ldr	r3, [pc, #104]	; (1de0 <serial_rx_cb+0x90>)
    1d78:	2001      	movs	r0, #1
    1d7a:	7018      	strb	r0, [r3, #0]
			serial_received_bytes_counter = 0;
    1d7c:	2000      	movs	r0, #0
    1d7e:	7058      	strb	r0, [r3, #1]
			rx_buffer[serial_received_bytes_counter] = ch;
    1d80:	7858      	ldrb	r0, [r3, #1]
    1d82:	1818      	adds	r0, r3, r0
    1d84:	7102      	strb	r2, [r0, #4]
			serial_received_bytes_counter += count;
    1d86:	7858      	ldrb	r0, [r3, #1]
    1d88:	1840      	adds	r0, r0, r1
    1d8a:	b2c0      	uxtb	r0, r0
    1d8c:	7058      	strb	r0, [r3, #1]
    1d8e:	e015      	b.n	1dbc <serial_rx_cb+0x6c>
		rx_buffer[serial_received_bytes_counter] = ch;
    1d90:	4b13      	ldr	r3, [pc, #76]	; (1de0 <serial_rx_cb+0x90>)
    1d92:	785a      	ldrb	r2, [r3, #1]
    1d94:	4668      	mov	r0, sp
    1d96:	79c4      	ldrb	r4, [r0, #7]
    1d98:	189a      	adds	r2, r3, r2
    1d9a:	7114      	strb	r4, [r2, #4]
		serial_received_bytes_counter += count;
    1d9c:	7858      	ldrb	r0, [r3, #1]
    1d9e:	1840      	adds	r0, r0, r1
    1da0:	b2c0      	uxtb	r0, r0
    1da2:	7058      	strb	r0, [r3, #1]
		if (ch == '\r' || ch == '\n')
    1da4:	2c0d      	cmp	r4, #13
    1da6:	d00b      	beq.n	1dc0 <serial_rx_cb+0x70>
    1da8:	2c0a      	cmp	r4, #10
    1daa:	d009      	beq.n	1dc0 <serial_rx_cb+0x70>
		if(serial_received_bytes_counter >= SERIAL_BUF_SIZE)
    1dac:	4b0c      	ldr	r3, [pc, #48]	; (1de0 <serial_rx_cb+0x90>)
    1dae:	785b      	ldrb	r3, [r3, #1]
    1db0:	b2db      	uxtb	r3, r3
    1db2:	2bc7      	cmp	r3, #199	; 0xc7
    1db4:	d902      	bls.n	1dbc <serial_rx_cb+0x6c>
			serial_received_bytes_counter = 0;
    1db6:	2200      	movs	r2, #0
    1db8:	4b09      	ldr	r3, [pc, #36]	; (1de0 <serial_rx_cb+0x90>)
    1dba:	705a      	strb	r2, [r3, #1]
}
    1dbc:	b002      	add	sp, #8
    1dbe:	bd10      	pop	{r4, pc}
			serial_complete = 1;
    1dc0:	4a08      	ldr	r2, [pc, #32]	; (1de4 <serial_rx_cb+0x94>)
    1dc2:	2101      	movs	r1, #1
    1dc4:	234c      	movs	r3, #76	; 0x4c
    1dc6:	54d1      	strb	r1, [r2, r3]
			total_bytes = serial_received_bytes_counter - 2;
    1dc8:	4b05      	ldr	r3, [pc, #20]	; (1de0 <serial_rx_cb+0x90>)
    1dca:	785b      	ldrb	r3, [r3, #1]
    1dcc:	3b02      	subs	r3, #2
    1dce:	b2db      	uxtb	r3, r3
    1dd0:	314c      	adds	r1, #76	; 0x4c
    1dd2:	5453      	strb	r3, [r2, r1]
    1dd4:	e7ea      	b.n	1dac <serial_rx_cb+0x5c>
    1dd6:	46c0      	nop			; (mov r8, r8)
    1dd8:	20000310 	.word	0x20000310
    1ddc:	000007f9 	.word	0x000007f9
    1de0:	200001f0 	.word	0x200001f0
    1de4:	20000270 	.word	0x20000270

00001de8 <uart_init>:

void uart_init(){
    1de8:	b570      	push	{r4, r5, r6, lr}

	usart_async_register_callback(&USART_0, USART_ASYNC_TXC_CB, serial_tx_cb);
    1dea:	4c07      	ldr	r4, [pc, #28]	; (1e08 <uart_init+0x20>)
    1dec:	4a07      	ldr	r2, [pc, #28]	; (1e0c <uart_init+0x24>)
    1dee:	2101      	movs	r1, #1
    1df0:	0020      	movs	r0, r4
    1df2:	4d07      	ldr	r5, [pc, #28]	; (1e10 <uart_init+0x28>)
    1df4:	47a8      	blx	r5
	usart_async_register_callback(&USART_0, USART_ASYNC_RXC_CB, serial_rx_cb);
    1df6:	4a07      	ldr	r2, [pc, #28]	; (1e14 <uart_init+0x2c>)
    1df8:	2100      	movs	r1, #0
    1dfa:	0020      	movs	r0, r4
    1dfc:	47a8      	blx	r5
	usart_async_enable(&USART_0);
    1dfe:	0020      	movs	r0, r4
    1e00:	4b05      	ldr	r3, [pc, #20]	; (1e18 <uart_init+0x30>)
    1e02:	4798      	blx	r3
	
}
    1e04:	bd70      	pop	{r4, r5, r6, pc}
    1e06:	46c0      	nop			; (mov r8, r8)
    1e08:	20000310 	.word	0x20000310
    1e0c:	00001d4d 	.word	0x00001d4d
    1e10:	00000c55 	.word	0x00000c55
    1e14:	00001d51 	.word	0x00001d51
    1e18:	00000c29 	.word	0x00000c29

00001e1c <__aeabi_f2uiz>:
    1e1c:	219e      	movs	r1, #158	; 0x9e
    1e1e:	b510      	push	{r4, lr}
    1e20:	05c9      	lsls	r1, r1, #23
    1e22:	1c04      	adds	r4, r0, #0
    1e24:	f001 feb4 	bl	3b90 <__aeabi_fcmpge>
    1e28:	2800      	cmp	r0, #0
    1e2a:	d103      	bne.n	1e34 <__aeabi_f2uiz+0x18>
    1e2c:	1c20      	adds	r0, r4, #0
    1e2e:	f000 fc11 	bl	2654 <__aeabi_f2iz>
    1e32:	bd10      	pop	{r4, pc}
    1e34:	219e      	movs	r1, #158	; 0x9e
    1e36:	1c20      	adds	r0, r4, #0
    1e38:	05c9      	lsls	r1, r1, #23
    1e3a:	f000 fa6f 	bl	231c <__aeabi_fsub>
    1e3e:	f000 fc09 	bl	2654 <__aeabi_f2iz>
    1e42:	2380      	movs	r3, #128	; 0x80
    1e44:	061b      	lsls	r3, r3, #24
    1e46:	469c      	mov	ip, r3
    1e48:	4460      	add	r0, ip
    1e4a:	e7f2      	b.n	1e32 <__aeabi_f2uiz+0x16>

00001e4c <__aeabi_fdiv>:
    1e4c:	b5f0      	push	{r4, r5, r6, r7, lr}
    1e4e:	4657      	mov	r7, sl
    1e50:	464e      	mov	r6, r9
    1e52:	46de      	mov	lr, fp
    1e54:	4645      	mov	r5, r8
    1e56:	b5e0      	push	{r5, r6, r7, lr}
    1e58:	0244      	lsls	r4, r0, #9
    1e5a:	0043      	lsls	r3, r0, #1
    1e5c:	0fc6      	lsrs	r6, r0, #31
    1e5e:	b083      	sub	sp, #12
    1e60:	1c0f      	adds	r7, r1, #0
    1e62:	0a64      	lsrs	r4, r4, #9
    1e64:	0e1b      	lsrs	r3, r3, #24
    1e66:	46b2      	mov	sl, r6
    1e68:	d053      	beq.n	1f12 <__aeabi_fdiv+0xc6>
    1e6a:	2bff      	cmp	r3, #255	; 0xff
    1e6c:	d027      	beq.n	1ebe <__aeabi_fdiv+0x72>
    1e6e:	2280      	movs	r2, #128	; 0x80
    1e70:	00e4      	lsls	r4, r4, #3
    1e72:	04d2      	lsls	r2, r2, #19
    1e74:	4314      	orrs	r4, r2
    1e76:	227f      	movs	r2, #127	; 0x7f
    1e78:	4252      	negs	r2, r2
    1e7a:	4690      	mov	r8, r2
    1e7c:	4498      	add	r8, r3
    1e7e:	2300      	movs	r3, #0
    1e80:	4699      	mov	r9, r3
    1e82:	469b      	mov	fp, r3
    1e84:	027d      	lsls	r5, r7, #9
    1e86:	0078      	lsls	r0, r7, #1
    1e88:	0ffb      	lsrs	r3, r7, #31
    1e8a:	0a6d      	lsrs	r5, r5, #9
    1e8c:	0e00      	lsrs	r0, r0, #24
    1e8e:	9300      	str	r3, [sp, #0]
    1e90:	d024      	beq.n	1edc <__aeabi_fdiv+0x90>
    1e92:	28ff      	cmp	r0, #255	; 0xff
    1e94:	d046      	beq.n	1f24 <__aeabi_fdiv+0xd8>
    1e96:	2380      	movs	r3, #128	; 0x80
    1e98:	2100      	movs	r1, #0
    1e9a:	00ed      	lsls	r5, r5, #3
    1e9c:	04db      	lsls	r3, r3, #19
    1e9e:	431d      	orrs	r5, r3
    1ea0:	387f      	subs	r0, #127	; 0x7f
    1ea2:	4647      	mov	r7, r8
    1ea4:	1a38      	subs	r0, r7, r0
    1ea6:	464f      	mov	r7, r9
    1ea8:	430f      	orrs	r7, r1
    1eaa:	00bf      	lsls	r7, r7, #2
    1eac:	46b9      	mov	r9, r7
    1eae:	0033      	movs	r3, r6
    1eb0:	9a00      	ldr	r2, [sp, #0]
    1eb2:	4f87      	ldr	r7, [pc, #540]	; (20d0 <STACK_SIZE+0xd0>)
    1eb4:	4053      	eors	r3, r2
    1eb6:	464a      	mov	r2, r9
    1eb8:	58ba      	ldr	r2, [r7, r2]
    1eba:	9301      	str	r3, [sp, #4]
    1ebc:	4697      	mov	pc, r2
    1ebe:	2c00      	cmp	r4, #0
    1ec0:	d14e      	bne.n	1f60 <__aeabi_fdiv+0x114>
    1ec2:	2308      	movs	r3, #8
    1ec4:	4699      	mov	r9, r3
    1ec6:	33f7      	adds	r3, #247	; 0xf7
    1ec8:	4698      	mov	r8, r3
    1eca:	3bfd      	subs	r3, #253	; 0xfd
    1ecc:	469b      	mov	fp, r3
    1ece:	027d      	lsls	r5, r7, #9
    1ed0:	0078      	lsls	r0, r7, #1
    1ed2:	0ffb      	lsrs	r3, r7, #31
    1ed4:	0a6d      	lsrs	r5, r5, #9
    1ed6:	0e00      	lsrs	r0, r0, #24
    1ed8:	9300      	str	r3, [sp, #0]
    1eda:	d1da      	bne.n	1e92 <__aeabi_fdiv+0x46>
    1edc:	2d00      	cmp	r5, #0
    1ede:	d126      	bne.n	1f2e <__aeabi_fdiv+0xe2>
    1ee0:	2000      	movs	r0, #0
    1ee2:	2101      	movs	r1, #1
    1ee4:	0033      	movs	r3, r6
    1ee6:	9a00      	ldr	r2, [sp, #0]
    1ee8:	4f7a      	ldr	r7, [pc, #488]	; (20d4 <STACK_SIZE+0xd4>)
    1eea:	4053      	eors	r3, r2
    1eec:	4642      	mov	r2, r8
    1eee:	1a10      	subs	r0, r2, r0
    1ef0:	464a      	mov	r2, r9
    1ef2:	430a      	orrs	r2, r1
    1ef4:	0092      	lsls	r2, r2, #2
    1ef6:	58ba      	ldr	r2, [r7, r2]
    1ef8:	001d      	movs	r5, r3
    1efa:	4697      	mov	pc, r2
    1efc:	9b00      	ldr	r3, [sp, #0]
    1efe:	002c      	movs	r4, r5
    1f00:	469a      	mov	sl, r3
    1f02:	468b      	mov	fp, r1
    1f04:	465b      	mov	r3, fp
    1f06:	2b02      	cmp	r3, #2
    1f08:	d131      	bne.n	1f6e <__aeabi_fdiv+0x122>
    1f0a:	4653      	mov	r3, sl
    1f0c:	21ff      	movs	r1, #255	; 0xff
    1f0e:	2400      	movs	r4, #0
    1f10:	e038      	b.n	1f84 <__aeabi_fdiv+0x138>
    1f12:	2c00      	cmp	r4, #0
    1f14:	d117      	bne.n	1f46 <__aeabi_fdiv+0xfa>
    1f16:	2304      	movs	r3, #4
    1f18:	4699      	mov	r9, r3
    1f1a:	2300      	movs	r3, #0
    1f1c:	4698      	mov	r8, r3
    1f1e:	3301      	adds	r3, #1
    1f20:	469b      	mov	fp, r3
    1f22:	e7af      	b.n	1e84 <__aeabi_fdiv+0x38>
    1f24:	20ff      	movs	r0, #255	; 0xff
    1f26:	2d00      	cmp	r5, #0
    1f28:	d10b      	bne.n	1f42 <__aeabi_fdiv+0xf6>
    1f2a:	2102      	movs	r1, #2
    1f2c:	e7da      	b.n	1ee4 <__aeabi_fdiv+0x98>
    1f2e:	0028      	movs	r0, r5
    1f30:	f001 fe38 	bl	3ba4 <__clzsi2>
    1f34:	1f43      	subs	r3, r0, #5
    1f36:	409d      	lsls	r5, r3
    1f38:	2376      	movs	r3, #118	; 0x76
    1f3a:	425b      	negs	r3, r3
    1f3c:	1a18      	subs	r0, r3, r0
    1f3e:	2100      	movs	r1, #0
    1f40:	e7af      	b.n	1ea2 <__aeabi_fdiv+0x56>
    1f42:	2103      	movs	r1, #3
    1f44:	e7ad      	b.n	1ea2 <__aeabi_fdiv+0x56>
    1f46:	0020      	movs	r0, r4
    1f48:	f001 fe2c 	bl	3ba4 <__clzsi2>
    1f4c:	1f43      	subs	r3, r0, #5
    1f4e:	409c      	lsls	r4, r3
    1f50:	2376      	movs	r3, #118	; 0x76
    1f52:	425b      	negs	r3, r3
    1f54:	1a1b      	subs	r3, r3, r0
    1f56:	4698      	mov	r8, r3
    1f58:	2300      	movs	r3, #0
    1f5a:	4699      	mov	r9, r3
    1f5c:	469b      	mov	fp, r3
    1f5e:	e791      	b.n	1e84 <__aeabi_fdiv+0x38>
    1f60:	230c      	movs	r3, #12
    1f62:	4699      	mov	r9, r3
    1f64:	33f3      	adds	r3, #243	; 0xf3
    1f66:	4698      	mov	r8, r3
    1f68:	3bfc      	subs	r3, #252	; 0xfc
    1f6a:	469b      	mov	fp, r3
    1f6c:	e78a      	b.n	1e84 <__aeabi_fdiv+0x38>
    1f6e:	2b03      	cmp	r3, #3
    1f70:	d100      	bne.n	1f74 <__aeabi_fdiv+0x128>
    1f72:	e0a5      	b.n	20c0 <STACK_SIZE+0xc0>
    1f74:	4655      	mov	r5, sl
    1f76:	2b01      	cmp	r3, #1
    1f78:	d000      	beq.n	1f7c <__aeabi_fdiv+0x130>
    1f7a:	e081      	b.n	2080 <STACK_SIZE+0x80>
    1f7c:	2301      	movs	r3, #1
    1f7e:	2100      	movs	r1, #0
    1f80:	2400      	movs	r4, #0
    1f82:	402b      	ands	r3, r5
    1f84:	0264      	lsls	r4, r4, #9
    1f86:	05c9      	lsls	r1, r1, #23
    1f88:	0a60      	lsrs	r0, r4, #9
    1f8a:	07db      	lsls	r3, r3, #31
    1f8c:	4308      	orrs	r0, r1
    1f8e:	4318      	orrs	r0, r3
    1f90:	b003      	add	sp, #12
    1f92:	bc3c      	pop	{r2, r3, r4, r5}
    1f94:	4690      	mov	r8, r2
    1f96:	4699      	mov	r9, r3
    1f98:	46a2      	mov	sl, r4
    1f9a:	46ab      	mov	fp, r5
    1f9c:	bdf0      	pop	{r4, r5, r6, r7, pc}
    1f9e:	2480      	movs	r4, #128	; 0x80
    1fa0:	2300      	movs	r3, #0
    1fa2:	03e4      	lsls	r4, r4, #15
    1fa4:	21ff      	movs	r1, #255	; 0xff
    1fa6:	e7ed      	b.n	1f84 <__aeabi_fdiv+0x138>
    1fa8:	21ff      	movs	r1, #255	; 0xff
    1faa:	2400      	movs	r4, #0
    1fac:	e7ea      	b.n	1f84 <__aeabi_fdiv+0x138>
    1fae:	2301      	movs	r3, #1
    1fb0:	1a59      	subs	r1, r3, r1
    1fb2:	291b      	cmp	r1, #27
    1fb4:	dd66      	ble.n	2084 <STACK_SIZE+0x84>
    1fb6:	9a01      	ldr	r2, [sp, #4]
    1fb8:	4013      	ands	r3, r2
    1fba:	2100      	movs	r1, #0
    1fbc:	2400      	movs	r4, #0
    1fbe:	e7e1      	b.n	1f84 <__aeabi_fdiv+0x138>
    1fc0:	2380      	movs	r3, #128	; 0x80
    1fc2:	03db      	lsls	r3, r3, #15
    1fc4:	421c      	tst	r4, r3
    1fc6:	d038      	beq.n	203a <STACK_SIZE+0x3a>
    1fc8:	421d      	tst	r5, r3
    1fca:	d051      	beq.n	2070 <STACK_SIZE+0x70>
    1fcc:	431c      	orrs	r4, r3
    1fce:	0264      	lsls	r4, r4, #9
    1fd0:	0a64      	lsrs	r4, r4, #9
    1fd2:	0033      	movs	r3, r6
    1fd4:	21ff      	movs	r1, #255	; 0xff
    1fd6:	e7d5      	b.n	1f84 <__aeabi_fdiv+0x138>
    1fd8:	0163      	lsls	r3, r4, #5
    1fda:	016c      	lsls	r4, r5, #5
    1fdc:	42a3      	cmp	r3, r4
    1fde:	d23b      	bcs.n	2058 <STACK_SIZE+0x58>
    1fe0:	261b      	movs	r6, #27
    1fe2:	2100      	movs	r1, #0
    1fe4:	3801      	subs	r0, #1
    1fe6:	2501      	movs	r5, #1
    1fe8:	001f      	movs	r7, r3
    1fea:	0049      	lsls	r1, r1, #1
    1fec:	005b      	lsls	r3, r3, #1
    1fee:	2f00      	cmp	r7, #0
    1ff0:	db01      	blt.n	1ff6 <__aeabi_fdiv+0x1aa>
    1ff2:	429c      	cmp	r4, r3
    1ff4:	d801      	bhi.n	1ffa <__aeabi_fdiv+0x1ae>
    1ff6:	1b1b      	subs	r3, r3, r4
    1ff8:	4329      	orrs	r1, r5
    1ffa:	3e01      	subs	r6, #1
    1ffc:	2e00      	cmp	r6, #0
    1ffe:	d1f3      	bne.n	1fe8 <__aeabi_fdiv+0x19c>
    2000:	001c      	movs	r4, r3
    2002:	1e63      	subs	r3, r4, #1
    2004:	419c      	sbcs	r4, r3
    2006:	430c      	orrs	r4, r1
    2008:	0001      	movs	r1, r0
    200a:	317f      	adds	r1, #127	; 0x7f
    200c:	2900      	cmp	r1, #0
    200e:	ddce      	ble.n	1fae <__aeabi_fdiv+0x162>
    2010:	0763      	lsls	r3, r4, #29
    2012:	d004      	beq.n	201e <STACK_SIZE+0x1e>
    2014:	230f      	movs	r3, #15
    2016:	4023      	ands	r3, r4
    2018:	2b04      	cmp	r3, #4
    201a:	d000      	beq.n	201e <STACK_SIZE+0x1e>
    201c:	3404      	adds	r4, #4
    201e:	0123      	lsls	r3, r4, #4
    2020:	d503      	bpl.n	202a <STACK_SIZE+0x2a>
    2022:	0001      	movs	r1, r0
    2024:	4b2c      	ldr	r3, [pc, #176]	; (20d8 <STACK_SIZE+0xd8>)
    2026:	3180      	adds	r1, #128	; 0x80
    2028:	401c      	ands	r4, r3
    202a:	29fe      	cmp	r1, #254	; 0xfe
    202c:	dd0d      	ble.n	204a <STACK_SIZE+0x4a>
    202e:	2301      	movs	r3, #1
    2030:	9a01      	ldr	r2, [sp, #4]
    2032:	21ff      	movs	r1, #255	; 0xff
    2034:	4013      	ands	r3, r2
    2036:	2400      	movs	r4, #0
    2038:	e7a4      	b.n	1f84 <__aeabi_fdiv+0x138>
    203a:	2380      	movs	r3, #128	; 0x80
    203c:	03db      	lsls	r3, r3, #15
    203e:	431c      	orrs	r4, r3
    2040:	0264      	lsls	r4, r4, #9
    2042:	0a64      	lsrs	r4, r4, #9
    2044:	0033      	movs	r3, r6
    2046:	21ff      	movs	r1, #255	; 0xff
    2048:	e79c      	b.n	1f84 <__aeabi_fdiv+0x138>
    204a:	2301      	movs	r3, #1
    204c:	9a01      	ldr	r2, [sp, #4]
    204e:	01a4      	lsls	r4, r4, #6
    2050:	0a64      	lsrs	r4, r4, #9
    2052:	b2c9      	uxtb	r1, r1
    2054:	4013      	ands	r3, r2
    2056:	e795      	b.n	1f84 <__aeabi_fdiv+0x138>
    2058:	1b1b      	subs	r3, r3, r4
    205a:	261a      	movs	r6, #26
    205c:	2101      	movs	r1, #1
    205e:	e7c2      	b.n	1fe6 <__aeabi_fdiv+0x19a>
    2060:	9b00      	ldr	r3, [sp, #0]
    2062:	468b      	mov	fp, r1
    2064:	469a      	mov	sl, r3
    2066:	2400      	movs	r4, #0
    2068:	e74c      	b.n	1f04 <__aeabi_fdiv+0xb8>
    206a:	0263      	lsls	r3, r4, #9
    206c:	d5e5      	bpl.n	203a <STACK_SIZE+0x3a>
    206e:	2500      	movs	r5, #0
    2070:	2480      	movs	r4, #128	; 0x80
    2072:	03e4      	lsls	r4, r4, #15
    2074:	432c      	orrs	r4, r5
    2076:	0264      	lsls	r4, r4, #9
    2078:	0a64      	lsrs	r4, r4, #9
    207a:	9b00      	ldr	r3, [sp, #0]
    207c:	21ff      	movs	r1, #255	; 0xff
    207e:	e781      	b.n	1f84 <__aeabi_fdiv+0x138>
    2080:	9501      	str	r5, [sp, #4]
    2082:	e7c1      	b.n	2008 <STACK_SIZE+0x8>
    2084:	0023      	movs	r3, r4
    2086:	2020      	movs	r0, #32
    2088:	40cb      	lsrs	r3, r1
    208a:	1a41      	subs	r1, r0, r1
    208c:	408c      	lsls	r4, r1
    208e:	1e61      	subs	r1, r4, #1
    2090:	418c      	sbcs	r4, r1
    2092:	431c      	orrs	r4, r3
    2094:	0763      	lsls	r3, r4, #29
    2096:	d004      	beq.n	20a2 <STACK_SIZE+0xa2>
    2098:	230f      	movs	r3, #15
    209a:	4023      	ands	r3, r4
    209c:	2b04      	cmp	r3, #4
    209e:	d000      	beq.n	20a2 <STACK_SIZE+0xa2>
    20a0:	3404      	adds	r4, #4
    20a2:	0163      	lsls	r3, r4, #5
    20a4:	d505      	bpl.n	20b2 <STACK_SIZE+0xb2>
    20a6:	2301      	movs	r3, #1
    20a8:	9a01      	ldr	r2, [sp, #4]
    20aa:	2101      	movs	r1, #1
    20ac:	4013      	ands	r3, r2
    20ae:	2400      	movs	r4, #0
    20b0:	e768      	b.n	1f84 <__aeabi_fdiv+0x138>
    20b2:	2301      	movs	r3, #1
    20b4:	9a01      	ldr	r2, [sp, #4]
    20b6:	01a4      	lsls	r4, r4, #6
    20b8:	0a64      	lsrs	r4, r4, #9
    20ba:	4013      	ands	r3, r2
    20bc:	2100      	movs	r1, #0
    20be:	e761      	b.n	1f84 <__aeabi_fdiv+0x138>
    20c0:	2380      	movs	r3, #128	; 0x80
    20c2:	03db      	lsls	r3, r3, #15
    20c4:	431c      	orrs	r4, r3
    20c6:	0264      	lsls	r4, r4, #9
    20c8:	0a64      	lsrs	r4, r4, #9
    20ca:	4653      	mov	r3, sl
    20cc:	21ff      	movs	r1, #255	; 0xff
    20ce:	e759      	b.n	1f84 <__aeabi_fdiv+0x138>
    20d0:	00005ff0 	.word	0x00005ff0
    20d4:	00006030 	.word	0x00006030
    20d8:	f7ffffff 	.word	0xf7ffffff

000020dc <__aeabi_fmul>:
    20dc:	b5f8      	push	{r3, r4, r5, r6, r7, lr}
    20de:	4657      	mov	r7, sl
    20e0:	464e      	mov	r6, r9
    20e2:	4645      	mov	r5, r8
    20e4:	46de      	mov	lr, fp
    20e6:	b5e0      	push	{r5, r6, r7, lr}
    20e8:	0247      	lsls	r7, r0, #9
    20ea:	0046      	lsls	r6, r0, #1
    20ec:	4688      	mov	r8, r1
    20ee:	0a7f      	lsrs	r7, r7, #9
    20f0:	0e36      	lsrs	r6, r6, #24
    20f2:	0fc4      	lsrs	r4, r0, #31
    20f4:	2e00      	cmp	r6, #0
    20f6:	d047      	beq.n	2188 <__aeabi_fmul+0xac>
    20f8:	2eff      	cmp	r6, #255	; 0xff
    20fa:	d024      	beq.n	2146 <__aeabi_fmul+0x6a>
    20fc:	00fb      	lsls	r3, r7, #3
    20fe:	2780      	movs	r7, #128	; 0x80
    2100:	04ff      	lsls	r7, r7, #19
    2102:	431f      	orrs	r7, r3
    2104:	2300      	movs	r3, #0
    2106:	4699      	mov	r9, r3
    2108:	469a      	mov	sl, r3
    210a:	3e7f      	subs	r6, #127	; 0x7f
    210c:	4643      	mov	r3, r8
    210e:	025d      	lsls	r5, r3, #9
    2110:	0058      	lsls	r0, r3, #1
    2112:	0fdb      	lsrs	r3, r3, #31
    2114:	0a6d      	lsrs	r5, r5, #9
    2116:	0e00      	lsrs	r0, r0, #24
    2118:	4698      	mov	r8, r3
    211a:	d043      	beq.n	21a4 <__aeabi_fmul+0xc8>
    211c:	28ff      	cmp	r0, #255	; 0xff
    211e:	d03b      	beq.n	2198 <__aeabi_fmul+0xbc>
    2120:	00eb      	lsls	r3, r5, #3
    2122:	2580      	movs	r5, #128	; 0x80
    2124:	2200      	movs	r2, #0
    2126:	04ed      	lsls	r5, r5, #19
    2128:	431d      	orrs	r5, r3
    212a:	387f      	subs	r0, #127	; 0x7f
    212c:	1836      	adds	r6, r6, r0
    212e:	1c73      	adds	r3, r6, #1
    2130:	4641      	mov	r1, r8
    2132:	469b      	mov	fp, r3
    2134:	464b      	mov	r3, r9
    2136:	4061      	eors	r1, r4
    2138:	4313      	orrs	r3, r2
    213a:	2b0f      	cmp	r3, #15
    213c:	d864      	bhi.n	2208 <__aeabi_fmul+0x12c>
    213e:	4875      	ldr	r0, [pc, #468]	; (2314 <__aeabi_fmul+0x238>)
    2140:	009b      	lsls	r3, r3, #2
    2142:	58c3      	ldr	r3, [r0, r3]
    2144:	469f      	mov	pc, r3
    2146:	2f00      	cmp	r7, #0
    2148:	d142      	bne.n	21d0 <__aeabi_fmul+0xf4>
    214a:	2308      	movs	r3, #8
    214c:	4699      	mov	r9, r3
    214e:	3b06      	subs	r3, #6
    2150:	26ff      	movs	r6, #255	; 0xff
    2152:	469a      	mov	sl, r3
    2154:	e7da      	b.n	210c <__aeabi_fmul+0x30>
    2156:	4641      	mov	r1, r8
    2158:	2a02      	cmp	r2, #2
    215a:	d028      	beq.n	21ae <__aeabi_fmul+0xd2>
    215c:	2a03      	cmp	r2, #3
    215e:	d100      	bne.n	2162 <__aeabi_fmul+0x86>
    2160:	e0ce      	b.n	2300 <__aeabi_fmul+0x224>
    2162:	2a01      	cmp	r2, #1
    2164:	d000      	beq.n	2168 <__aeabi_fmul+0x8c>
    2166:	e0ac      	b.n	22c2 <__aeabi_fmul+0x1e6>
    2168:	4011      	ands	r1, r2
    216a:	2000      	movs	r0, #0
    216c:	2200      	movs	r2, #0
    216e:	b2cc      	uxtb	r4, r1
    2170:	0240      	lsls	r0, r0, #9
    2172:	05d2      	lsls	r2, r2, #23
    2174:	0a40      	lsrs	r0, r0, #9
    2176:	07e4      	lsls	r4, r4, #31
    2178:	4310      	orrs	r0, r2
    217a:	4320      	orrs	r0, r4
    217c:	bc3c      	pop	{r2, r3, r4, r5}
    217e:	4690      	mov	r8, r2
    2180:	4699      	mov	r9, r3
    2182:	46a2      	mov	sl, r4
    2184:	46ab      	mov	fp, r5
    2186:	bdf8      	pop	{r3, r4, r5, r6, r7, pc}
    2188:	2f00      	cmp	r7, #0
    218a:	d115      	bne.n	21b8 <__aeabi_fmul+0xdc>
    218c:	2304      	movs	r3, #4
    218e:	4699      	mov	r9, r3
    2190:	3b03      	subs	r3, #3
    2192:	2600      	movs	r6, #0
    2194:	469a      	mov	sl, r3
    2196:	e7b9      	b.n	210c <__aeabi_fmul+0x30>
    2198:	20ff      	movs	r0, #255	; 0xff
    219a:	2202      	movs	r2, #2
    219c:	2d00      	cmp	r5, #0
    219e:	d0c5      	beq.n	212c <__aeabi_fmul+0x50>
    21a0:	2203      	movs	r2, #3
    21a2:	e7c3      	b.n	212c <__aeabi_fmul+0x50>
    21a4:	2d00      	cmp	r5, #0
    21a6:	d119      	bne.n	21dc <__aeabi_fmul+0x100>
    21a8:	2000      	movs	r0, #0
    21aa:	2201      	movs	r2, #1
    21ac:	e7be      	b.n	212c <__aeabi_fmul+0x50>
    21ae:	2401      	movs	r4, #1
    21b0:	22ff      	movs	r2, #255	; 0xff
    21b2:	400c      	ands	r4, r1
    21b4:	2000      	movs	r0, #0
    21b6:	e7db      	b.n	2170 <__aeabi_fmul+0x94>
    21b8:	0038      	movs	r0, r7
    21ba:	f001 fcf3 	bl	3ba4 <__clzsi2>
    21be:	2676      	movs	r6, #118	; 0x76
    21c0:	1f43      	subs	r3, r0, #5
    21c2:	409f      	lsls	r7, r3
    21c4:	2300      	movs	r3, #0
    21c6:	4276      	negs	r6, r6
    21c8:	1a36      	subs	r6, r6, r0
    21ca:	4699      	mov	r9, r3
    21cc:	469a      	mov	sl, r3
    21ce:	e79d      	b.n	210c <__aeabi_fmul+0x30>
    21d0:	230c      	movs	r3, #12
    21d2:	4699      	mov	r9, r3
    21d4:	3b09      	subs	r3, #9
    21d6:	26ff      	movs	r6, #255	; 0xff
    21d8:	469a      	mov	sl, r3
    21da:	e797      	b.n	210c <__aeabi_fmul+0x30>
    21dc:	0028      	movs	r0, r5
    21de:	f001 fce1 	bl	3ba4 <__clzsi2>
    21e2:	1f43      	subs	r3, r0, #5
    21e4:	409d      	lsls	r5, r3
    21e6:	2376      	movs	r3, #118	; 0x76
    21e8:	425b      	negs	r3, r3
    21ea:	1a18      	subs	r0, r3, r0
    21ec:	2200      	movs	r2, #0
    21ee:	e79d      	b.n	212c <__aeabi_fmul+0x50>
    21f0:	2080      	movs	r0, #128	; 0x80
    21f2:	2400      	movs	r4, #0
    21f4:	03c0      	lsls	r0, r0, #15
    21f6:	22ff      	movs	r2, #255	; 0xff
    21f8:	e7ba      	b.n	2170 <__aeabi_fmul+0x94>
    21fa:	003d      	movs	r5, r7
    21fc:	4652      	mov	r2, sl
    21fe:	e7ab      	b.n	2158 <__aeabi_fmul+0x7c>
    2200:	003d      	movs	r5, r7
    2202:	0021      	movs	r1, r4
    2204:	4652      	mov	r2, sl
    2206:	e7a7      	b.n	2158 <__aeabi_fmul+0x7c>
    2208:	0c3b      	lsrs	r3, r7, #16
    220a:	469c      	mov	ip, r3
    220c:	042a      	lsls	r2, r5, #16
    220e:	0c12      	lsrs	r2, r2, #16
    2210:	0c2b      	lsrs	r3, r5, #16
    2212:	0014      	movs	r4, r2
    2214:	4660      	mov	r0, ip
    2216:	4665      	mov	r5, ip
    2218:	043f      	lsls	r7, r7, #16
    221a:	0c3f      	lsrs	r7, r7, #16
    221c:	437c      	muls	r4, r7
    221e:	4342      	muls	r2, r0
    2220:	435d      	muls	r5, r3
    2222:	437b      	muls	r3, r7
    2224:	0c27      	lsrs	r7, r4, #16
    2226:	189b      	adds	r3, r3, r2
    2228:	18ff      	adds	r7, r7, r3
    222a:	42ba      	cmp	r2, r7
    222c:	d903      	bls.n	2236 <__aeabi_fmul+0x15a>
    222e:	2380      	movs	r3, #128	; 0x80
    2230:	025b      	lsls	r3, r3, #9
    2232:	469c      	mov	ip, r3
    2234:	4465      	add	r5, ip
    2236:	0424      	lsls	r4, r4, #16
    2238:	043a      	lsls	r2, r7, #16
    223a:	0c24      	lsrs	r4, r4, #16
    223c:	1912      	adds	r2, r2, r4
    223e:	0193      	lsls	r3, r2, #6
    2240:	1e5c      	subs	r4, r3, #1
    2242:	41a3      	sbcs	r3, r4
    2244:	0c3f      	lsrs	r7, r7, #16
    2246:	0e92      	lsrs	r2, r2, #26
    2248:	197d      	adds	r5, r7, r5
    224a:	431a      	orrs	r2, r3
    224c:	01ad      	lsls	r5, r5, #6
    224e:	4315      	orrs	r5, r2
    2250:	012b      	lsls	r3, r5, #4
    2252:	d504      	bpl.n	225e <__aeabi_fmul+0x182>
    2254:	2301      	movs	r3, #1
    2256:	465e      	mov	r6, fp
    2258:	086a      	lsrs	r2, r5, #1
    225a:	401d      	ands	r5, r3
    225c:	4315      	orrs	r5, r2
    225e:	0032      	movs	r2, r6
    2260:	327f      	adds	r2, #127	; 0x7f
    2262:	2a00      	cmp	r2, #0
    2264:	dd25      	ble.n	22b2 <__aeabi_fmul+0x1d6>
    2266:	076b      	lsls	r3, r5, #29
    2268:	d004      	beq.n	2274 <__aeabi_fmul+0x198>
    226a:	230f      	movs	r3, #15
    226c:	402b      	ands	r3, r5
    226e:	2b04      	cmp	r3, #4
    2270:	d000      	beq.n	2274 <__aeabi_fmul+0x198>
    2272:	3504      	adds	r5, #4
    2274:	012b      	lsls	r3, r5, #4
    2276:	d503      	bpl.n	2280 <__aeabi_fmul+0x1a4>
    2278:	0032      	movs	r2, r6
    227a:	4b27      	ldr	r3, [pc, #156]	; (2318 <__aeabi_fmul+0x23c>)
    227c:	3280      	adds	r2, #128	; 0x80
    227e:	401d      	ands	r5, r3
    2280:	2afe      	cmp	r2, #254	; 0xfe
    2282:	dc94      	bgt.n	21ae <__aeabi_fmul+0xd2>
    2284:	2401      	movs	r4, #1
    2286:	01a8      	lsls	r0, r5, #6
    2288:	0a40      	lsrs	r0, r0, #9
    228a:	b2d2      	uxtb	r2, r2
    228c:	400c      	ands	r4, r1
    228e:	e76f      	b.n	2170 <__aeabi_fmul+0x94>
    2290:	2080      	movs	r0, #128	; 0x80
    2292:	03c0      	lsls	r0, r0, #15
    2294:	4207      	tst	r7, r0
    2296:	d007      	beq.n	22a8 <__aeabi_fmul+0x1cc>
    2298:	4205      	tst	r5, r0
    229a:	d105      	bne.n	22a8 <__aeabi_fmul+0x1cc>
    229c:	4328      	orrs	r0, r5
    229e:	0240      	lsls	r0, r0, #9
    22a0:	0a40      	lsrs	r0, r0, #9
    22a2:	4644      	mov	r4, r8
    22a4:	22ff      	movs	r2, #255	; 0xff
    22a6:	e763      	b.n	2170 <__aeabi_fmul+0x94>
    22a8:	4338      	orrs	r0, r7
    22aa:	0240      	lsls	r0, r0, #9
    22ac:	0a40      	lsrs	r0, r0, #9
    22ae:	22ff      	movs	r2, #255	; 0xff
    22b0:	e75e      	b.n	2170 <__aeabi_fmul+0x94>
    22b2:	2401      	movs	r4, #1
    22b4:	1aa3      	subs	r3, r4, r2
    22b6:	2b1b      	cmp	r3, #27
    22b8:	dd05      	ble.n	22c6 <__aeabi_fmul+0x1ea>
    22ba:	400c      	ands	r4, r1
    22bc:	2200      	movs	r2, #0
    22be:	2000      	movs	r0, #0
    22c0:	e756      	b.n	2170 <__aeabi_fmul+0x94>
    22c2:	465e      	mov	r6, fp
    22c4:	e7cb      	b.n	225e <__aeabi_fmul+0x182>
    22c6:	002a      	movs	r2, r5
    22c8:	2020      	movs	r0, #32
    22ca:	40da      	lsrs	r2, r3
    22cc:	1ac3      	subs	r3, r0, r3
    22ce:	409d      	lsls	r5, r3
    22d0:	002b      	movs	r3, r5
    22d2:	1e5d      	subs	r5, r3, #1
    22d4:	41ab      	sbcs	r3, r5
    22d6:	4313      	orrs	r3, r2
    22d8:	075a      	lsls	r2, r3, #29
    22da:	d004      	beq.n	22e6 <__aeabi_fmul+0x20a>
    22dc:	220f      	movs	r2, #15
    22de:	401a      	ands	r2, r3
    22e0:	2a04      	cmp	r2, #4
    22e2:	d000      	beq.n	22e6 <__aeabi_fmul+0x20a>
    22e4:	3304      	adds	r3, #4
    22e6:	015a      	lsls	r2, r3, #5
    22e8:	d504      	bpl.n	22f4 <__aeabi_fmul+0x218>
    22ea:	2401      	movs	r4, #1
    22ec:	2201      	movs	r2, #1
    22ee:	400c      	ands	r4, r1
    22f0:	2000      	movs	r0, #0
    22f2:	e73d      	b.n	2170 <__aeabi_fmul+0x94>
    22f4:	2401      	movs	r4, #1
    22f6:	019b      	lsls	r3, r3, #6
    22f8:	0a58      	lsrs	r0, r3, #9
    22fa:	400c      	ands	r4, r1
    22fc:	2200      	movs	r2, #0
    22fe:	e737      	b.n	2170 <__aeabi_fmul+0x94>
    2300:	2080      	movs	r0, #128	; 0x80
    2302:	2401      	movs	r4, #1
    2304:	03c0      	lsls	r0, r0, #15
    2306:	4328      	orrs	r0, r5
    2308:	0240      	lsls	r0, r0, #9
    230a:	0a40      	lsrs	r0, r0, #9
    230c:	400c      	ands	r4, r1
    230e:	22ff      	movs	r2, #255	; 0xff
    2310:	e72e      	b.n	2170 <__aeabi_fmul+0x94>
    2312:	46c0      	nop			; (mov r8, r8)
    2314:	00006070 	.word	0x00006070
    2318:	f7ffffff 	.word	0xf7ffffff

0000231c <__aeabi_fsub>:
    231c:	b5f0      	push	{r4, r5, r6, r7, lr}
    231e:	464f      	mov	r7, r9
    2320:	46d6      	mov	lr, sl
    2322:	4646      	mov	r6, r8
    2324:	0044      	lsls	r4, r0, #1
    2326:	b5c0      	push	{r6, r7, lr}
    2328:	0fc2      	lsrs	r2, r0, #31
    232a:	0247      	lsls	r7, r0, #9
    232c:	0248      	lsls	r0, r1, #9
    232e:	0a40      	lsrs	r0, r0, #9
    2330:	4684      	mov	ip, r0
    2332:	4666      	mov	r6, ip
    2334:	0a7b      	lsrs	r3, r7, #9
    2336:	0048      	lsls	r0, r1, #1
    2338:	0fc9      	lsrs	r1, r1, #31
    233a:	469a      	mov	sl, r3
    233c:	0e24      	lsrs	r4, r4, #24
    233e:	0015      	movs	r5, r2
    2340:	00db      	lsls	r3, r3, #3
    2342:	0e00      	lsrs	r0, r0, #24
    2344:	4689      	mov	r9, r1
    2346:	00f6      	lsls	r6, r6, #3
    2348:	28ff      	cmp	r0, #255	; 0xff
    234a:	d100      	bne.n	234e <__aeabi_fsub+0x32>
    234c:	e08f      	b.n	246e <__aeabi_fsub+0x152>
    234e:	2101      	movs	r1, #1
    2350:	464f      	mov	r7, r9
    2352:	404f      	eors	r7, r1
    2354:	0039      	movs	r1, r7
    2356:	4291      	cmp	r1, r2
    2358:	d066      	beq.n	2428 <__aeabi_fsub+0x10c>
    235a:	1a22      	subs	r2, r4, r0
    235c:	2a00      	cmp	r2, #0
    235e:	dc00      	bgt.n	2362 <__aeabi_fsub+0x46>
    2360:	e09d      	b.n	249e <__aeabi_fsub+0x182>
    2362:	2800      	cmp	r0, #0
    2364:	d13d      	bne.n	23e2 <__aeabi_fsub+0xc6>
    2366:	2e00      	cmp	r6, #0
    2368:	d100      	bne.n	236c <__aeabi_fsub+0x50>
    236a:	e08b      	b.n	2484 <__aeabi_fsub+0x168>
    236c:	1e51      	subs	r1, r2, #1
    236e:	2900      	cmp	r1, #0
    2370:	d000      	beq.n	2374 <__aeabi_fsub+0x58>
    2372:	e0b5      	b.n	24e0 <__aeabi_fsub+0x1c4>
    2374:	2401      	movs	r4, #1
    2376:	1b9b      	subs	r3, r3, r6
    2378:	015a      	lsls	r2, r3, #5
    237a:	d544      	bpl.n	2406 <__aeabi_fsub+0xea>
    237c:	019b      	lsls	r3, r3, #6
    237e:	099f      	lsrs	r7, r3, #6
    2380:	0038      	movs	r0, r7
    2382:	f001 fc0f 	bl	3ba4 <__clzsi2>
    2386:	3805      	subs	r0, #5
    2388:	4087      	lsls	r7, r0
    238a:	4284      	cmp	r4, r0
    238c:	dd00      	ble.n	2390 <__aeabi_fsub+0x74>
    238e:	e096      	b.n	24be <__aeabi_fsub+0x1a2>
    2390:	1b04      	subs	r4, r0, r4
    2392:	003a      	movs	r2, r7
    2394:	2020      	movs	r0, #32
    2396:	3401      	adds	r4, #1
    2398:	40e2      	lsrs	r2, r4
    239a:	1b04      	subs	r4, r0, r4
    239c:	40a7      	lsls	r7, r4
    239e:	003b      	movs	r3, r7
    23a0:	1e5f      	subs	r7, r3, #1
    23a2:	41bb      	sbcs	r3, r7
    23a4:	2400      	movs	r4, #0
    23a6:	4313      	orrs	r3, r2
    23a8:	075a      	lsls	r2, r3, #29
    23aa:	d004      	beq.n	23b6 <__aeabi_fsub+0x9a>
    23ac:	220f      	movs	r2, #15
    23ae:	401a      	ands	r2, r3
    23b0:	2a04      	cmp	r2, #4
    23b2:	d000      	beq.n	23b6 <__aeabi_fsub+0x9a>
    23b4:	3304      	adds	r3, #4
    23b6:	015a      	lsls	r2, r3, #5
    23b8:	d527      	bpl.n	240a <__aeabi_fsub+0xee>
    23ba:	3401      	adds	r4, #1
    23bc:	2cff      	cmp	r4, #255	; 0xff
    23be:	d100      	bne.n	23c2 <__aeabi_fsub+0xa6>
    23c0:	e079      	b.n	24b6 <__aeabi_fsub+0x19a>
    23c2:	2201      	movs	r2, #1
    23c4:	019b      	lsls	r3, r3, #6
    23c6:	0a5b      	lsrs	r3, r3, #9
    23c8:	b2e4      	uxtb	r4, r4
    23ca:	402a      	ands	r2, r5
    23cc:	025b      	lsls	r3, r3, #9
    23ce:	05e4      	lsls	r4, r4, #23
    23d0:	0a58      	lsrs	r0, r3, #9
    23d2:	07d2      	lsls	r2, r2, #31
    23d4:	4320      	orrs	r0, r4
    23d6:	4310      	orrs	r0, r2
    23d8:	bc1c      	pop	{r2, r3, r4}
    23da:	4690      	mov	r8, r2
    23dc:	4699      	mov	r9, r3
    23de:	46a2      	mov	sl, r4
    23e0:	bdf0      	pop	{r4, r5, r6, r7, pc}
    23e2:	2cff      	cmp	r4, #255	; 0xff
    23e4:	d0e0      	beq.n	23a8 <__aeabi_fsub+0x8c>
    23e6:	2180      	movs	r1, #128	; 0x80
    23e8:	04c9      	lsls	r1, r1, #19
    23ea:	430e      	orrs	r6, r1
    23ec:	2a1b      	cmp	r2, #27
    23ee:	dc7b      	bgt.n	24e8 <__aeabi_fsub+0x1cc>
    23f0:	0031      	movs	r1, r6
    23f2:	2020      	movs	r0, #32
    23f4:	40d1      	lsrs	r1, r2
    23f6:	1a82      	subs	r2, r0, r2
    23f8:	4096      	lsls	r6, r2
    23fa:	1e72      	subs	r2, r6, #1
    23fc:	4196      	sbcs	r6, r2
    23fe:	430e      	orrs	r6, r1
    2400:	1b9b      	subs	r3, r3, r6
    2402:	015a      	lsls	r2, r3, #5
    2404:	d4ba      	bmi.n	237c <__aeabi_fsub+0x60>
    2406:	075a      	lsls	r2, r3, #29
    2408:	d1d0      	bne.n	23ac <__aeabi_fsub+0x90>
    240a:	2201      	movs	r2, #1
    240c:	08df      	lsrs	r7, r3, #3
    240e:	402a      	ands	r2, r5
    2410:	2cff      	cmp	r4, #255	; 0xff
    2412:	d133      	bne.n	247c <__aeabi_fsub+0x160>
    2414:	2f00      	cmp	r7, #0
    2416:	d100      	bne.n	241a <__aeabi_fsub+0xfe>
    2418:	e0a8      	b.n	256c <__aeabi_fsub+0x250>
    241a:	2380      	movs	r3, #128	; 0x80
    241c:	03db      	lsls	r3, r3, #15
    241e:	433b      	orrs	r3, r7
    2420:	025b      	lsls	r3, r3, #9
    2422:	0a5b      	lsrs	r3, r3, #9
    2424:	24ff      	movs	r4, #255	; 0xff
    2426:	e7d1      	b.n	23cc <__aeabi_fsub+0xb0>
    2428:	1a21      	subs	r1, r4, r0
    242a:	2900      	cmp	r1, #0
    242c:	dd4c      	ble.n	24c8 <__aeabi_fsub+0x1ac>
    242e:	2800      	cmp	r0, #0
    2430:	d02a      	beq.n	2488 <__aeabi_fsub+0x16c>
    2432:	2cff      	cmp	r4, #255	; 0xff
    2434:	d0b8      	beq.n	23a8 <__aeabi_fsub+0x8c>
    2436:	2080      	movs	r0, #128	; 0x80
    2438:	04c0      	lsls	r0, r0, #19
    243a:	4306      	orrs	r6, r0
    243c:	291b      	cmp	r1, #27
    243e:	dd00      	ble.n	2442 <__aeabi_fsub+0x126>
    2440:	e0af      	b.n	25a2 <__aeabi_fsub+0x286>
    2442:	0030      	movs	r0, r6
    2444:	2720      	movs	r7, #32
    2446:	40c8      	lsrs	r0, r1
    2448:	1a79      	subs	r1, r7, r1
    244a:	408e      	lsls	r6, r1
    244c:	1e71      	subs	r1, r6, #1
    244e:	418e      	sbcs	r6, r1
    2450:	4306      	orrs	r6, r0
    2452:	199b      	adds	r3, r3, r6
    2454:	0159      	lsls	r1, r3, #5
    2456:	d5d6      	bpl.n	2406 <__aeabi_fsub+0xea>
    2458:	3401      	adds	r4, #1
    245a:	2cff      	cmp	r4, #255	; 0xff
    245c:	d100      	bne.n	2460 <__aeabi_fsub+0x144>
    245e:	e085      	b.n	256c <__aeabi_fsub+0x250>
    2460:	2201      	movs	r2, #1
    2462:	497a      	ldr	r1, [pc, #488]	; (264c <__aeabi_fsub+0x330>)
    2464:	401a      	ands	r2, r3
    2466:	085b      	lsrs	r3, r3, #1
    2468:	400b      	ands	r3, r1
    246a:	4313      	orrs	r3, r2
    246c:	e79c      	b.n	23a8 <__aeabi_fsub+0x8c>
    246e:	2e00      	cmp	r6, #0
    2470:	d000      	beq.n	2474 <__aeabi_fsub+0x158>
    2472:	e770      	b.n	2356 <__aeabi_fsub+0x3a>
    2474:	e76b      	b.n	234e <__aeabi_fsub+0x32>
    2476:	1e3b      	subs	r3, r7, #0
    2478:	d1c5      	bne.n	2406 <__aeabi_fsub+0xea>
    247a:	2200      	movs	r2, #0
    247c:	027b      	lsls	r3, r7, #9
    247e:	0a5b      	lsrs	r3, r3, #9
    2480:	b2e4      	uxtb	r4, r4
    2482:	e7a3      	b.n	23cc <__aeabi_fsub+0xb0>
    2484:	0014      	movs	r4, r2
    2486:	e78f      	b.n	23a8 <__aeabi_fsub+0x8c>
    2488:	2e00      	cmp	r6, #0
    248a:	d04d      	beq.n	2528 <__aeabi_fsub+0x20c>
    248c:	1e48      	subs	r0, r1, #1
    248e:	2800      	cmp	r0, #0
    2490:	d157      	bne.n	2542 <__aeabi_fsub+0x226>
    2492:	199b      	adds	r3, r3, r6
    2494:	2401      	movs	r4, #1
    2496:	015a      	lsls	r2, r3, #5
    2498:	d5b5      	bpl.n	2406 <__aeabi_fsub+0xea>
    249a:	2402      	movs	r4, #2
    249c:	e7e0      	b.n	2460 <__aeabi_fsub+0x144>
    249e:	2a00      	cmp	r2, #0
    24a0:	d125      	bne.n	24ee <__aeabi_fsub+0x1d2>
    24a2:	1c62      	adds	r2, r4, #1
    24a4:	b2d2      	uxtb	r2, r2
    24a6:	2a01      	cmp	r2, #1
    24a8:	dd72      	ble.n	2590 <__aeabi_fsub+0x274>
    24aa:	1b9f      	subs	r7, r3, r6
    24ac:	017a      	lsls	r2, r7, #5
    24ae:	d535      	bpl.n	251c <__aeabi_fsub+0x200>
    24b0:	1af7      	subs	r7, r6, r3
    24b2:	000d      	movs	r5, r1
    24b4:	e764      	b.n	2380 <__aeabi_fsub+0x64>
    24b6:	2201      	movs	r2, #1
    24b8:	2300      	movs	r3, #0
    24ba:	402a      	ands	r2, r5
    24bc:	e786      	b.n	23cc <__aeabi_fsub+0xb0>
    24be:	003b      	movs	r3, r7
    24c0:	4a63      	ldr	r2, [pc, #396]	; (2650 <__aeabi_fsub+0x334>)
    24c2:	1a24      	subs	r4, r4, r0
    24c4:	4013      	ands	r3, r2
    24c6:	e76f      	b.n	23a8 <__aeabi_fsub+0x8c>
    24c8:	2900      	cmp	r1, #0
    24ca:	d16c      	bne.n	25a6 <__aeabi_fsub+0x28a>
    24cc:	1c61      	adds	r1, r4, #1
    24ce:	b2c8      	uxtb	r0, r1
    24d0:	2801      	cmp	r0, #1
    24d2:	dd4e      	ble.n	2572 <__aeabi_fsub+0x256>
    24d4:	29ff      	cmp	r1, #255	; 0xff
    24d6:	d049      	beq.n	256c <__aeabi_fsub+0x250>
    24d8:	199b      	adds	r3, r3, r6
    24da:	085b      	lsrs	r3, r3, #1
    24dc:	000c      	movs	r4, r1
    24de:	e763      	b.n	23a8 <__aeabi_fsub+0x8c>
    24e0:	2aff      	cmp	r2, #255	; 0xff
    24e2:	d041      	beq.n	2568 <__aeabi_fsub+0x24c>
    24e4:	000a      	movs	r2, r1
    24e6:	e781      	b.n	23ec <__aeabi_fsub+0xd0>
    24e8:	2601      	movs	r6, #1
    24ea:	1b9b      	subs	r3, r3, r6
    24ec:	e789      	b.n	2402 <__aeabi_fsub+0xe6>
    24ee:	2c00      	cmp	r4, #0
    24f0:	d01c      	beq.n	252c <__aeabi_fsub+0x210>
    24f2:	28ff      	cmp	r0, #255	; 0xff
    24f4:	d021      	beq.n	253a <__aeabi_fsub+0x21e>
    24f6:	2480      	movs	r4, #128	; 0x80
    24f8:	04e4      	lsls	r4, r4, #19
    24fa:	4252      	negs	r2, r2
    24fc:	4323      	orrs	r3, r4
    24fe:	2a1b      	cmp	r2, #27
    2500:	dd00      	ble.n	2504 <__aeabi_fsub+0x1e8>
    2502:	e096      	b.n	2632 <__aeabi_fsub+0x316>
    2504:	001c      	movs	r4, r3
    2506:	2520      	movs	r5, #32
    2508:	40d4      	lsrs	r4, r2
    250a:	1aaa      	subs	r2, r5, r2
    250c:	4093      	lsls	r3, r2
    250e:	1e5a      	subs	r2, r3, #1
    2510:	4193      	sbcs	r3, r2
    2512:	4323      	orrs	r3, r4
    2514:	1af3      	subs	r3, r6, r3
    2516:	0004      	movs	r4, r0
    2518:	000d      	movs	r5, r1
    251a:	e72d      	b.n	2378 <__aeabi_fsub+0x5c>
    251c:	2f00      	cmp	r7, #0
    251e:	d000      	beq.n	2522 <__aeabi_fsub+0x206>
    2520:	e72e      	b.n	2380 <__aeabi_fsub+0x64>
    2522:	2200      	movs	r2, #0
    2524:	2400      	movs	r4, #0
    2526:	e7a9      	b.n	247c <__aeabi_fsub+0x160>
    2528:	000c      	movs	r4, r1
    252a:	e73d      	b.n	23a8 <__aeabi_fsub+0x8c>
    252c:	2b00      	cmp	r3, #0
    252e:	d058      	beq.n	25e2 <__aeabi_fsub+0x2c6>
    2530:	43d2      	mvns	r2, r2
    2532:	2a00      	cmp	r2, #0
    2534:	d0ee      	beq.n	2514 <__aeabi_fsub+0x1f8>
    2536:	28ff      	cmp	r0, #255	; 0xff
    2538:	d1e1      	bne.n	24fe <__aeabi_fsub+0x1e2>
    253a:	0033      	movs	r3, r6
    253c:	24ff      	movs	r4, #255	; 0xff
    253e:	000d      	movs	r5, r1
    2540:	e732      	b.n	23a8 <__aeabi_fsub+0x8c>
    2542:	29ff      	cmp	r1, #255	; 0xff
    2544:	d010      	beq.n	2568 <__aeabi_fsub+0x24c>
    2546:	0001      	movs	r1, r0
    2548:	e778      	b.n	243c <__aeabi_fsub+0x120>
    254a:	2b00      	cmp	r3, #0
    254c:	d06e      	beq.n	262c <__aeabi_fsub+0x310>
    254e:	24ff      	movs	r4, #255	; 0xff
    2550:	2e00      	cmp	r6, #0
    2552:	d100      	bne.n	2556 <__aeabi_fsub+0x23a>
    2554:	e728      	b.n	23a8 <__aeabi_fsub+0x8c>
    2556:	2280      	movs	r2, #128	; 0x80
    2558:	4651      	mov	r1, sl
    255a:	03d2      	lsls	r2, r2, #15
    255c:	4211      	tst	r1, r2
    255e:	d003      	beq.n	2568 <__aeabi_fsub+0x24c>
    2560:	4661      	mov	r1, ip
    2562:	4211      	tst	r1, r2
    2564:	d100      	bne.n	2568 <__aeabi_fsub+0x24c>
    2566:	0033      	movs	r3, r6
    2568:	24ff      	movs	r4, #255	; 0xff
    256a:	e71d      	b.n	23a8 <__aeabi_fsub+0x8c>
    256c:	24ff      	movs	r4, #255	; 0xff
    256e:	2300      	movs	r3, #0
    2570:	e72c      	b.n	23cc <__aeabi_fsub+0xb0>
    2572:	2c00      	cmp	r4, #0
    2574:	d1e9      	bne.n	254a <__aeabi_fsub+0x22e>
    2576:	2b00      	cmp	r3, #0
    2578:	d063      	beq.n	2642 <__aeabi_fsub+0x326>
    257a:	2e00      	cmp	r6, #0
    257c:	d100      	bne.n	2580 <__aeabi_fsub+0x264>
    257e:	e713      	b.n	23a8 <__aeabi_fsub+0x8c>
    2580:	199b      	adds	r3, r3, r6
    2582:	015a      	lsls	r2, r3, #5
    2584:	d400      	bmi.n	2588 <__aeabi_fsub+0x26c>
    2586:	e73e      	b.n	2406 <__aeabi_fsub+0xea>
    2588:	4a31      	ldr	r2, [pc, #196]	; (2650 <__aeabi_fsub+0x334>)
    258a:	000c      	movs	r4, r1
    258c:	4013      	ands	r3, r2
    258e:	e70b      	b.n	23a8 <__aeabi_fsub+0x8c>
    2590:	2c00      	cmp	r4, #0
    2592:	d11e      	bne.n	25d2 <__aeabi_fsub+0x2b6>
    2594:	2b00      	cmp	r3, #0
    2596:	d12f      	bne.n	25f8 <__aeabi_fsub+0x2dc>
    2598:	2e00      	cmp	r6, #0
    259a:	d04f      	beq.n	263c <__aeabi_fsub+0x320>
    259c:	0033      	movs	r3, r6
    259e:	000d      	movs	r5, r1
    25a0:	e702      	b.n	23a8 <__aeabi_fsub+0x8c>
    25a2:	2601      	movs	r6, #1
    25a4:	e755      	b.n	2452 <__aeabi_fsub+0x136>
    25a6:	2c00      	cmp	r4, #0
    25a8:	d11f      	bne.n	25ea <__aeabi_fsub+0x2ce>
    25aa:	2b00      	cmp	r3, #0
    25ac:	d043      	beq.n	2636 <__aeabi_fsub+0x31a>
    25ae:	43c9      	mvns	r1, r1
    25b0:	2900      	cmp	r1, #0
    25b2:	d00b      	beq.n	25cc <__aeabi_fsub+0x2b0>
    25b4:	28ff      	cmp	r0, #255	; 0xff
    25b6:	d039      	beq.n	262c <__aeabi_fsub+0x310>
    25b8:	291b      	cmp	r1, #27
    25ba:	dc44      	bgt.n	2646 <__aeabi_fsub+0x32a>
    25bc:	001c      	movs	r4, r3
    25be:	2720      	movs	r7, #32
    25c0:	40cc      	lsrs	r4, r1
    25c2:	1a79      	subs	r1, r7, r1
    25c4:	408b      	lsls	r3, r1
    25c6:	1e59      	subs	r1, r3, #1
    25c8:	418b      	sbcs	r3, r1
    25ca:	4323      	orrs	r3, r4
    25cc:	199b      	adds	r3, r3, r6
    25ce:	0004      	movs	r4, r0
    25d0:	e740      	b.n	2454 <__aeabi_fsub+0x138>
    25d2:	2b00      	cmp	r3, #0
    25d4:	d11a      	bne.n	260c <__aeabi_fsub+0x2f0>
    25d6:	2e00      	cmp	r6, #0
    25d8:	d124      	bne.n	2624 <__aeabi_fsub+0x308>
    25da:	2780      	movs	r7, #128	; 0x80
    25dc:	2200      	movs	r2, #0
    25de:	03ff      	lsls	r7, r7, #15
    25e0:	e71b      	b.n	241a <__aeabi_fsub+0xfe>
    25e2:	0033      	movs	r3, r6
    25e4:	0004      	movs	r4, r0
    25e6:	000d      	movs	r5, r1
    25e8:	e6de      	b.n	23a8 <__aeabi_fsub+0x8c>
    25ea:	28ff      	cmp	r0, #255	; 0xff
    25ec:	d01e      	beq.n	262c <__aeabi_fsub+0x310>
    25ee:	2480      	movs	r4, #128	; 0x80
    25f0:	04e4      	lsls	r4, r4, #19
    25f2:	4249      	negs	r1, r1
    25f4:	4323      	orrs	r3, r4
    25f6:	e7df      	b.n	25b8 <__aeabi_fsub+0x29c>
    25f8:	2e00      	cmp	r6, #0
    25fa:	d100      	bne.n	25fe <__aeabi_fsub+0x2e2>
    25fc:	e6d4      	b.n	23a8 <__aeabi_fsub+0x8c>
    25fe:	1b9f      	subs	r7, r3, r6
    2600:	017a      	lsls	r2, r7, #5
    2602:	d400      	bmi.n	2606 <__aeabi_fsub+0x2ea>
    2604:	e737      	b.n	2476 <__aeabi_fsub+0x15a>
    2606:	1af3      	subs	r3, r6, r3
    2608:	000d      	movs	r5, r1
    260a:	e6cd      	b.n	23a8 <__aeabi_fsub+0x8c>
    260c:	24ff      	movs	r4, #255	; 0xff
    260e:	2e00      	cmp	r6, #0
    2610:	d100      	bne.n	2614 <__aeabi_fsub+0x2f8>
    2612:	e6c9      	b.n	23a8 <__aeabi_fsub+0x8c>
    2614:	2280      	movs	r2, #128	; 0x80
    2616:	4650      	mov	r0, sl
    2618:	03d2      	lsls	r2, r2, #15
    261a:	4210      	tst	r0, r2
    261c:	d0a4      	beq.n	2568 <__aeabi_fsub+0x24c>
    261e:	4660      	mov	r0, ip
    2620:	4210      	tst	r0, r2
    2622:	d1a1      	bne.n	2568 <__aeabi_fsub+0x24c>
    2624:	0033      	movs	r3, r6
    2626:	000d      	movs	r5, r1
    2628:	24ff      	movs	r4, #255	; 0xff
    262a:	e6bd      	b.n	23a8 <__aeabi_fsub+0x8c>
    262c:	0033      	movs	r3, r6
    262e:	24ff      	movs	r4, #255	; 0xff
    2630:	e6ba      	b.n	23a8 <__aeabi_fsub+0x8c>
    2632:	2301      	movs	r3, #1
    2634:	e76e      	b.n	2514 <__aeabi_fsub+0x1f8>
    2636:	0033      	movs	r3, r6
    2638:	0004      	movs	r4, r0
    263a:	e6b5      	b.n	23a8 <__aeabi_fsub+0x8c>
    263c:	2700      	movs	r7, #0
    263e:	2200      	movs	r2, #0
    2640:	e71c      	b.n	247c <__aeabi_fsub+0x160>
    2642:	0033      	movs	r3, r6
    2644:	e6b0      	b.n	23a8 <__aeabi_fsub+0x8c>
    2646:	2301      	movs	r3, #1
    2648:	e7c0      	b.n	25cc <__aeabi_fsub+0x2b0>
    264a:	46c0      	nop			; (mov r8, r8)
    264c:	7dffffff 	.word	0x7dffffff
    2650:	fbffffff 	.word	0xfbffffff

00002654 <__aeabi_f2iz>:
    2654:	0241      	lsls	r1, r0, #9
    2656:	0043      	lsls	r3, r0, #1
    2658:	0fc2      	lsrs	r2, r0, #31
    265a:	0a49      	lsrs	r1, r1, #9
    265c:	0e1b      	lsrs	r3, r3, #24
    265e:	2000      	movs	r0, #0
    2660:	2b7e      	cmp	r3, #126	; 0x7e
    2662:	dd0d      	ble.n	2680 <__aeabi_f2iz+0x2c>
    2664:	2b9d      	cmp	r3, #157	; 0x9d
    2666:	dc0c      	bgt.n	2682 <__aeabi_f2iz+0x2e>
    2668:	2080      	movs	r0, #128	; 0x80
    266a:	0400      	lsls	r0, r0, #16
    266c:	4301      	orrs	r1, r0
    266e:	2b95      	cmp	r3, #149	; 0x95
    2670:	dc0a      	bgt.n	2688 <__aeabi_f2iz+0x34>
    2672:	2096      	movs	r0, #150	; 0x96
    2674:	1ac3      	subs	r3, r0, r3
    2676:	40d9      	lsrs	r1, r3
    2678:	4248      	negs	r0, r1
    267a:	2a00      	cmp	r2, #0
    267c:	d100      	bne.n	2680 <__aeabi_f2iz+0x2c>
    267e:	0008      	movs	r0, r1
    2680:	4770      	bx	lr
    2682:	4b03      	ldr	r3, [pc, #12]	; (2690 <__aeabi_f2iz+0x3c>)
    2684:	18d0      	adds	r0, r2, r3
    2686:	e7fb      	b.n	2680 <__aeabi_f2iz+0x2c>
    2688:	3b96      	subs	r3, #150	; 0x96
    268a:	4099      	lsls	r1, r3
    268c:	e7f4      	b.n	2678 <__aeabi_f2iz+0x24>
    268e:	46c0      	nop			; (mov r8, r8)
    2690:	7fffffff 	.word	0x7fffffff

00002694 <__aeabi_ui2f>:
    2694:	b510      	push	{r4, lr}
    2696:	1e04      	subs	r4, r0, #0
    2698:	d027      	beq.n	26ea <__aeabi_ui2f+0x56>
    269a:	f001 fa83 	bl	3ba4 <__clzsi2>
    269e:	239e      	movs	r3, #158	; 0x9e
    26a0:	1a1b      	subs	r3, r3, r0
    26a2:	2b96      	cmp	r3, #150	; 0x96
    26a4:	dc0a      	bgt.n	26bc <__aeabi_ui2f+0x28>
    26a6:	2296      	movs	r2, #150	; 0x96
    26a8:	1ad2      	subs	r2, r2, r3
    26aa:	4094      	lsls	r4, r2
    26ac:	0264      	lsls	r4, r4, #9
    26ae:	0a64      	lsrs	r4, r4, #9
    26b0:	b2db      	uxtb	r3, r3
    26b2:	0264      	lsls	r4, r4, #9
    26b4:	05db      	lsls	r3, r3, #23
    26b6:	0a60      	lsrs	r0, r4, #9
    26b8:	4318      	orrs	r0, r3
    26ba:	bd10      	pop	{r4, pc}
    26bc:	2b99      	cmp	r3, #153	; 0x99
    26be:	dc17      	bgt.n	26f0 <__aeabi_ui2f+0x5c>
    26c0:	2299      	movs	r2, #153	; 0x99
    26c2:	1ad2      	subs	r2, r2, r3
    26c4:	2a00      	cmp	r2, #0
    26c6:	dd27      	ble.n	2718 <__aeabi_ui2f+0x84>
    26c8:	4094      	lsls	r4, r2
    26ca:	0022      	movs	r2, r4
    26cc:	4c13      	ldr	r4, [pc, #76]	; (271c <__aeabi_ui2f+0x88>)
    26ce:	4014      	ands	r4, r2
    26d0:	0751      	lsls	r1, r2, #29
    26d2:	d004      	beq.n	26de <__aeabi_ui2f+0x4a>
    26d4:	210f      	movs	r1, #15
    26d6:	400a      	ands	r2, r1
    26d8:	2a04      	cmp	r2, #4
    26da:	d000      	beq.n	26de <__aeabi_ui2f+0x4a>
    26dc:	3404      	adds	r4, #4
    26de:	0162      	lsls	r2, r4, #5
    26e0:	d412      	bmi.n	2708 <__aeabi_ui2f+0x74>
    26e2:	01a4      	lsls	r4, r4, #6
    26e4:	0a64      	lsrs	r4, r4, #9
    26e6:	b2db      	uxtb	r3, r3
    26e8:	e7e3      	b.n	26b2 <__aeabi_ui2f+0x1e>
    26ea:	2300      	movs	r3, #0
    26ec:	2400      	movs	r4, #0
    26ee:	e7e0      	b.n	26b2 <__aeabi_ui2f+0x1e>
    26f0:	22b9      	movs	r2, #185	; 0xb9
    26f2:	0021      	movs	r1, r4
    26f4:	1ad2      	subs	r2, r2, r3
    26f6:	4091      	lsls	r1, r2
    26f8:	000a      	movs	r2, r1
    26fa:	1e51      	subs	r1, r2, #1
    26fc:	418a      	sbcs	r2, r1
    26fe:	2105      	movs	r1, #5
    2700:	1a09      	subs	r1, r1, r0
    2702:	40cc      	lsrs	r4, r1
    2704:	4314      	orrs	r4, r2
    2706:	e7db      	b.n	26c0 <__aeabi_ui2f+0x2c>
    2708:	4b04      	ldr	r3, [pc, #16]	; (271c <__aeabi_ui2f+0x88>)
    270a:	401c      	ands	r4, r3
    270c:	239f      	movs	r3, #159	; 0x9f
    270e:	01a4      	lsls	r4, r4, #6
    2710:	1a1b      	subs	r3, r3, r0
    2712:	0a64      	lsrs	r4, r4, #9
    2714:	b2db      	uxtb	r3, r3
    2716:	e7cc      	b.n	26b2 <__aeabi_ui2f+0x1e>
    2718:	0022      	movs	r2, r4
    271a:	e7d7      	b.n	26cc <__aeabi_ui2f+0x38>
    271c:	fbffffff 	.word	0xfbffffff

00002720 <__aeabi_ddiv>:
    2720:	b5f0      	push	{r4, r5, r6, r7, lr}
    2722:	4657      	mov	r7, sl
    2724:	4645      	mov	r5, r8
    2726:	46de      	mov	lr, fp
    2728:	464e      	mov	r6, r9
    272a:	b5e0      	push	{r5, r6, r7, lr}
    272c:	004c      	lsls	r4, r1, #1
    272e:	030e      	lsls	r6, r1, #12
    2730:	b087      	sub	sp, #28
    2732:	4683      	mov	fp, r0
    2734:	4692      	mov	sl, r2
    2736:	001d      	movs	r5, r3
    2738:	4680      	mov	r8, r0
    273a:	0b36      	lsrs	r6, r6, #12
    273c:	0d64      	lsrs	r4, r4, #21
    273e:	0fcf      	lsrs	r7, r1, #31
    2740:	2c00      	cmp	r4, #0
    2742:	d04f      	beq.n	27e4 <__aeabi_ddiv+0xc4>
    2744:	4b6f      	ldr	r3, [pc, #444]	; (2904 <__aeabi_ddiv+0x1e4>)
    2746:	429c      	cmp	r4, r3
    2748:	d035      	beq.n	27b6 <__aeabi_ddiv+0x96>
    274a:	2380      	movs	r3, #128	; 0x80
    274c:	0f42      	lsrs	r2, r0, #29
    274e:	041b      	lsls	r3, r3, #16
    2750:	00f6      	lsls	r6, r6, #3
    2752:	4313      	orrs	r3, r2
    2754:	4333      	orrs	r3, r6
    2756:	4699      	mov	r9, r3
    2758:	00c3      	lsls	r3, r0, #3
    275a:	4698      	mov	r8, r3
    275c:	4b6a      	ldr	r3, [pc, #424]	; (2908 <__aeabi_ddiv+0x1e8>)
    275e:	2600      	movs	r6, #0
    2760:	469c      	mov	ip, r3
    2762:	2300      	movs	r3, #0
    2764:	4464      	add	r4, ip
    2766:	9303      	str	r3, [sp, #12]
    2768:	032b      	lsls	r3, r5, #12
    276a:	0b1b      	lsrs	r3, r3, #12
    276c:	469b      	mov	fp, r3
    276e:	006b      	lsls	r3, r5, #1
    2770:	0fed      	lsrs	r5, r5, #31
    2772:	4650      	mov	r0, sl
    2774:	0d5b      	lsrs	r3, r3, #21
    2776:	9501      	str	r5, [sp, #4]
    2778:	d05e      	beq.n	2838 <__aeabi_ddiv+0x118>
    277a:	4a62      	ldr	r2, [pc, #392]	; (2904 <__aeabi_ddiv+0x1e4>)
    277c:	4293      	cmp	r3, r2
    277e:	d053      	beq.n	2828 <__aeabi_ddiv+0x108>
    2780:	465a      	mov	r2, fp
    2782:	00d1      	lsls	r1, r2, #3
    2784:	2280      	movs	r2, #128	; 0x80
    2786:	0f40      	lsrs	r0, r0, #29
    2788:	0412      	lsls	r2, r2, #16
    278a:	4302      	orrs	r2, r0
    278c:	430a      	orrs	r2, r1
    278e:	4693      	mov	fp, r2
    2790:	4652      	mov	r2, sl
    2792:	00d1      	lsls	r1, r2, #3
    2794:	4a5c      	ldr	r2, [pc, #368]	; (2908 <__aeabi_ddiv+0x1e8>)
    2796:	4694      	mov	ip, r2
    2798:	2200      	movs	r2, #0
    279a:	4463      	add	r3, ip
    279c:	0038      	movs	r0, r7
    279e:	4068      	eors	r0, r5
    27a0:	4684      	mov	ip, r0
    27a2:	9002      	str	r0, [sp, #8]
    27a4:	1ae4      	subs	r4, r4, r3
    27a6:	4316      	orrs	r6, r2
    27a8:	2e0f      	cmp	r6, #15
    27aa:	d900      	bls.n	27ae <__aeabi_ddiv+0x8e>
    27ac:	e0b4      	b.n	2918 <__aeabi_ddiv+0x1f8>
    27ae:	4b57      	ldr	r3, [pc, #348]	; (290c <__aeabi_ddiv+0x1ec>)
    27b0:	00b6      	lsls	r6, r6, #2
    27b2:	599b      	ldr	r3, [r3, r6]
    27b4:	469f      	mov	pc, r3
    27b6:	0003      	movs	r3, r0
    27b8:	4333      	orrs	r3, r6
    27ba:	4699      	mov	r9, r3
    27bc:	d16c      	bne.n	2898 <__aeabi_ddiv+0x178>
    27be:	2300      	movs	r3, #0
    27c0:	4698      	mov	r8, r3
    27c2:	3302      	adds	r3, #2
    27c4:	2608      	movs	r6, #8
    27c6:	9303      	str	r3, [sp, #12]
    27c8:	e7ce      	b.n	2768 <__aeabi_ddiv+0x48>
    27ca:	46cb      	mov	fp, r9
    27cc:	4641      	mov	r1, r8
    27ce:	9a03      	ldr	r2, [sp, #12]
    27d0:	9701      	str	r7, [sp, #4]
    27d2:	2a02      	cmp	r2, #2
    27d4:	d165      	bne.n	28a2 <__aeabi_ddiv+0x182>
    27d6:	9b01      	ldr	r3, [sp, #4]
    27d8:	4c4a      	ldr	r4, [pc, #296]	; (2904 <__aeabi_ddiv+0x1e4>)
    27da:	469c      	mov	ip, r3
    27dc:	2300      	movs	r3, #0
    27de:	2200      	movs	r2, #0
    27e0:	4698      	mov	r8, r3
    27e2:	e06b      	b.n	28bc <__aeabi_ddiv+0x19c>
    27e4:	0003      	movs	r3, r0
    27e6:	4333      	orrs	r3, r6
    27e8:	4699      	mov	r9, r3
    27ea:	d04e      	beq.n	288a <__aeabi_ddiv+0x16a>
    27ec:	2e00      	cmp	r6, #0
    27ee:	d100      	bne.n	27f2 <__aeabi_ddiv+0xd2>
    27f0:	e1bc      	b.n	2b6c <__aeabi_ddiv+0x44c>
    27f2:	0030      	movs	r0, r6
    27f4:	f001 f9d6 	bl	3ba4 <__clzsi2>
    27f8:	0003      	movs	r3, r0
    27fa:	3b0b      	subs	r3, #11
    27fc:	2b1c      	cmp	r3, #28
    27fe:	dd00      	ble.n	2802 <__aeabi_ddiv+0xe2>
    2800:	e1ac      	b.n	2b5c <__aeabi_ddiv+0x43c>
    2802:	221d      	movs	r2, #29
    2804:	1ad3      	subs	r3, r2, r3
    2806:	465a      	mov	r2, fp
    2808:	0001      	movs	r1, r0
    280a:	40da      	lsrs	r2, r3
    280c:	3908      	subs	r1, #8
    280e:	408e      	lsls	r6, r1
    2810:	0013      	movs	r3, r2
    2812:	4333      	orrs	r3, r6
    2814:	4699      	mov	r9, r3
    2816:	465b      	mov	r3, fp
    2818:	408b      	lsls	r3, r1
    281a:	4698      	mov	r8, r3
    281c:	2300      	movs	r3, #0
    281e:	4c3c      	ldr	r4, [pc, #240]	; (2910 <__aeabi_ddiv+0x1f0>)
    2820:	2600      	movs	r6, #0
    2822:	1a24      	subs	r4, r4, r0
    2824:	9303      	str	r3, [sp, #12]
    2826:	e79f      	b.n	2768 <__aeabi_ddiv+0x48>
    2828:	4651      	mov	r1, sl
    282a:	465a      	mov	r2, fp
    282c:	4311      	orrs	r1, r2
    282e:	d129      	bne.n	2884 <__aeabi_ddiv+0x164>
    2830:	2200      	movs	r2, #0
    2832:	4693      	mov	fp, r2
    2834:	3202      	adds	r2, #2
    2836:	e7b1      	b.n	279c <__aeabi_ddiv+0x7c>
    2838:	4659      	mov	r1, fp
    283a:	4301      	orrs	r1, r0
    283c:	d01e      	beq.n	287c <__aeabi_ddiv+0x15c>
    283e:	465b      	mov	r3, fp
    2840:	2b00      	cmp	r3, #0
    2842:	d100      	bne.n	2846 <__aeabi_ddiv+0x126>
    2844:	e19e      	b.n	2b84 <__aeabi_ddiv+0x464>
    2846:	4658      	mov	r0, fp
    2848:	f001 f9ac 	bl	3ba4 <__clzsi2>
    284c:	0003      	movs	r3, r0
    284e:	3b0b      	subs	r3, #11
    2850:	2b1c      	cmp	r3, #28
    2852:	dd00      	ble.n	2856 <__aeabi_ddiv+0x136>
    2854:	e18f      	b.n	2b76 <__aeabi_ddiv+0x456>
    2856:	0002      	movs	r2, r0
    2858:	4659      	mov	r1, fp
    285a:	3a08      	subs	r2, #8
    285c:	4091      	lsls	r1, r2
    285e:	468b      	mov	fp, r1
    2860:	211d      	movs	r1, #29
    2862:	1acb      	subs	r3, r1, r3
    2864:	4651      	mov	r1, sl
    2866:	40d9      	lsrs	r1, r3
    2868:	000b      	movs	r3, r1
    286a:	4659      	mov	r1, fp
    286c:	430b      	orrs	r3, r1
    286e:	4651      	mov	r1, sl
    2870:	469b      	mov	fp, r3
    2872:	4091      	lsls	r1, r2
    2874:	4b26      	ldr	r3, [pc, #152]	; (2910 <__aeabi_ddiv+0x1f0>)
    2876:	2200      	movs	r2, #0
    2878:	1a1b      	subs	r3, r3, r0
    287a:	e78f      	b.n	279c <__aeabi_ddiv+0x7c>
    287c:	2300      	movs	r3, #0
    287e:	2201      	movs	r2, #1
    2880:	469b      	mov	fp, r3
    2882:	e78b      	b.n	279c <__aeabi_ddiv+0x7c>
    2884:	4651      	mov	r1, sl
    2886:	2203      	movs	r2, #3
    2888:	e788      	b.n	279c <__aeabi_ddiv+0x7c>
    288a:	2300      	movs	r3, #0
    288c:	4698      	mov	r8, r3
    288e:	3301      	adds	r3, #1
    2890:	2604      	movs	r6, #4
    2892:	2400      	movs	r4, #0
    2894:	9303      	str	r3, [sp, #12]
    2896:	e767      	b.n	2768 <__aeabi_ddiv+0x48>
    2898:	2303      	movs	r3, #3
    289a:	46b1      	mov	r9, r6
    289c:	9303      	str	r3, [sp, #12]
    289e:	260c      	movs	r6, #12
    28a0:	e762      	b.n	2768 <__aeabi_ddiv+0x48>
    28a2:	2a03      	cmp	r2, #3
    28a4:	d100      	bne.n	28a8 <__aeabi_ddiv+0x188>
    28a6:	e25c      	b.n	2d62 <__aeabi_ddiv+0x642>
    28a8:	9b01      	ldr	r3, [sp, #4]
    28aa:	2a01      	cmp	r2, #1
    28ac:	d000      	beq.n	28b0 <__aeabi_ddiv+0x190>
    28ae:	e1e4      	b.n	2c7a <__aeabi_ddiv+0x55a>
    28b0:	4013      	ands	r3, r2
    28b2:	469c      	mov	ip, r3
    28b4:	2300      	movs	r3, #0
    28b6:	2400      	movs	r4, #0
    28b8:	2200      	movs	r2, #0
    28ba:	4698      	mov	r8, r3
    28bc:	2100      	movs	r1, #0
    28be:	0312      	lsls	r2, r2, #12
    28c0:	0b13      	lsrs	r3, r2, #12
    28c2:	0d0a      	lsrs	r2, r1, #20
    28c4:	0512      	lsls	r2, r2, #20
    28c6:	431a      	orrs	r2, r3
    28c8:	0523      	lsls	r3, r4, #20
    28ca:	4c12      	ldr	r4, [pc, #72]	; (2914 <__aeabi_ddiv+0x1f4>)
    28cc:	4640      	mov	r0, r8
    28ce:	4022      	ands	r2, r4
    28d0:	4313      	orrs	r3, r2
    28d2:	4662      	mov	r2, ip
    28d4:	005b      	lsls	r3, r3, #1
    28d6:	07d2      	lsls	r2, r2, #31
    28d8:	085b      	lsrs	r3, r3, #1
    28da:	4313      	orrs	r3, r2
    28dc:	0019      	movs	r1, r3
    28de:	b007      	add	sp, #28
    28e0:	bc3c      	pop	{r2, r3, r4, r5}
    28e2:	4690      	mov	r8, r2
    28e4:	4699      	mov	r9, r3
    28e6:	46a2      	mov	sl, r4
    28e8:	46ab      	mov	fp, r5
    28ea:	bdf0      	pop	{r4, r5, r6, r7, pc}
    28ec:	2300      	movs	r3, #0
    28ee:	2280      	movs	r2, #128	; 0x80
    28f0:	469c      	mov	ip, r3
    28f2:	0312      	lsls	r2, r2, #12
    28f4:	4698      	mov	r8, r3
    28f6:	4c03      	ldr	r4, [pc, #12]	; (2904 <__aeabi_ddiv+0x1e4>)
    28f8:	e7e0      	b.n	28bc <__aeabi_ddiv+0x19c>
    28fa:	2300      	movs	r3, #0
    28fc:	4c01      	ldr	r4, [pc, #4]	; (2904 <__aeabi_ddiv+0x1e4>)
    28fe:	2200      	movs	r2, #0
    2900:	4698      	mov	r8, r3
    2902:	e7db      	b.n	28bc <__aeabi_ddiv+0x19c>
    2904:	000007ff 	.word	0x000007ff
    2908:	fffffc01 	.word	0xfffffc01
    290c:	000060b0 	.word	0x000060b0
    2910:	fffffc0d 	.word	0xfffffc0d
    2914:	800fffff 	.word	0x800fffff
    2918:	45d9      	cmp	r9, fp
    291a:	d900      	bls.n	291e <__aeabi_ddiv+0x1fe>
    291c:	e139      	b.n	2b92 <__aeabi_ddiv+0x472>
    291e:	d100      	bne.n	2922 <__aeabi_ddiv+0x202>
    2920:	e134      	b.n	2b8c <__aeabi_ddiv+0x46c>
    2922:	2300      	movs	r3, #0
    2924:	4646      	mov	r6, r8
    2926:	464d      	mov	r5, r9
    2928:	469a      	mov	sl, r3
    292a:	3c01      	subs	r4, #1
    292c:	465b      	mov	r3, fp
    292e:	0e0a      	lsrs	r2, r1, #24
    2930:	021b      	lsls	r3, r3, #8
    2932:	431a      	orrs	r2, r3
    2934:	020b      	lsls	r3, r1, #8
    2936:	0c17      	lsrs	r7, r2, #16
    2938:	9303      	str	r3, [sp, #12]
    293a:	0413      	lsls	r3, r2, #16
    293c:	0c1b      	lsrs	r3, r3, #16
    293e:	0039      	movs	r1, r7
    2940:	0028      	movs	r0, r5
    2942:	4690      	mov	r8, r2
    2944:	9301      	str	r3, [sp, #4]
    2946:	f7fe fc66 	bl	1216 <__aeabi_uidiv>
    294a:	0002      	movs	r2, r0
    294c:	9b01      	ldr	r3, [sp, #4]
    294e:	4683      	mov	fp, r0
    2950:	435a      	muls	r2, r3
    2952:	0028      	movs	r0, r5
    2954:	0039      	movs	r1, r7
    2956:	4691      	mov	r9, r2
    2958:	f7fe fc94 	bl	1284 <__aeabi_uidivmod>
    295c:	0c35      	lsrs	r5, r6, #16
    295e:	0409      	lsls	r1, r1, #16
    2960:	430d      	orrs	r5, r1
    2962:	45a9      	cmp	r9, r5
    2964:	d90d      	bls.n	2982 <__aeabi_ddiv+0x262>
    2966:	465b      	mov	r3, fp
    2968:	4445      	add	r5, r8
    296a:	3b01      	subs	r3, #1
    296c:	45a8      	cmp	r8, r5
    296e:	d900      	bls.n	2972 <__aeabi_ddiv+0x252>
    2970:	e13a      	b.n	2be8 <__aeabi_ddiv+0x4c8>
    2972:	45a9      	cmp	r9, r5
    2974:	d800      	bhi.n	2978 <__aeabi_ddiv+0x258>
    2976:	e137      	b.n	2be8 <__aeabi_ddiv+0x4c8>
    2978:	2302      	movs	r3, #2
    297a:	425b      	negs	r3, r3
    297c:	469c      	mov	ip, r3
    297e:	4445      	add	r5, r8
    2980:	44e3      	add	fp, ip
    2982:	464b      	mov	r3, r9
    2984:	1aeb      	subs	r3, r5, r3
    2986:	0039      	movs	r1, r7
    2988:	0018      	movs	r0, r3
    298a:	9304      	str	r3, [sp, #16]
    298c:	f7fe fc43 	bl	1216 <__aeabi_uidiv>
    2990:	9b01      	ldr	r3, [sp, #4]
    2992:	0005      	movs	r5, r0
    2994:	4343      	muls	r3, r0
    2996:	0039      	movs	r1, r7
    2998:	9804      	ldr	r0, [sp, #16]
    299a:	4699      	mov	r9, r3
    299c:	f7fe fc72 	bl	1284 <__aeabi_uidivmod>
    29a0:	0433      	lsls	r3, r6, #16
    29a2:	0409      	lsls	r1, r1, #16
    29a4:	0c1b      	lsrs	r3, r3, #16
    29a6:	430b      	orrs	r3, r1
    29a8:	4599      	cmp	r9, r3
    29aa:	d909      	bls.n	29c0 <__aeabi_ddiv+0x2a0>
    29ac:	4443      	add	r3, r8
    29ae:	1e6a      	subs	r2, r5, #1
    29b0:	4598      	cmp	r8, r3
    29b2:	d900      	bls.n	29b6 <__aeabi_ddiv+0x296>
    29b4:	e11a      	b.n	2bec <__aeabi_ddiv+0x4cc>
    29b6:	4599      	cmp	r9, r3
    29b8:	d800      	bhi.n	29bc <__aeabi_ddiv+0x29c>
    29ba:	e117      	b.n	2bec <__aeabi_ddiv+0x4cc>
    29bc:	3d02      	subs	r5, #2
    29be:	4443      	add	r3, r8
    29c0:	464a      	mov	r2, r9
    29c2:	1a9b      	subs	r3, r3, r2
    29c4:	465a      	mov	r2, fp
    29c6:	0412      	lsls	r2, r2, #16
    29c8:	432a      	orrs	r2, r5
    29ca:	9903      	ldr	r1, [sp, #12]
    29cc:	4693      	mov	fp, r2
    29ce:	0c10      	lsrs	r0, r2, #16
    29d0:	0c0a      	lsrs	r2, r1, #16
    29d2:	4691      	mov	r9, r2
    29d4:	0409      	lsls	r1, r1, #16
    29d6:	465a      	mov	r2, fp
    29d8:	0c09      	lsrs	r1, r1, #16
    29da:	464e      	mov	r6, r9
    29dc:	000d      	movs	r5, r1
    29de:	0412      	lsls	r2, r2, #16
    29e0:	0c12      	lsrs	r2, r2, #16
    29e2:	4345      	muls	r5, r0
    29e4:	9105      	str	r1, [sp, #20]
    29e6:	4351      	muls	r1, r2
    29e8:	4372      	muls	r2, r6
    29ea:	4370      	muls	r0, r6
    29ec:	1952      	adds	r2, r2, r5
    29ee:	0c0e      	lsrs	r6, r1, #16
    29f0:	18b2      	adds	r2, r6, r2
    29f2:	4295      	cmp	r5, r2
    29f4:	d903      	bls.n	29fe <__aeabi_ddiv+0x2de>
    29f6:	2580      	movs	r5, #128	; 0x80
    29f8:	026d      	lsls	r5, r5, #9
    29fa:	46ac      	mov	ip, r5
    29fc:	4460      	add	r0, ip
    29fe:	0c15      	lsrs	r5, r2, #16
    2a00:	0409      	lsls	r1, r1, #16
    2a02:	0412      	lsls	r2, r2, #16
    2a04:	0c09      	lsrs	r1, r1, #16
    2a06:	1828      	adds	r0, r5, r0
    2a08:	1852      	adds	r2, r2, r1
    2a0a:	4283      	cmp	r3, r0
    2a0c:	d200      	bcs.n	2a10 <__aeabi_ddiv+0x2f0>
    2a0e:	e0ce      	b.n	2bae <__aeabi_ddiv+0x48e>
    2a10:	d100      	bne.n	2a14 <__aeabi_ddiv+0x2f4>
    2a12:	e0c8      	b.n	2ba6 <__aeabi_ddiv+0x486>
    2a14:	1a1d      	subs	r5, r3, r0
    2a16:	4653      	mov	r3, sl
    2a18:	1a9e      	subs	r6, r3, r2
    2a1a:	45b2      	cmp	sl, r6
    2a1c:	4192      	sbcs	r2, r2
    2a1e:	4252      	negs	r2, r2
    2a20:	1aab      	subs	r3, r5, r2
    2a22:	469a      	mov	sl, r3
    2a24:	4598      	cmp	r8, r3
    2a26:	d100      	bne.n	2a2a <__aeabi_ddiv+0x30a>
    2a28:	e117      	b.n	2c5a <__aeabi_ddiv+0x53a>
    2a2a:	0039      	movs	r1, r7
    2a2c:	0018      	movs	r0, r3
    2a2e:	f7fe fbf2 	bl	1216 <__aeabi_uidiv>
    2a32:	9b01      	ldr	r3, [sp, #4]
    2a34:	0005      	movs	r5, r0
    2a36:	4343      	muls	r3, r0
    2a38:	0039      	movs	r1, r7
    2a3a:	4650      	mov	r0, sl
    2a3c:	9304      	str	r3, [sp, #16]
    2a3e:	f7fe fc21 	bl	1284 <__aeabi_uidivmod>
    2a42:	9804      	ldr	r0, [sp, #16]
    2a44:	040b      	lsls	r3, r1, #16
    2a46:	0c31      	lsrs	r1, r6, #16
    2a48:	4319      	orrs	r1, r3
    2a4a:	4288      	cmp	r0, r1
    2a4c:	d909      	bls.n	2a62 <__aeabi_ddiv+0x342>
    2a4e:	4441      	add	r1, r8
    2a50:	1e6b      	subs	r3, r5, #1
    2a52:	4588      	cmp	r8, r1
    2a54:	d900      	bls.n	2a58 <__aeabi_ddiv+0x338>
    2a56:	e107      	b.n	2c68 <__aeabi_ddiv+0x548>
    2a58:	4288      	cmp	r0, r1
    2a5a:	d800      	bhi.n	2a5e <__aeabi_ddiv+0x33e>
    2a5c:	e104      	b.n	2c68 <__aeabi_ddiv+0x548>
    2a5e:	3d02      	subs	r5, #2
    2a60:	4441      	add	r1, r8
    2a62:	9b04      	ldr	r3, [sp, #16]
    2a64:	1acb      	subs	r3, r1, r3
    2a66:	0018      	movs	r0, r3
    2a68:	0039      	movs	r1, r7
    2a6a:	9304      	str	r3, [sp, #16]
    2a6c:	f7fe fbd3 	bl	1216 <__aeabi_uidiv>
    2a70:	9b01      	ldr	r3, [sp, #4]
    2a72:	4682      	mov	sl, r0
    2a74:	4343      	muls	r3, r0
    2a76:	0039      	movs	r1, r7
    2a78:	9804      	ldr	r0, [sp, #16]
    2a7a:	9301      	str	r3, [sp, #4]
    2a7c:	f7fe fc02 	bl	1284 <__aeabi_uidivmod>
    2a80:	9801      	ldr	r0, [sp, #4]
    2a82:	040b      	lsls	r3, r1, #16
    2a84:	0431      	lsls	r1, r6, #16
    2a86:	0c09      	lsrs	r1, r1, #16
    2a88:	4319      	orrs	r1, r3
    2a8a:	4288      	cmp	r0, r1
    2a8c:	d90d      	bls.n	2aaa <__aeabi_ddiv+0x38a>
    2a8e:	4653      	mov	r3, sl
    2a90:	4441      	add	r1, r8
    2a92:	3b01      	subs	r3, #1
    2a94:	4588      	cmp	r8, r1
    2a96:	d900      	bls.n	2a9a <__aeabi_ddiv+0x37a>
    2a98:	e0e8      	b.n	2c6c <__aeabi_ddiv+0x54c>
    2a9a:	4288      	cmp	r0, r1
    2a9c:	d800      	bhi.n	2aa0 <__aeabi_ddiv+0x380>
    2a9e:	e0e5      	b.n	2c6c <__aeabi_ddiv+0x54c>
    2aa0:	2302      	movs	r3, #2
    2aa2:	425b      	negs	r3, r3
    2aa4:	469c      	mov	ip, r3
    2aa6:	4441      	add	r1, r8
    2aa8:	44e2      	add	sl, ip
    2aaa:	9b01      	ldr	r3, [sp, #4]
    2aac:	042d      	lsls	r5, r5, #16
    2aae:	1ace      	subs	r6, r1, r3
    2ab0:	4651      	mov	r1, sl
    2ab2:	4329      	orrs	r1, r5
    2ab4:	9d05      	ldr	r5, [sp, #20]
    2ab6:	464f      	mov	r7, r9
    2ab8:	002a      	movs	r2, r5
    2aba:	040b      	lsls	r3, r1, #16
    2abc:	0c08      	lsrs	r0, r1, #16
    2abe:	0c1b      	lsrs	r3, r3, #16
    2ac0:	435a      	muls	r2, r3
    2ac2:	4345      	muls	r5, r0
    2ac4:	437b      	muls	r3, r7
    2ac6:	4378      	muls	r0, r7
    2ac8:	195b      	adds	r3, r3, r5
    2aca:	0c17      	lsrs	r7, r2, #16
    2acc:	18fb      	adds	r3, r7, r3
    2ace:	429d      	cmp	r5, r3
    2ad0:	d903      	bls.n	2ada <__aeabi_ddiv+0x3ba>
    2ad2:	2580      	movs	r5, #128	; 0x80
    2ad4:	026d      	lsls	r5, r5, #9
    2ad6:	46ac      	mov	ip, r5
    2ad8:	4460      	add	r0, ip
    2ada:	0c1d      	lsrs	r5, r3, #16
    2adc:	0412      	lsls	r2, r2, #16
    2ade:	041b      	lsls	r3, r3, #16
    2ae0:	0c12      	lsrs	r2, r2, #16
    2ae2:	1828      	adds	r0, r5, r0
    2ae4:	189b      	adds	r3, r3, r2
    2ae6:	4286      	cmp	r6, r0
    2ae8:	d200      	bcs.n	2aec <__aeabi_ddiv+0x3cc>
    2aea:	e093      	b.n	2c14 <__aeabi_ddiv+0x4f4>
    2aec:	d100      	bne.n	2af0 <__aeabi_ddiv+0x3d0>
    2aee:	e08e      	b.n	2c0e <__aeabi_ddiv+0x4ee>
    2af0:	2301      	movs	r3, #1
    2af2:	4319      	orrs	r1, r3
    2af4:	4ba0      	ldr	r3, [pc, #640]	; (2d78 <__aeabi_ddiv+0x658>)
    2af6:	18e3      	adds	r3, r4, r3
    2af8:	2b00      	cmp	r3, #0
    2afa:	dc00      	bgt.n	2afe <__aeabi_ddiv+0x3de>
    2afc:	e099      	b.n	2c32 <__aeabi_ddiv+0x512>
    2afe:	074a      	lsls	r2, r1, #29
    2b00:	d000      	beq.n	2b04 <__aeabi_ddiv+0x3e4>
    2b02:	e09e      	b.n	2c42 <__aeabi_ddiv+0x522>
    2b04:	465a      	mov	r2, fp
    2b06:	01d2      	lsls	r2, r2, #7
    2b08:	d506      	bpl.n	2b18 <__aeabi_ddiv+0x3f8>
    2b0a:	465a      	mov	r2, fp
    2b0c:	4b9b      	ldr	r3, [pc, #620]	; (2d7c <__aeabi_ddiv+0x65c>)
    2b0e:	401a      	ands	r2, r3
    2b10:	2380      	movs	r3, #128	; 0x80
    2b12:	4693      	mov	fp, r2
    2b14:	00db      	lsls	r3, r3, #3
    2b16:	18e3      	adds	r3, r4, r3
    2b18:	4a99      	ldr	r2, [pc, #612]	; (2d80 <__aeabi_ddiv+0x660>)
    2b1a:	4293      	cmp	r3, r2
    2b1c:	dd68      	ble.n	2bf0 <__aeabi_ddiv+0x4d0>
    2b1e:	2301      	movs	r3, #1
    2b20:	9a02      	ldr	r2, [sp, #8]
    2b22:	4c98      	ldr	r4, [pc, #608]	; (2d84 <__aeabi_ddiv+0x664>)
    2b24:	401a      	ands	r2, r3
    2b26:	2300      	movs	r3, #0
    2b28:	4694      	mov	ip, r2
    2b2a:	4698      	mov	r8, r3
    2b2c:	2200      	movs	r2, #0
    2b2e:	e6c5      	b.n	28bc <__aeabi_ddiv+0x19c>
    2b30:	2280      	movs	r2, #128	; 0x80
    2b32:	464b      	mov	r3, r9
    2b34:	0312      	lsls	r2, r2, #12
    2b36:	4213      	tst	r3, r2
    2b38:	d00a      	beq.n	2b50 <__aeabi_ddiv+0x430>
    2b3a:	465b      	mov	r3, fp
    2b3c:	4213      	tst	r3, r2
    2b3e:	d106      	bne.n	2b4e <__aeabi_ddiv+0x42e>
    2b40:	431a      	orrs	r2, r3
    2b42:	0312      	lsls	r2, r2, #12
    2b44:	0b12      	lsrs	r2, r2, #12
    2b46:	46ac      	mov	ip, r5
    2b48:	4688      	mov	r8, r1
    2b4a:	4c8e      	ldr	r4, [pc, #568]	; (2d84 <__aeabi_ddiv+0x664>)
    2b4c:	e6b6      	b.n	28bc <__aeabi_ddiv+0x19c>
    2b4e:	464b      	mov	r3, r9
    2b50:	431a      	orrs	r2, r3
    2b52:	0312      	lsls	r2, r2, #12
    2b54:	0b12      	lsrs	r2, r2, #12
    2b56:	46bc      	mov	ip, r7
    2b58:	4c8a      	ldr	r4, [pc, #552]	; (2d84 <__aeabi_ddiv+0x664>)
    2b5a:	e6af      	b.n	28bc <__aeabi_ddiv+0x19c>
    2b5c:	0003      	movs	r3, r0
    2b5e:	465a      	mov	r2, fp
    2b60:	3b28      	subs	r3, #40	; 0x28
    2b62:	409a      	lsls	r2, r3
    2b64:	2300      	movs	r3, #0
    2b66:	4691      	mov	r9, r2
    2b68:	4698      	mov	r8, r3
    2b6a:	e657      	b.n	281c <__aeabi_ddiv+0xfc>
    2b6c:	4658      	mov	r0, fp
    2b6e:	f001 f819 	bl	3ba4 <__clzsi2>
    2b72:	3020      	adds	r0, #32
    2b74:	e640      	b.n	27f8 <__aeabi_ddiv+0xd8>
    2b76:	0003      	movs	r3, r0
    2b78:	4652      	mov	r2, sl
    2b7a:	3b28      	subs	r3, #40	; 0x28
    2b7c:	409a      	lsls	r2, r3
    2b7e:	2100      	movs	r1, #0
    2b80:	4693      	mov	fp, r2
    2b82:	e677      	b.n	2874 <__aeabi_ddiv+0x154>
    2b84:	f001 f80e 	bl	3ba4 <__clzsi2>
    2b88:	3020      	adds	r0, #32
    2b8a:	e65f      	b.n	284c <__aeabi_ddiv+0x12c>
    2b8c:	4588      	cmp	r8, r1
    2b8e:	d200      	bcs.n	2b92 <__aeabi_ddiv+0x472>
    2b90:	e6c7      	b.n	2922 <__aeabi_ddiv+0x202>
    2b92:	464b      	mov	r3, r9
    2b94:	07de      	lsls	r6, r3, #31
    2b96:	085d      	lsrs	r5, r3, #1
    2b98:	4643      	mov	r3, r8
    2b9a:	085b      	lsrs	r3, r3, #1
    2b9c:	431e      	orrs	r6, r3
    2b9e:	4643      	mov	r3, r8
    2ba0:	07db      	lsls	r3, r3, #31
    2ba2:	469a      	mov	sl, r3
    2ba4:	e6c2      	b.n	292c <__aeabi_ddiv+0x20c>
    2ba6:	2500      	movs	r5, #0
    2ba8:	4592      	cmp	sl, r2
    2baa:	d300      	bcc.n	2bae <__aeabi_ddiv+0x48e>
    2bac:	e733      	b.n	2a16 <__aeabi_ddiv+0x2f6>
    2bae:	9e03      	ldr	r6, [sp, #12]
    2bb0:	4659      	mov	r1, fp
    2bb2:	46b4      	mov	ip, r6
    2bb4:	44e2      	add	sl, ip
    2bb6:	45b2      	cmp	sl, r6
    2bb8:	41ad      	sbcs	r5, r5
    2bba:	426d      	negs	r5, r5
    2bbc:	4445      	add	r5, r8
    2bbe:	18eb      	adds	r3, r5, r3
    2bc0:	3901      	subs	r1, #1
    2bc2:	4598      	cmp	r8, r3
    2bc4:	d207      	bcs.n	2bd6 <__aeabi_ddiv+0x4b6>
    2bc6:	4298      	cmp	r0, r3
    2bc8:	d900      	bls.n	2bcc <__aeabi_ddiv+0x4ac>
    2bca:	e07f      	b.n	2ccc <__aeabi_ddiv+0x5ac>
    2bcc:	d100      	bne.n	2bd0 <__aeabi_ddiv+0x4b0>
    2bce:	e0bc      	b.n	2d4a <__aeabi_ddiv+0x62a>
    2bd0:	1a1d      	subs	r5, r3, r0
    2bd2:	468b      	mov	fp, r1
    2bd4:	e71f      	b.n	2a16 <__aeabi_ddiv+0x2f6>
    2bd6:	4598      	cmp	r8, r3
    2bd8:	d1fa      	bne.n	2bd0 <__aeabi_ddiv+0x4b0>
    2bda:	9d03      	ldr	r5, [sp, #12]
    2bdc:	4555      	cmp	r5, sl
    2bde:	d9f2      	bls.n	2bc6 <__aeabi_ddiv+0x4a6>
    2be0:	4643      	mov	r3, r8
    2be2:	468b      	mov	fp, r1
    2be4:	1a1d      	subs	r5, r3, r0
    2be6:	e716      	b.n	2a16 <__aeabi_ddiv+0x2f6>
    2be8:	469b      	mov	fp, r3
    2bea:	e6ca      	b.n	2982 <__aeabi_ddiv+0x262>
    2bec:	0015      	movs	r5, r2
    2bee:	e6e7      	b.n	29c0 <__aeabi_ddiv+0x2a0>
    2bf0:	465a      	mov	r2, fp
    2bf2:	08c9      	lsrs	r1, r1, #3
    2bf4:	0752      	lsls	r2, r2, #29
    2bf6:	430a      	orrs	r2, r1
    2bf8:	055b      	lsls	r3, r3, #21
    2bfa:	4690      	mov	r8, r2
    2bfc:	0d5c      	lsrs	r4, r3, #21
    2bfe:	465a      	mov	r2, fp
    2c00:	2301      	movs	r3, #1
    2c02:	9902      	ldr	r1, [sp, #8]
    2c04:	0252      	lsls	r2, r2, #9
    2c06:	4019      	ands	r1, r3
    2c08:	0b12      	lsrs	r2, r2, #12
    2c0a:	468c      	mov	ip, r1
    2c0c:	e656      	b.n	28bc <__aeabi_ddiv+0x19c>
    2c0e:	2b00      	cmp	r3, #0
    2c10:	d100      	bne.n	2c14 <__aeabi_ddiv+0x4f4>
    2c12:	e76f      	b.n	2af4 <__aeabi_ddiv+0x3d4>
    2c14:	4446      	add	r6, r8
    2c16:	1e4a      	subs	r2, r1, #1
    2c18:	45b0      	cmp	r8, r6
    2c1a:	d929      	bls.n	2c70 <__aeabi_ddiv+0x550>
    2c1c:	0011      	movs	r1, r2
    2c1e:	4286      	cmp	r6, r0
    2c20:	d000      	beq.n	2c24 <__aeabi_ddiv+0x504>
    2c22:	e765      	b.n	2af0 <__aeabi_ddiv+0x3d0>
    2c24:	9a03      	ldr	r2, [sp, #12]
    2c26:	4293      	cmp	r3, r2
    2c28:	d000      	beq.n	2c2c <__aeabi_ddiv+0x50c>
    2c2a:	e761      	b.n	2af0 <__aeabi_ddiv+0x3d0>
    2c2c:	e762      	b.n	2af4 <__aeabi_ddiv+0x3d4>
    2c2e:	2101      	movs	r1, #1
    2c30:	4249      	negs	r1, r1
    2c32:	2001      	movs	r0, #1
    2c34:	1ac2      	subs	r2, r0, r3
    2c36:	2a38      	cmp	r2, #56	; 0x38
    2c38:	dd21      	ble.n	2c7e <__aeabi_ddiv+0x55e>
    2c3a:	9b02      	ldr	r3, [sp, #8]
    2c3c:	4003      	ands	r3, r0
    2c3e:	469c      	mov	ip, r3
    2c40:	e638      	b.n	28b4 <__aeabi_ddiv+0x194>
    2c42:	220f      	movs	r2, #15
    2c44:	400a      	ands	r2, r1
    2c46:	2a04      	cmp	r2, #4
    2c48:	d100      	bne.n	2c4c <__aeabi_ddiv+0x52c>
    2c4a:	e75b      	b.n	2b04 <__aeabi_ddiv+0x3e4>
    2c4c:	000a      	movs	r2, r1
    2c4e:	1d11      	adds	r1, r2, #4
    2c50:	4291      	cmp	r1, r2
    2c52:	4192      	sbcs	r2, r2
    2c54:	4252      	negs	r2, r2
    2c56:	4493      	add	fp, r2
    2c58:	e754      	b.n	2b04 <__aeabi_ddiv+0x3e4>
    2c5a:	4b47      	ldr	r3, [pc, #284]	; (2d78 <__aeabi_ddiv+0x658>)
    2c5c:	18e3      	adds	r3, r4, r3
    2c5e:	2b00      	cmp	r3, #0
    2c60:	dde5      	ble.n	2c2e <__aeabi_ddiv+0x50e>
    2c62:	2201      	movs	r2, #1
    2c64:	4252      	negs	r2, r2
    2c66:	e7f2      	b.n	2c4e <__aeabi_ddiv+0x52e>
    2c68:	001d      	movs	r5, r3
    2c6a:	e6fa      	b.n	2a62 <__aeabi_ddiv+0x342>
    2c6c:	469a      	mov	sl, r3
    2c6e:	e71c      	b.n	2aaa <__aeabi_ddiv+0x38a>
    2c70:	42b0      	cmp	r0, r6
    2c72:	d839      	bhi.n	2ce8 <__aeabi_ddiv+0x5c8>
    2c74:	d06e      	beq.n	2d54 <__aeabi_ddiv+0x634>
    2c76:	0011      	movs	r1, r2
    2c78:	e73a      	b.n	2af0 <__aeabi_ddiv+0x3d0>
    2c7a:	9302      	str	r3, [sp, #8]
    2c7c:	e73a      	b.n	2af4 <__aeabi_ddiv+0x3d4>
    2c7e:	2a1f      	cmp	r2, #31
    2c80:	dc3c      	bgt.n	2cfc <__aeabi_ddiv+0x5dc>
    2c82:	2320      	movs	r3, #32
    2c84:	1a9b      	subs	r3, r3, r2
    2c86:	000c      	movs	r4, r1
    2c88:	4658      	mov	r0, fp
    2c8a:	4099      	lsls	r1, r3
    2c8c:	4098      	lsls	r0, r3
    2c8e:	1e4b      	subs	r3, r1, #1
    2c90:	4199      	sbcs	r1, r3
    2c92:	465b      	mov	r3, fp
    2c94:	40d4      	lsrs	r4, r2
    2c96:	40d3      	lsrs	r3, r2
    2c98:	4320      	orrs	r0, r4
    2c9a:	4308      	orrs	r0, r1
    2c9c:	001a      	movs	r2, r3
    2c9e:	0743      	lsls	r3, r0, #29
    2ca0:	d009      	beq.n	2cb6 <__aeabi_ddiv+0x596>
    2ca2:	230f      	movs	r3, #15
    2ca4:	4003      	ands	r3, r0
    2ca6:	2b04      	cmp	r3, #4
    2ca8:	d005      	beq.n	2cb6 <__aeabi_ddiv+0x596>
    2caa:	0001      	movs	r1, r0
    2cac:	1d08      	adds	r0, r1, #4
    2cae:	4288      	cmp	r0, r1
    2cb0:	419b      	sbcs	r3, r3
    2cb2:	425b      	negs	r3, r3
    2cb4:	18d2      	adds	r2, r2, r3
    2cb6:	0213      	lsls	r3, r2, #8
    2cb8:	d53a      	bpl.n	2d30 <__aeabi_ddiv+0x610>
    2cba:	2301      	movs	r3, #1
    2cbc:	9a02      	ldr	r2, [sp, #8]
    2cbe:	2401      	movs	r4, #1
    2cc0:	401a      	ands	r2, r3
    2cc2:	2300      	movs	r3, #0
    2cc4:	4694      	mov	ip, r2
    2cc6:	4698      	mov	r8, r3
    2cc8:	2200      	movs	r2, #0
    2cca:	e5f7      	b.n	28bc <__aeabi_ddiv+0x19c>
    2ccc:	2102      	movs	r1, #2
    2cce:	4249      	negs	r1, r1
    2cd0:	468c      	mov	ip, r1
    2cd2:	9d03      	ldr	r5, [sp, #12]
    2cd4:	44e3      	add	fp, ip
    2cd6:	46ac      	mov	ip, r5
    2cd8:	44e2      	add	sl, ip
    2cda:	45aa      	cmp	sl, r5
    2cdc:	41ad      	sbcs	r5, r5
    2cde:	426d      	negs	r5, r5
    2ce0:	4445      	add	r5, r8
    2ce2:	18ed      	adds	r5, r5, r3
    2ce4:	1a2d      	subs	r5, r5, r0
    2ce6:	e696      	b.n	2a16 <__aeabi_ddiv+0x2f6>
    2ce8:	1e8a      	subs	r2, r1, #2
    2cea:	9903      	ldr	r1, [sp, #12]
    2cec:	004d      	lsls	r5, r1, #1
    2cee:	428d      	cmp	r5, r1
    2cf0:	4189      	sbcs	r1, r1
    2cf2:	4249      	negs	r1, r1
    2cf4:	4441      	add	r1, r8
    2cf6:	1876      	adds	r6, r6, r1
    2cf8:	9503      	str	r5, [sp, #12]
    2cfa:	e78f      	b.n	2c1c <__aeabi_ddiv+0x4fc>
    2cfc:	201f      	movs	r0, #31
    2cfe:	4240      	negs	r0, r0
    2d00:	1ac3      	subs	r3, r0, r3
    2d02:	4658      	mov	r0, fp
    2d04:	40d8      	lsrs	r0, r3
    2d06:	0003      	movs	r3, r0
    2d08:	2a20      	cmp	r2, #32
    2d0a:	d028      	beq.n	2d5e <__aeabi_ddiv+0x63e>
    2d0c:	2040      	movs	r0, #64	; 0x40
    2d0e:	465d      	mov	r5, fp
    2d10:	1a82      	subs	r2, r0, r2
    2d12:	4095      	lsls	r5, r2
    2d14:	4329      	orrs	r1, r5
    2d16:	1e4a      	subs	r2, r1, #1
    2d18:	4191      	sbcs	r1, r2
    2d1a:	4319      	orrs	r1, r3
    2d1c:	2307      	movs	r3, #7
    2d1e:	2200      	movs	r2, #0
    2d20:	400b      	ands	r3, r1
    2d22:	d009      	beq.n	2d38 <__aeabi_ddiv+0x618>
    2d24:	230f      	movs	r3, #15
    2d26:	2200      	movs	r2, #0
    2d28:	400b      	ands	r3, r1
    2d2a:	0008      	movs	r0, r1
    2d2c:	2b04      	cmp	r3, #4
    2d2e:	d1bd      	bne.n	2cac <__aeabi_ddiv+0x58c>
    2d30:	0001      	movs	r1, r0
    2d32:	0753      	lsls	r3, r2, #29
    2d34:	0252      	lsls	r2, r2, #9
    2d36:	0b12      	lsrs	r2, r2, #12
    2d38:	08c9      	lsrs	r1, r1, #3
    2d3a:	4319      	orrs	r1, r3
    2d3c:	2301      	movs	r3, #1
    2d3e:	4688      	mov	r8, r1
    2d40:	9902      	ldr	r1, [sp, #8]
    2d42:	2400      	movs	r4, #0
    2d44:	4019      	ands	r1, r3
    2d46:	468c      	mov	ip, r1
    2d48:	e5b8      	b.n	28bc <__aeabi_ddiv+0x19c>
    2d4a:	4552      	cmp	r2, sl
    2d4c:	d8be      	bhi.n	2ccc <__aeabi_ddiv+0x5ac>
    2d4e:	468b      	mov	fp, r1
    2d50:	2500      	movs	r5, #0
    2d52:	e660      	b.n	2a16 <__aeabi_ddiv+0x2f6>
    2d54:	9d03      	ldr	r5, [sp, #12]
    2d56:	429d      	cmp	r5, r3
    2d58:	d3c6      	bcc.n	2ce8 <__aeabi_ddiv+0x5c8>
    2d5a:	0011      	movs	r1, r2
    2d5c:	e762      	b.n	2c24 <__aeabi_ddiv+0x504>
    2d5e:	2500      	movs	r5, #0
    2d60:	e7d8      	b.n	2d14 <__aeabi_ddiv+0x5f4>
    2d62:	2280      	movs	r2, #128	; 0x80
    2d64:	465b      	mov	r3, fp
    2d66:	0312      	lsls	r2, r2, #12
    2d68:	431a      	orrs	r2, r3
    2d6a:	9b01      	ldr	r3, [sp, #4]
    2d6c:	0312      	lsls	r2, r2, #12
    2d6e:	0b12      	lsrs	r2, r2, #12
    2d70:	469c      	mov	ip, r3
    2d72:	4688      	mov	r8, r1
    2d74:	4c03      	ldr	r4, [pc, #12]	; (2d84 <__aeabi_ddiv+0x664>)
    2d76:	e5a1      	b.n	28bc <__aeabi_ddiv+0x19c>
    2d78:	000003ff 	.word	0x000003ff
    2d7c:	feffffff 	.word	0xfeffffff
    2d80:	000007fe 	.word	0x000007fe
    2d84:	000007ff 	.word	0x000007ff

00002d88 <__aeabi_dmul>:
    2d88:	b5f0      	push	{r4, r5, r6, r7, lr}
    2d8a:	4657      	mov	r7, sl
    2d8c:	4645      	mov	r5, r8
    2d8e:	46de      	mov	lr, fp
    2d90:	464e      	mov	r6, r9
    2d92:	b5e0      	push	{r5, r6, r7, lr}
    2d94:	030c      	lsls	r4, r1, #12
    2d96:	4698      	mov	r8, r3
    2d98:	004e      	lsls	r6, r1, #1
    2d9a:	0b23      	lsrs	r3, r4, #12
    2d9c:	b087      	sub	sp, #28
    2d9e:	0007      	movs	r7, r0
    2da0:	4692      	mov	sl, r2
    2da2:	469b      	mov	fp, r3
    2da4:	0d76      	lsrs	r6, r6, #21
    2da6:	0fcd      	lsrs	r5, r1, #31
    2da8:	2e00      	cmp	r6, #0
    2daa:	d06b      	beq.n	2e84 <__aeabi_dmul+0xfc>
    2dac:	4b6d      	ldr	r3, [pc, #436]	; (2f64 <__aeabi_dmul+0x1dc>)
    2dae:	429e      	cmp	r6, r3
    2db0:	d035      	beq.n	2e1e <__aeabi_dmul+0x96>
    2db2:	2480      	movs	r4, #128	; 0x80
    2db4:	465b      	mov	r3, fp
    2db6:	0f42      	lsrs	r2, r0, #29
    2db8:	0424      	lsls	r4, r4, #16
    2dba:	00db      	lsls	r3, r3, #3
    2dbc:	4314      	orrs	r4, r2
    2dbe:	431c      	orrs	r4, r3
    2dc0:	00c3      	lsls	r3, r0, #3
    2dc2:	4699      	mov	r9, r3
    2dc4:	4b68      	ldr	r3, [pc, #416]	; (2f68 <__aeabi_dmul+0x1e0>)
    2dc6:	46a3      	mov	fp, r4
    2dc8:	469c      	mov	ip, r3
    2dca:	2300      	movs	r3, #0
    2dcc:	2700      	movs	r7, #0
    2dce:	4466      	add	r6, ip
    2dd0:	9302      	str	r3, [sp, #8]
    2dd2:	4643      	mov	r3, r8
    2dd4:	031c      	lsls	r4, r3, #12
    2dd6:	005a      	lsls	r2, r3, #1
    2dd8:	0fdb      	lsrs	r3, r3, #31
    2dda:	4650      	mov	r0, sl
    2ddc:	0b24      	lsrs	r4, r4, #12
    2dde:	0d52      	lsrs	r2, r2, #21
    2de0:	4698      	mov	r8, r3
    2de2:	d100      	bne.n	2de6 <__aeabi_dmul+0x5e>
    2de4:	e076      	b.n	2ed4 <__aeabi_dmul+0x14c>
    2de6:	4b5f      	ldr	r3, [pc, #380]	; (2f64 <__aeabi_dmul+0x1dc>)
    2de8:	429a      	cmp	r2, r3
    2dea:	d06d      	beq.n	2ec8 <__aeabi_dmul+0x140>
    2dec:	2380      	movs	r3, #128	; 0x80
    2dee:	0f41      	lsrs	r1, r0, #29
    2df0:	041b      	lsls	r3, r3, #16
    2df2:	430b      	orrs	r3, r1
    2df4:	495c      	ldr	r1, [pc, #368]	; (2f68 <__aeabi_dmul+0x1e0>)
    2df6:	00e4      	lsls	r4, r4, #3
    2df8:	468c      	mov	ip, r1
    2dfa:	431c      	orrs	r4, r3
    2dfc:	00c3      	lsls	r3, r0, #3
    2dfe:	2000      	movs	r0, #0
    2e00:	4462      	add	r2, ip
    2e02:	4641      	mov	r1, r8
    2e04:	18b6      	adds	r6, r6, r2
    2e06:	4069      	eors	r1, r5
    2e08:	1c72      	adds	r2, r6, #1
    2e0a:	9101      	str	r1, [sp, #4]
    2e0c:	4694      	mov	ip, r2
    2e0e:	4307      	orrs	r7, r0
    2e10:	2f0f      	cmp	r7, #15
    2e12:	d900      	bls.n	2e16 <__aeabi_dmul+0x8e>
    2e14:	e0b0      	b.n	2f78 <__aeabi_dmul+0x1f0>
    2e16:	4a55      	ldr	r2, [pc, #340]	; (2f6c <__aeabi_dmul+0x1e4>)
    2e18:	00bf      	lsls	r7, r7, #2
    2e1a:	59d2      	ldr	r2, [r2, r7]
    2e1c:	4697      	mov	pc, r2
    2e1e:	465b      	mov	r3, fp
    2e20:	4303      	orrs	r3, r0
    2e22:	4699      	mov	r9, r3
    2e24:	d000      	beq.n	2e28 <__aeabi_dmul+0xa0>
    2e26:	e087      	b.n	2f38 <__aeabi_dmul+0x1b0>
    2e28:	2300      	movs	r3, #0
    2e2a:	469b      	mov	fp, r3
    2e2c:	3302      	adds	r3, #2
    2e2e:	2708      	movs	r7, #8
    2e30:	9302      	str	r3, [sp, #8]
    2e32:	e7ce      	b.n	2dd2 <__aeabi_dmul+0x4a>
    2e34:	4642      	mov	r2, r8
    2e36:	9201      	str	r2, [sp, #4]
    2e38:	2802      	cmp	r0, #2
    2e3a:	d067      	beq.n	2f0c <__aeabi_dmul+0x184>
    2e3c:	2803      	cmp	r0, #3
    2e3e:	d100      	bne.n	2e42 <__aeabi_dmul+0xba>
    2e40:	e20e      	b.n	3260 <__aeabi_dmul+0x4d8>
    2e42:	2801      	cmp	r0, #1
    2e44:	d000      	beq.n	2e48 <__aeabi_dmul+0xc0>
    2e46:	e162      	b.n	310e <__aeabi_dmul+0x386>
    2e48:	2300      	movs	r3, #0
    2e4a:	2400      	movs	r4, #0
    2e4c:	2200      	movs	r2, #0
    2e4e:	4699      	mov	r9, r3
    2e50:	9901      	ldr	r1, [sp, #4]
    2e52:	4001      	ands	r1, r0
    2e54:	b2cd      	uxtb	r5, r1
    2e56:	2100      	movs	r1, #0
    2e58:	0312      	lsls	r2, r2, #12
    2e5a:	0d0b      	lsrs	r3, r1, #20
    2e5c:	0b12      	lsrs	r2, r2, #12
    2e5e:	051b      	lsls	r3, r3, #20
    2e60:	4313      	orrs	r3, r2
    2e62:	4a43      	ldr	r2, [pc, #268]	; (2f70 <__aeabi_dmul+0x1e8>)
    2e64:	0524      	lsls	r4, r4, #20
    2e66:	4013      	ands	r3, r2
    2e68:	431c      	orrs	r4, r3
    2e6a:	0064      	lsls	r4, r4, #1
    2e6c:	07ed      	lsls	r5, r5, #31
    2e6e:	0864      	lsrs	r4, r4, #1
    2e70:	432c      	orrs	r4, r5
    2e72:	4648      	mov	r0, r9
    2e74:	0021      	movs	r1, r4
    2e76:	b007      	add	sp, #28
    2e78:	bc3c      	pop	{r2, r3, r4, r5}
    2e7a:	4690      	mov	r8, r2
    2e7c:	4699      	mov	r9, r3
    2e7e:	46a2      	mov	sl, r4
    2e80:	46ab      	mov	fp, r5
    2e82:	bdf0      	pop	{r4, r5, r6, r7, pc}
    2e84:	4303      	orrs	r3, r0
    2e86:	4699      	mov	r9, r3
    2e88:	d04f      	beq.n	2f2a <__aeabi_dmul+0x1a2>
    2e8a:	465b      	mov	r3, fp
    2e8c:	2b00      	cmp	r3, #0
    2e8e:	d100      	bne.n	2e92 <__aeabi_dmul+0x10a>
    2e90:	e189      	b.n	31a6 <__aeabi_dmul+0x41e>
    2e92:	4658      	mov	r0, fp
    2e94:	f000 fe86 	bl	3ba4 <__clzsi2>
    2e98:	0003      	movs	r3, r0
    2e9a:	3b0b      	subs	r3, #11
    2e9c:	2b1c      	cmp	r3, #28
    2e9e:	dd00      	ble.n	2ea2 <__aeabi_dmul+0x11a>
    2ea0:	e17a      	b.n	3198 <__aeabi_dmul+0x410>
    2ea2:	221d      	movs	r2, #29
    2ea4:	1ad3      	subs	r3, r2, r3
    2ea6:	003a      	movs	r2, r7
    2ea8:	0001      	movs	r1, r0
    2eaa:	465c      	mov	r4, fp
    2eac:	40da      	lsrs	r2, r3
    2eae:	3908      	subs	r1, #8
    2eb0:	408c      	lsls	r4, r1
    2eb2:	0013      	movs	r3, r2
    2eb4:	408f      	lsls	r7, r1
    2eb6:	4323      	orrs	r3, r4
    2eb8:	469b      	mov	fp, r3
    2eba:	46b9      	mov	r9, r7
    2ebc:	2300      	movs	r3, #0
    2ebe:	4e2d      	ldr	r6, [pc, #180]	; (2f74 <__aeabi_dmul+0x1ec>)
    2ec0:	2700      	movs	r7, #0
    2ec2:	1a36      	subs	r6, r6, r0
    2ec4:	9302      	str	r3, [sp, #8]
    2ec6:	e784      	b.n	2dd2 <__aeabi_dmul+0x4a>
    2ec8:	4653      	mov	r3, sl
    2eca:	4323      	orrs	r3, r4
    2ecc:	d12a      	bne.n	2f24 <__aeabi_dmul+0x19c>
    2ece:	2400      	movs	r4, #0
    2ed0:	2002      	movs	r0, #2
    2ed2:	e796      	b.n	2e02 <__aeabi_dmul+0x7a>
    2ed4:	4653      	mov	r3, sl
    2ed6:	4323      	orrs	r3, r4
    2ed8:	d020      	beq.n	2f1c <__aeabi_dmul+0x194>
    2eda:	2c00      	cmp	r4, #0
    2edc:	d100      	bne.n	2ee0 <__aeabi_dmul+0x158>
    2ede:	e157      	b.n	3190 <__aeabi_dmul+0x408>
    2ee0:	0020      	movs	r0, r4
    2ee2:	f000 fe5f 	bl	3ba4 <__clzsi2>
    2ee6:	0003      	movs	r3, r0
    2ee8:	3b0b      	subs	r3, #11
    2eea:	2b1c      	cmp	r3, #28
    2eec:	dd00      	ble.n	2ef0 <__aeabi_dmul+0x168>
    2eee:	e149      	b.n	3184 <__aeabi_dmul+0x3fc>
    2ef0:	211d      	movs	r1, #29
    2ef2:	1acb      	subs	r3, r1, r3
    2ef4:	4651      	mov	r1, sl
    2ef6:	0002      	movs	r2, r0
    2ef8:	40d9      	lsrs	r1, r3
    2efa:	4653      	mov	r3, sl
    2efc:	3a08      	subs	r2, #8
    2efe:	4094      	lsls	r4, r2
    2f00:	4093      	lsls	r3, r2
    2f02:	430c      	orrs	r4, r1
    2f04:	4a1b      	ldr	r2, [pc, #108]	; (2f74 <__aeabi_dmul+0x1ec>)
    2f06:	1a12      	subs	r2, r2, r0
    2f08:	2000      	movs	r0, #0
    2f0a:	e77a      	b.n	2e02 <__aeabi_dmul+0x7a>
    2f0c:	2501      	movs	r5, #1
    2f0e:	9b01      	ldr	r3, [sp, #4]
    2f10:	4c14      	ldr	r4, [pc, #80]	; (2f64 <__aeabi_dmul+0x1dc>)
    2f12:	401d      	ands	r5, r3
    2f14:	2300      	movs	r3, #0
    2f16:	2200      	movs	r2, #0
    2f18:	4699      	mov	r9, r3
    2f1a:	e79c      	b.n	2e56 <__aeabi_dmul+0xce>
    2f1c:	2400      	movs	r4, #0
    2f1e:	2200      	movs	r2, #0
    2f20:	2001      	movs	r0, #1
    2f22:	e76e      	b.n	2e02 <__aeabi_dmul+0x7a>
    2f24:	4653      	mov	r3, sl
    2f26:	2003      	movs	r0, #3
    2f28:	e76b      	b.n	2e02 <__aeabi_dmul+0x7a>
    2f2a:	2300      	movs	r3, #0
    2f2c:	469b      	mov	fp, r3
    2f2e:	3301      	adds	r3, #1
    2f30:	2704      	movs	r7, #4
    2f32:	2600      	movs	r6, #0
    2f34:	9302      	str	r3, [sp, #8]
    2f36:	e74c      	b.n	2dd2 <__aeabi_dmul+0x4a>
    2f38:	2303      	movs	r3, #3
    2f3a:	4681      	mov	r9, r0
    2f3c:	270c      	movs	r7, #12
    2f3e:	9302      	str	r3, [sp, #8]
    2f40:	e747      	b.n	2dd2 <__aeabi_dmul+0x4a>
    2f42:	2280      	movs	r2, #128	; 0x80
    2f44:	2300      	movs	r3, #0
    2f46:	2500      	movs	r5, #0
    2f48:	0312      	lsls	r2, r2, #12
    2f4a:	4699      	mov	r9, r3
    2f4c:	4c05      	ldr	r4, [pc, #20]	; (2f64 <__aeabi_dmul+0x1dc>)
    2f4e:	e782      	b.n	2e56 <__aeabi_dmul+0xce>
    2f50:	465c      	mov	r4, fp
    2f52:	464b      	mov	r3, r9
    2f54:	9802      	ldr	r0, [sp, #8]
    2f56:	e76f      	b.n	2e38 <__aeabi_dmul+0xb0>
    2f58:	465c      	mov	r4, fp
    2f5a:	464b      	mov	r3, r9
    2f5c:	9501      	str	r5, [sp, #4]
    2f5e:	9802      	ldr	r0, [sp, #8]
    2f60:	e76a      	b.n	2e38 <__aeabi_dmul+0xb0>
    2f62:	46c0      	nop			; (mov r8, r8)
    2f64:	000007ff 	.word	0x000007ff
    2f68:	fffffc01 	.word	0xfffffc01
    2f6c:	000060f0 	.word	0x000060f0
    2f70:	800fffff 	.word	0x800fffff
    2f74:	fffffc0d 	.word	0xfffffc0d
    2f78:	464a      	mov	r2, r9
    2f7a:	4649      	mov	r1, r9
    2f7c:	0c17      	lsrs	r7, r2, #16
    2f7e:	0c1a      	lsrs	r2, r3, #16
    2f80:	041b      	lsls	r3, r3, #16
    2f82:	0c1b      	lsrs	r3, r3, #16
    2f84:	0408      	lsls	r0, r1, #16
    2f86:	0019      	movs	r1, r3
    2f88:	0c00      	lsrs	r0, r0, #16
    2f8a:	4341      	muls	r1, r0
    2f8c:	0015      	movs	r5, r2
    2f8e:	4688      	mov	r8, r1
    2f90:	0019      	movs	r1, r3
    2f92:	437d      	muls	r5, r7
    2f94:	4379      	muls	r1, r7
    2f96:	9503      	str	r5, [sp, #12]
    2f98:	4689      	mov	r9, r1
    2f9a:	0029      	movs	r1, r5
    2f9c:	0015      	movs	r5, r2
    2f9e:	4345      	muls	r5, r0
    2fa0:	444d      	add	r5, r9
    2fa2:	9502      	str	r5, [sp, #8]
    2fa4:	4645      	mov	r5, r8
    2fa6:	0c2d      	lsrs	r5, r5, #16
    2fa8:	46aa      	mov	sl, r5
    2faa:	9d02      	ldr	r5, [sp, #8]
    2fac:	4455      	add	r5, sl
    2fae:	45a9      	cmp	r9, r5
    2fb0:	d906      	bls.n	2fc0 <__aeabi_dmul+0x238>
    2fb2:	468a      	mov	sl, r1
    2fb4:	2180      	movs	r1, #128	; 0x80
    2fb6:	0249      	lsls	r1, r1, #9
    2fb8:	4689      	mov	r9, r1
    2fba:	44ca      	add	sl, r9
    2fbc:	4651      	mov	r1, sl
    2fbe:	9103      	str	r1, [sp, #12]
    2fc0:	0c29      	lsrs	r1, r5, #16
    2fc2:	9104      	str	r1, [sp, #16]
    2fc4:	4641      	mov	r1, r8
    2fc6:	0409      	lsls	r1, r1, #16
    2fc8:	042d      	lsls	r5, r5, #16
    2fca:	0c09      	lsrs	r1, r1, #16
    2fcc:	4688      	mov	r8, r1
    2fce:	0029      	movs	r1, r5
    2fd0:	0c25      	lsrs	r5, r4, #16
    2fd2:	0424      	lsls	r4, r4, #16
    2fd4:	4441      	add	r1, r8
    2fd6:	0c24      	lsrs	r4, r4, #16
    2fd8:	9105      	str	r1, [sp, #20]
    2fda:	0021      	movs	r1, r4
    2fdc:	4341      	muls	r1, r0
    2fde:	4688      	mov	r8, r1
    2fe0:	0021      	movs	r1, r4
    2fe2:	4379      	muls	r1, r7
    2fe4:	468a      	mov	sl, r1
    2fe6:	4368      	muls	r0, r5
    2fe8:	4641      	mov	r1, r8
    2fea:	4450      	add	r0, sl
    2fec:	4681      	mov	r9, r0
    2fee:	0c08      	lsrs	r0, r1, #16
    2ff0:	4448      	add	r0, r9
    2ff2:	436f      	muls	r7, r5
    2ff4:	4582      	cmp	sl, r0
    2ff6:	d903      	bls.n	3000 <__aeabi_dmul+0x278>
    2ff8:	2180      	movs	r1, #128	; 0x80
    2ffa:	0249      	lsls	r1, r1, #9
    2ffc:	4689      	mov	r9, r1
    2ffe:	444f      	add	r7, r9
    3000:	0c01      	lsrs	r1, r0, #16
    3002:	4689      	mov	r9, r1
    3004:	0039      	movs	r1, r7
    3006:	4449      	add	r1, r9
    3008:	9102      	str	r1, [sp, #8]
    300a:	4641      	mov	r1, r8
    300c:	040f      	lsls	r7, r1, #16
    300e:	9904      	ldr	r1, [sp, #16]
    3010:	0c3f      	lsrs	r7, r7, #16
    3012:	4688      	mov	r8, r1
    3014:	0400      	lsls	r0, r0, #16
    3016:	19c0      	adds	r0, r0, r7
    3018:	4480      	add	r8, r0
    301a:	4641      	mov	r1, r8
    301c:	9104      	str	r1, [sp, #16]
    301e:	4659      	mov	r1, fp
    3020:	0c0f      	lsrs	r7, r1, #16
    3022:	0409      	lsls	r1, r1, #16
    3024:	0c09      	lsrs	r1, r1, #16
    3026:	4688      	mov	r8, r1
    3028:	4359      	muls	r1, r3
    302a:	468a      	mov	sl, r1
    302c:	0039      	movs	r1, r7
    302e:	4351      	muls	r1, r2
    3030:	4689      	mov	r9, r1
    3032:	4641      	mov	r1, r8
    3034:	434a      	muls	r2, r1
    3036:	4651      	mov	r1, sl
    3038:	0c09      	lsrs	r1, r1, #16
    303a:	468b      	mov	fp, r1
    303c:	437b      	muls	r3, r7
    303e:	18d2      	adds	r2, r2, r3
    3040:	445a      	add	r2, fp
    3042:	4293      	cmp	r3, r2
    3044:	d903      	bls.n	304e <__aeabi_dmul+0x2c6>
    3046:	2380      	movs	r3, #128	; 0x80
    3048:	025b      	lsls	r3, r3, #9
    304a:	469b      	mov	fp, r3
    304c:	44d9      	add	r9, fp
    304e:	4651      	mov	r1, sl
    3050:	0409      	lsls	r1, r1, #16
    3052:	0c09      	lsrs	r1, r1, #16
    3054:	468a      	mov	sl, r1
    3056:	4641      	mov	r1, r8
    3058:	4361      	muls	r1, r4
    305a:	437c      	muls	r4, r7
    305c:	0c13      	lsrs	r3, r2, #16
    305e:	0412      	lsls	r2, r2, #16
    3060:	444b      	add	r3, r9
    3062:	4452      	add	r2, sl
    3064:	46a1      	mov	r9, r4
    3066:	468a      	mov	sl, r1
    3068:	003c      	movs	r4, r7
    306a:	4641      	mov	r1, r8
    306c:	436c      	muls	r4, r5
    306e:	434d      	muls	r5, r1
    3070:	4651      	mov	r1, sl
    3072:	444d      	add	r5, r9
    3074:	0c0f      	lsrs	r7, r1, #16
    3076:	197d      	adds	r5, r7, r5
    3078:	45a9      	cmp	r9, r5
    307a:	d903      	bls.n	3084 <__aeabi_dmul+0x2fc>
    307c:	2180      	movs	r1, #128	; 0x80
    307e:	0249      	lsls	r1, r1, #9
    3080:	4688      	mov	r8, r1
    3082:	4444      	add	r4, r8
    3084:	9f04      	ldr	r7, [sp, #16]
    3086:	9903      	ldr	r1, [sp, #12]
    3088:	46b8      	mov	r8, r7
    308a:	4441      	add	r1, r8
    308c:	468b      	mov	fp, r1
    308e:	4583      	cmp	fp, r0
    3090:	4180      	sbcs	r0, r0
    3092:	4241      	negs	r1, r0
    3094:	4688      	mov	r8, r1
    3096:	4651      	mov	r1, sl
    3098:	0408      	lsls	r0, r1, #16
    309a:	042f      	lsls	r7, r5, #16
    309c:	0c00      	lsrs	r0, r0, #16
    309e:	183f      	adds	r7, r7, r0
    30a0:	4658      	mov	r0, fp
    30a2:	9902      	ldr	r1, [sp, #8]
    30a4:	1810      	adds	r0, r2, r0
    30a6:	4689      	mov	r9, r1
    30a8:	4290      	cmp	r0, r2
    30aa:	4192      	sbcs	r2, r2
    30ac:	444f      	add	r7, r9
    30ae:	46ba      	mov	sl, r7
    30b0:	4252      	negs	r2, r2
    30b2:	4699      	mov	r9, r3
    30b4:	4693      	mov	fp, r2
    30b6:	44c2      	add	sl, r8
    30b8:	44d1      	add	r9, sl
    30ba:	44cb      	add	fp, r9
    30bc:	428f      	cmp	r7, r1
    30be:	41bf      	sbcs	r7, r7
    30c0:	45c2      	cmp	sl, r8
    30c2:	4189      	sbcs	r1, r1
    30c4:	4599      	cmp	r9, r3
    30c6:	419b      	sbcs	r3, r3
    30c8:	4593      	cmp	fp, r2
    30ca:	4192      	sbcs	r2, r2
    30cc:	427f      	negs	r7, r7
    30ce:	4249      	negs	r1, r1
    30d0:	0c2d      	lsrs	r5, r5, #16
    30d2:	4252      	negs	r2, r2
    30d4:	430f      	orrs	r7, r1
    30d6:	425b      	negs	r3, r3
    30d8:	4313      	orrs	r3, r2
    30da:	197f      	adds	r7, r7, r5
    30dc:	18ff      	adds	r7, r7, r3
    30de:	465b      	mov	r3, fp
    30e0:	193c      	adds	r4, r7, r4
    30e2:	0ddb      	lsrs	r3, r3, #23
    30e4:	9a05      	ldr	r2, [sp, #20]
    30e6:	0264      	lsls	r4, r4, #9
    30e8:	431c      	orrs	r4, r3
    30ea:	0243      	lsls	r3, r0, #9
    30ec:	4313      	orrs	r3, r2
    30ee:	1e5d      	subs	r5, r3, #1
    30f0:	41ab      	sbcs	r3, r5
    30f2:	465a      	mov	r2, fp
    30f4:	0dc0      	lsrs	r0, r0, #23
    30f6:	4303      	orrs	r3, r0
    30f8:	0252      	lsls	r2, r2, #9
    30fa:	4313      	orrs	r3, r2
    30fc:	01e2      	lsls	r2, r4, #7
    30fe:	d556      	bpl.n	31ae <__aeabi_dmul+0x426>
    3100:	2001      	movs	r0, #1
    3102:	085a      	lsrs	r2, r3, #1
    3104:	4003      	ands	r3, r0
    3106:	4313      	orrs	r3, r2
    3108:	07e2      	lsls	r2, r4, #31
    310a:	4313      	orrs	r3, r2
    310c:	0864      	lsrs	r4, r4, #1
    310e:	485a      	ldr	r0, [pc, #360]	; (3278 <__aeabi_dmul+0x4f0>)
    3110:	4460      	add	r0, ip
    3112:	2800      	cmp	r0, #0
    3114:	dd4d      	ble.n	31b2 <__aeabi_dmul+0x42a>
    3116:	075a      	lsls	r2, r3, #29
    3118:	d009      	beq.n	312e <__aeabi_dmul+0x3a6>
    311a:	220f      	movs	r2, #15
    311c:	401a      	ands	r2, r3
    311e:	2a04      	cmp	r2, #4
    3120:	d005      	beq.n	312e <__aeabi_dmul+0x3a6>
    3122:	1d1a      	adds	r2, r3, #4
    3124:	429a      	cmp	r2, r3
    3126:	419b      	sbcs	r3, r3
    3128:	425b      	negs	r3, r3
    312a:	18e4      	adds	r4, r4, r3
    312c:	0013      	movs	r3, r2
    312e:	01e2      	lsls	r2, r4, #7
    3130:	d504      	bpl.n	313c <__aeabi_dmul+0x3b4>
    3132:	2080      	movs	r0, #128	; 0x80
    3134:	4a51      	ldr	r2, [pc, #324]	; (327c <__aeabi_dmul+0x4f4>)
    3136:	00c0      	lsls	r0, r0, #3
    3138:	4014      	ands	r4, r2
    313a:	4460      	add	r0, ip
    313c:	4a50      	ldr	r2, [pc, #320]	; (3280 <__aeabi_dmul+0x4f8>)
    313e:	4290      	cmp	r0, r2
    3140:	dd00      	ble.n	3144 <__aeabi_dmul+0x3bc>
    3142:	e6e3      	b.n	2f0c <__aeabi_dmul+0x184>
    3144:	2501      	movs	r5, #1
    3146:	08db      	lsrs	r3, r3, #3
    3148:	0762      	lsls	r2, r4, #29
    314a:	431a      	orrs	r2, r3
    314c:	0264      	lsls	r4, r4, #9
    314e:	9b01      	ldr	r3, [sp, #4]
    3150:	4691      	mov	r9, r2
    3152:	0b22      	lsrs	r2, r4, #12
    3154:	0544      	lsls	r4, r0, #21
    3156:	0d64      	lsrs	r4, r4, #21
    3158:	401d      	ands	r5, r3
    315a:	e67c      	b.n	2e56 <__aeabi_dmul+0xce>
    315c:	2280      	movs	r2, #128	; 0x80
    315e:	4659      	mov	r1, fp
    3160:	0312      	lsls	r2, r2, #12
    3162:	4211      	tst	r1, r2
    3164:	d008      	beq.n	3178 <__aeabi_dmul+0x3f0>
    3166:	4214      	tst	r4, r2
    3168:	d106      	bne.n	3178 <__aeabi_dmul+0x3f0>
    316a:	4322      	orrs	r2, r4
    316c:	0312      	lsls	r2, r2, #12
    316e:	0b12      	lsrs	r2, r2, #12
    3170:	4645      	mov	r5, r8
    3172:	4699      	mov	r9, r3
    3174:	4c43      	ldr	r4, [pc, #268]	; (3284 <__aeabi_dmul+0x4fc>)
    3176:	e66e      	b.n	2e56 <__aeabi_dmul+0xce>
    3178:	465b      	mov	r3, fp
    317a:	431a      	orrs	r2, r3
    317c:	0312      	lsls	r2, r2, #12
    317e:	0b12      	lsrs	r2, r2, #12
    3180:	4c40      	ldr	r4, [pc, #256]	; (3284 <__aeabi_dmul+0x4fc>)
    3182:	e668      	b.n	2e56 <__aeabi_dmul+0xce>
    3184:	0003      	movs	r3, r0
    3186:	4654      	mov	r4, sl
    3188:	3b28      	subs	r3, #40	; 0x28
    318a:	409c      	lsls	r4, r3
    318c:	2300      	movs	r3, #0
    318e:	e6b9      	b.n	2f04 <__aeabi_dmul+0x17c>
    3190:	f000 fd08 	bl	3ba4 <__clzsi2>
    3194:	3020      	adds	r0, #32
    3196:	e6a6      	b.n	2ee6 <__aeabi_dmul+0x15e>
    3198:	0003      	movs	r3, r0
    319a:	3b28      	subs	r3, #40	; 0x28
    319c:	409f      	lsls	r7, r3
    319e:	2300      	movs	r3, #0
    31a0:	46bb      	mov	fp, r7
    31a2:	4699      	mov	r9, r3
    31a4:	e68a      	b.n	2ebc <__aeabi_dmul+0x134>
    31a6:	f000 fcfd 	bl	3ba4 <__clzsi2>
    31aa:	3020      	adds	r0, #32
    31ac:	e674      	b.n	2e98 <__aeabi_dmul+0x110>
    31ae:	46b4      	mov	ip, r6
    31b0:	e7ad      	b.n	310e <__aeabi_dmul+0x386>
    31b2:	2501      	movs	r5, #1
    31b4:	1a2a      	subs	r2, r5, r0
    31b6:	2a38      	cmp	r2, #56	; 0x38
    31b8:	dd06      	ble.n	31c8 <__aeabi_dmul+0x440>
    31ba:	9b01      	ldr	r3, [sp, #4]
    31bc:	2400      	movs	r4, #0
    31be:	401d      	ands	r5, r3
    31c0:	2300      	movs	r3, #0
    31c2:	2200      	movs	r2, #0
    31c4:	4699      	mov	r9, r3
    31c6:	e646      	b.n	2e56 <__aeabi_dmul+0xce>
    31c8:	2a1f      	cmp	r2, #31
    31ca:	dc21      	bgt.n	3210 <__aeabi_dmul+0x488>
    31cc:	2520      	movs	r5, #32
    31ce:	0020      	movs	r0, r4
    31d0:	1aad      	subs	r5, r5, r2
    31d2:	001e      	movs	r6, r3
    31d4:	40ab      	lsls	r3, r5
    31d6:	40a8      	lsls	r0, r5
    31d8:	40d6      	lsrs	r6, r2
    31da:	1e5d      	subs	r5, r3, #1
    31dc:	41ab      	sbcs	r3, r5
    31de:	4330      	orrs	r0, r6
    31e0:	4318      	orrs	r0, r3
    31e2:	40d4      	lsrs	r4, r2
    31e4:	0743      	lsls	r3, r0, #29
    31e6:	d009      	beq.n	31fc <__aeabi_dmul+0x474>
    31e8:	230f      	movs	r3, #15
    31ea:	4003      	ands	r3, r0
    31ec:	2b04      	cmp	r3, #4
    31ee:	d005      	beq.n	31fc <__aeabi_dmul+0x474>
    31f0:	0003      	movs	r3, r0
    31f2:	1d18      	adds	r0, r3, #4
    31f4:	4298      	cmp	r0, r3
    31f6:	419b      	sbcs	r3, r3
    31f8:	425b      	negs	r3, r3
    31fa:	18e4      	adds	r4, r4, r3
    31fc:	0223      	lsls	r3, r4, #8
    31fe:	d521      	bpl.n	3244 <__aeabi_dmul+0x4bc>
    3200:	2501      	movs	r5, #1
    3202:	9b01      	ldr	r3, [sp, #4]
    3204:	2401      	movs	r4, #1
    3206:	401d      	ands	r5, r3
    3208:	2300      	movs	r3, #0
    320a:	2200      	movs	r2, #0
    320c:	4699      	mov	r9, r3
    320e:	e622      	b.n	2e56 <__aeabi_dmul+0xce>
    3210:	251f      	movs	r5, #31
    3212:	0021      	movs	r1, r4
    3214:	426d      	negs	r5, r5
    3216:	1a28      	subs	r0, r5, r0
    3218:	40c1      	lsrs	r1, r0
    321a:	0008      	movs	r0, r1
    321c:	2a20      	cmp	r2, #32
    321e:	d01d      	beq.n	325c <__aeabi_dmul+0x4d4>
    3220:	355f      	adds	r5, #95	; 0x5f
    3222:	1aaa      	subs	r2, r5, r2
    3224:	4094      	lsls	r4, r2
    3226:	4323      	orrs	r3, r4
    3228:	1e5c      	subs	r4, r3, #1
    322a:	41a3      	sbcs	r3, r4
    322c:	2507      	movs	r5, #7
    322e:	4303      	orrs	r3, r0
    3230:	401d      	ands	r5, r3
    3232:	2200      	movs	r2, #0
    3234:	2d00      	cmp	r5, #0
    3236:	d009      	beq.n	324c <__aeabi_dmul+0x4c4>
    3238:	220f      	movs	r2, #15
    323a:	2400      	movs	r4, #0
    323c:	401a      	ands	r2, r3
    323e:	0018      	movs	r0, r3
    3240:	2a04      	cmp	r2, #4
    3242:	d1d6      	bne.n	31f2 <__aeabi_dmul+0x46a>
    3244:	0003      	movs	r3, r0
    3246:	0765      	lsls	r5, r4, #29
    3248:	0264      	lsls	r4, r4, #9
    324a:	0b22      	lsrs	r2, r4, #12
    324c:	08db      	lsrs	r3, r3, #3
    324e:	432b      	orrs	r3, r5
    3250:	2501      	movs	r5, #1
    3252:	4699      	mov	r9, r3
    3254:	9b01      	ldr	r3, [sp, #4]
    3256:	2400      	movs	r4, #0
    3258:	401d      	ands	r5, r3
    325a:	e5fc      	b.n	2e56 <__aeabi_dmul+0xce>
    325c:	2400      	movs	r4, #0
    325e:	e7e2      	b.n	3226 <__aeabi_dmul+0x49e>
    3260:	2280      	movs	r2, #128	; 0x80
    3262:	2501      	movs	r5, #1
    3264:	0312      	lsls	r2, r2, #12
    3266:	4322      	orrs	r2, r4
    3268:	9901      	ldr	r1, [sp, #4]
    326a:	0312      	lsls	r2, r2, #12
    326c:	0b12      	lsrs	r2, r2, #12
    326e:	400d      	ands	r5, r1
    3270:	4699      	mov	r9, r3
    3272:	4c04      	ldr	r4, [pc, #16]	; (3284 <__aeabi_dmul+0x4fc>)
    3274:	e5ef      	b.n	2e56 <__aeabi_dmul+0xce>
    3276:	46c0      	nop			; (mov r8, r8)
    3278:	000003ff 	.word	0x000003ff
    327c:	feffffff 	.word	0xfeffffff
    3280:	000007fe 	.word	0x000007fe
    3284:	000007ff 	.word	0x000007ff

00003288 <__aeabi_dsub>:
    3288:	b5f0      	push	{r4, r5, r6, r7, lr}
    328a:	4646      	mov	r6, r8
    328c:	46d6      	mov	lr, sl
    328e:	464f      	mov	r7, r9
    3290:	030c      	lsls	r4, r1, #12
    3292:	b5c0      	push	{r6, r7, lr}
    3294:	0fcd      	lsrs	r5, r1, #31
    3296:	004e      	lsls	r6, r1, #1
    3298:	0a61      	lsrs	r1, r4, #9
    329a:	0f44      	lsrs	r4, r0, #29
    329c:	430c      	orrs	r4, r1
    329e:	00c1      	lsls	r1, r0, #3
    32a0:	0058      	lsls	r0, r3, #1
    32a2:	0d40      	lsrs	r0, r0, #21
    32a4:	4684      	mov	ip, r0
    32a6:	468a      	mov	sl, r1
    32a8:	000f      	movs	r7, r1
    32aa:	0319      	lsls	r1, r3, #12
    32ac:	0f50      	lsrs	r0, r2, #29
    32ae:	0a49      	lsrs	r1, r1, #9
    32b0:	4301      	orrs	r1, r0
    32b2:	48c6      	ldr	r0, [pc, #792]	; (35cc <__aeabi_dsub+0x344>)
    32b4:	0d76      	lsrs	r6, r6, #21
    32b6:	46a8      	mov	r8, r5
    32b8:	0fdb      	lsrs	r3, r3, #31
    32ba:	00d2      	lsls	r2, r2, #3
    32bc:	4584      	cmp	ip, r0
    32be:	d100      	bne.n	32c2 <__aeabi_dsub+0x3a>
    32c0:	e0d8      	b.n	3474 <__aeabi_dsub+0x1ec>
    32c2:	2001      	movs	r0, #1
    32c4:	4043      	eors	r3, r0
    32c6:	42ab      	cmp	r3, r5
    32c8:	d100      	bne.n	32cc <__aeabi_dsub+0x44>
    32ca:	e0a6      	b.n	341a <__aeabi_dsub+0x192>
    32cc:	4660      	mov	r0, ip
    32ce:	1a35      	subs	r5, r6, r0
    32d0:	2d00      	cmp	r5, #0
    32d2:	dc00      	bgt.n	32d6 <__aeabi_dsub+0x4e>
    32d4:	e105      	b.n	34e2 <__aeabi_dsub+0x25a>
    32d6:	2800      	cmp	r0, #0
    32d8:	d110      	bne.n	32fc <__aeabi_dsub+0x74>
    32da:	000b      	movs	r3, r1
    32dc:	4313      	orrs	r3, r2
    32de:	d100      	bne.n	32e2 <__aeabi_dsub+0x5a>
    32e0:	e0d7      	b.n	3492 <__aeabi_dsub+0x20a>
    32e2:	1e6b      	subs	r3, r5, #1
    32e4:	2b00      	cmp	r3, #0
    32e6:	d000      	beq.n	32ea <__aeabi_dsub+0x62>
    32e8:	e14b      	b.n	3582 <__aeabi_dsub+0x2fa>
    32ea:	4653      	mov	r3, sl
    32ec:	1a9f      	subs	r7, r3, r2
    32ee:	45ba      	cmp	sl, r7
    32f0:	4180      	sbcs	r0, r0
    32f2:	1a64      	subs	r4, r4, r1
    32f4:	4240      	negs	r0, r0
    32f6:	1a24      	subs	r4, r4, r0
    32f8:	2601      	movs	r6, #1
    32fa:	e01e      	b.n	333a <__aeabi_dsub+0xb2>
    32fc:	4bb3      	ldr	r3, [pc, #716]	; (35cc <__aeabi_dsub+0x344>)
    32fe:	429e      	cmp	r6, r3
    3300:	d048      	beq.n	3394 <__aeabi_dsub+0x10c>
    3302:	2380      	movs	r3, #128	; 0x80
    3304:	041b      	lsls	r3, r3, #16
    3306:	4319      	orrs	r1, r3
    3308:	2d38      	cmp	r5, #56	; 0x38
    330a:	dd00      	ble.n	330e <__aeabi_dsub+0x86>
    330c:	e119      	b.n	3542 <__aeabi_dsub+0x2ba>
    330e:	2d1f      	cmp	r5, #31
    3310:	dd00      	ble.n	3314 <__aeabi_dsub+0x8c>
    3312:	e14c      	b.n	35ae <__aeabi_dsub+0x326>
    3314:	2320      	movs	r3, #32
    3316:	000f      	movs	r7, r1
    3318:	1b5b      	subs	r3, r3, r5
    331a:	0010      	movs	r0, r2
    331c:	409a      	lsls	r2, r3
    331e:	409f      	lsls	r7, r3
    3320:	40e8      	lsrs	r0, r5
    3322:	1e53      	subs	r3, r2, #1
    3324:	419a      	sbcs	r2, r3
    3326:	40e9      	lsrs	r1, r5
    3328:	4307      	orrs	r7, r0
    332a:	4317      	orrs	r7, r2
    332c:	4653      	mov	r3, sl
    332e:	1bdf      	subs	r7, r3, r7
    3330:	1a61      	subs	r1, r4, r1
    3332:	45ba      	cmp	sl, r7
    3334:	41a4      	sbcs	r4, r4
    3336:	4264      	negs	r4, r4
    3338:	1b0c      	subs	r4, r1, r4
    333a:	0223      	lsls	r3, r4, #8
    333c:	d400      	bmi.n	3340 <__aeabi_dsub+0xb8>
    333e:	e0c5      	b.n	34cc <__aeabi_dsub+0x244>
    3340:	0264      	lsls	r4, r4, #9
    3342:	0a65      	lsrs	r5, r4, #9
    3344:	2d00      	cmp	r5, #0
    3346:	d100      	bne.n	334a <__aeabi_dsub+0xc2>
    3348:	e0f6      	b.n	3538 <__aeabi_dsub+0x2b0>
    334a:	0028      	movs	r0, r5
    334c:	f000 fc2a 	bl	3ba4 <__clzsi2>
    3350:	0003      	movs	r3, r0
    3352:	3b08      	subs	r3, #8
    3354:	2b1f      	cmp	r3, #31
    3356:	dd00      	ble.n	335a <__aeabi_dsub+0xd2>
    3358:	e0e9      	b.n	352e <__aeabi_dsub+0x2a6>
    335a:	2220      	movs	r2, #32
    335c:	003c      	movs	r4, r7
    335e:	1ad2      	subs	r2, r2, r3
    3360:	409d      	lsls	r5, r3
    3362:	40d4      	lsrs	r4, r2
    3364:	409f      	lsls	r7, r3
    3366:	4325      	orrs	r5, r4
    3368:	429e      	cmp	r6, r3
    336a:	dd00      	ble.n	336e <__aeabi_dsub+0xe6>
    336c:	e0db      	b.n	3526 <__aeabi_dsub+0x29e>
    336e:	1b9e      	subs	r6, r3, r6
    3370:	1c73      	adds	r3, r6, #1
    3372:	2b1f      	cmp	r3, #31
    3374:	dd00      	ble.n	3378 <__aeabi_dsub+0xf0>
    3376:	e10a      	b.n	358e <__aeabi_dsub+0x306>
    3378:	2220      	movs	r2, #32
    337a:	0038      	movs	r0, r7
    337c:	1ad2      	subs	r2, r2, r3
    337e:	0029      	movs	r1, r5
    3380:	4097      	lsls	r7, r2
    3382:	002c      	movs	r4, r5
    3384:	4091      	lsls	r1, r2
    3386:	40d8      	lsrs	r0, r3
    3388:	1e7a      	subs	r2, r7, #1
    338a:	4197      	sbcs	r7, r2
    338c:	40dc      	lsrs	r4, r3
    338e:	2600      	movs	r6, #0
    3390:	4301      	orrs	r1, r0
    3392:	430f      	orrs	r7, r1
    3394:	077b      	lsls	r3, r7, #29
    3396:	d009      	beq.n	33ac <__aeabi_dsub+0x124>
    3398:	230f      	movs	r3, #15
    339a:	403b      	ands	r3, r7
    339c:	2b04      	cmp	r3, #4
    339e:	d005      	beq.n	33ac <__aeabi_dsub+0x124>
    33a0:	1d3b      	adds	r3, r7, #4
    33a2:	42bb      	cmp	r3, r7
    33a4:	41bf      	sbcs	r7, r7
    33a6:	427f      	negs	r7, r7
    33a8:	19e4      	adds	r4, r4, r7
    33aa:	001f      	movs	r7, r3
    33ac:	0223      	lsls	r3, r4, #8
    33ae:	d525      	bpl.n	33fc <__aeabi_dsub+0x174>
    33b0:	4b86      	ldr	r3, [pc, #536]	; (35cc <__aeabi_dsub+0x344>)
    33b2:	3601      	adds	r6, #1
    33b4:	429e      	cmp	r6, r3
    33b6:	d100      	bne.n	33ba <__aeabi_dsub+0x132>
    33b8:	e0af      	b.n	351a <__aeabi_dsub+0x292>
    33ba:	4b85      	ldr	r3, [pc, #532]	; (35d0 <__aeabi_dsub+0x348>)
    33bc:	2501      	movs	r5, #1
    33be:	401c      	ands	r4, r3
    33c0:	4643      	mov	r3, r8
    33c2:	0762      	lsls	r2, r4, #29
    33c4:	08ff      	lsrs	r7, r7, #3
    33c6:	0264      	lsls	r4, r4, #9
    33c8:	0576      	lsls	r6, r6, #21
    33ca:	4317      	orrs	r7, r2
    33cc:	0b24      	lsrs	r4, r4, #12
    33ce:	0d76      	lsrs	r6, r6, #21
    33d0:	401d      	ands	r5, r3
    33d2:	2100      	movs	r1, #0
    33d4:	0324      	lsls	r4, r4, #12
    33d6:	0b23      	lsrs	r3, r4, #12
    33d8:	0d0c      	lsrs	r4, r1, #20
    33da:	4a7e      	ldr	r2, [pc, #504]	; (35d4 <__aeabi_dsub+0x34c>)
    33dc:	0524      	lsls	r4, r4, #20
    33de:	431c      	orrs	r4, r3
    33e0:	4014      	ands	r4, r2
    33e2:	0533      	lsls	r3, r6, #20
    33e4:	4323      	orrs	r3, r4
    33e6:	005b      	lsls	r3, r3, #1
    33e8:	07ed      	lsls	r5, r5, #31
    33ea:	085b      	lsrs	r3, r3, #1
    33ec:	432b      	orrs	r3, r5
    33ee:	0038      	movs	r0, r7
    33f0:	0019      	movs	r1, r3
    33f2:	bc1c      	pop	{r2, r3, r4}
    33f4:	4690      	mov	r8, r2
    33f6:	4699      	mov	r9, r3
    33f8:	46a2      	mov	sl, r4
    33fa:	bdf0      	pop	{r4, r5, r6, r7, pc}
    33fc:	2501      	movs	r5, #1
    33fe:	4643      	mov	r3, r8
    3400:	0762      	lsls	r2, r4, #29
    3402:	08ff      	lsrs	r7, r7, #3
    3404:	4317      	orrs	r7, r2
    3406:	08e4      	lsrs	r4, r4, #3
    3408:	401d      	ands	r5, r3
    340a:	4b70      	ldr	r3, [pc, #448]	; (35cc <__aeabi_dsub+0x344>)
    340c:	429e      	cmp	r6, r3
    340e:	d036      	beq.n	347e <__aeabi_dsub+0x1f6>
    3410:	0324      	lsls	r4, r4, #12
    3412:	0576      	lsls	r6, r6, #21
    3414:	0b24      	lsrs	r4, r4, #12
    3416:	0d76      	lsrs	r6, r6, #21
    3418:	e7db      	b.n	33d2 <__aeabi_dsub+0x14a>
    341a:	4663      	mov	r3, ip
    341c:	1af3      	subs	r3, r6, r3
    341e:	2b00      	cmp	r3, #0
    3420:	dc00      	bgt.n	3424 <__aeabi_dsub+0x19c>
    3422:	e094      	b.n	354e <__aeabi_dsub+0x2c6>
    3424:	4660      	mov	r0, ip
    3426:	2800      	cmp	r0, #0
    3428:	d035      	beq.n	3496 <__aeabi_dsub+0x20e>
    342a:	4868      	ldr	r0, [pc, #416]	; (35cc <__aeabi_dsub+0x344>)
    342c:	4286      	cmp	r6, r0
    342e:	d0b1      	beq.n	3394 <__aeabi_dsub+0x10c>
    3430:	2780      	movs	r7, #128	; 0x80
    3432:	043f      	lsls	r7, r7, #16
    3434:	4339      	orrs	r1, r7
    3436:	2b38      	cmp	r3, #56	; 0x38
    3438:	dc00      	bgt.n	343c <__aeabi_dsub+0x1b4>
    343a:	e0fd      	b.n	3638 <__aeabi_dsub+0x3b0>
    343c:	430a      	orrs	r2, r1
    343e:	0017      	movs	r7, r2
    3440:	2100      	movs	r1, #0
    3442:	1e7a      	subs	r2, r7, #1
    3444:	4197      	sbcs	r7, r2
    3446:	4457      	add	r7, sl
    3448:	4557      	cmp	r7, sl
    344a:	4180      	sbcs	r0, r0
    344c:	1909      	adds	r1, r1, r4
    344e:	4244      	negs	r4, r0
    3450:	190c      	adds	r4, r1, r4
    3452:	0223      	lsls	r3, r4, #8
    3454:	d53a      	bpl.n	34cc <__aeabi_dsub+0x244>
    3456:	4b5d      	ldr	r3, [pc, #372]	; (35cc <__aeabi_dsub+0x344>)
    3458:	3601      	adds	r6, #1
    345a:	429e      	cmp	r6, r3
    345c:	d100      	bne.n	3460 <__aeabi_dsub+0x1d8>
    345e:	e14b      	b.n	36f8 <__aeabi_dsub+0x470>
    3460:	2201      	movs	r2, #1
    3462:	4b5b      	ldr	r3, [pc, #364]	; (35d0 <__aeabi_dsub+0x348>)
    3464:	401c      	ands	r4, r3
    3466:	087b      	lsrs	r3, r7, #1
    3468:	4017      	ands	r7, r2
    346a:	431f      	orrs	r7, r3
    346c:	07e2      	lsls	r2, r4, #31
    346e:	4317      	orrs	r7, r2
    3470:	0864      	lsrs	r4, r4, #1
    3472:	e78f      	b.n	3394 <__aeabi_dsub+0x10c>
    3474:	0008      	movs	r0, r1
    3476:	4310      	orrs	r0, r2
    3478:	d000      	beq.n	347c <__aeabi_dsub+0x1f4>
    347a:	e724      	b.n	32c6 <__aeabi_dsub+0x3e>
    347c:	e721      	b.n	32c2 <__aeabi_dsub+0x3a>
    347e:	0023      	movs	r3, r4
    3480:	433b      	orrs	r3, r7
    3482:	d100      	bne.n	3486 <__aeabi_dsub+0x1fe>
    3484:	e1b9      	b.n	37fa <__aeabi_dsub+0x572>
    3486:	2280      	movs	r2, #128	; 0x80
    3488:	0312      	lsls	r2, r2, #12
    348a:	4314      	orrs	r4, r2
    348c:	0324      	lsls	r4, r4, #12
    348e:	0b24      	lsrs	r4, r4, #12
    3490:	e79f      	b.n	33d2 <__aeabi_dsub+0x14a>
    3492:	002e      	movs	r6, r5
    3494:	e77e      	b.n	3394 <__aeabi_dsub+0x10c>
    3496:	0008      	movs	r0, r1
    3498:	4310      	orrs	r0, r2
    349a:	d100      	bne.n	349e <__aeabi_dsub+0x216>
    349c:	e0ca      	b.n	3634 <__aeabi_dsub+0x3ac>
    349e:	1e58      	subs	r0, r3, #1
    34a0:	4684      	mov	ip, r0
    34a2:	2800      	cmp	r0, #0
    34a4:	d000      	beq.n	34a8 <__aeabi_dsub+0x220>
    34a6:	e0e7      	b.n	3678 <__aeabi_dsub+0x3f0>
    34a8:	4452      	add	r2, sl
    34aa:	4552      	cmp	r2, sl
    34ac:	4180      	sbcs	r0, r0
    34ae:	1864      	adds	r4, r4, r1
    34b0:	4240      	negs	r0, r0
    34b2:	1824      	adds	r4, r4, r0
    34b4:	0017      	movs	r7, r2
    34b6:	2601      	movs	r6, #1
    34b8:	0223      	lsls	r3, r4, #8
    34ba:	d507      	bpl.n	34cc <__aeabi_dsub+0x244>
    34bc:	2602      	movs	r6, #2
    34be:	e7cf      	b.n	3460 <__aeabi_dsub+0x1d8>
    34c0:	4664      	mov	r4, ip
    34c2:	432c      	orrs	r4, r5
    34c4:	d100      	bne.n	34c8 <__aeabi_dsub+0x240>
    34c6:	e1b3      	b.n	3830 <__aeabi_dsub+0x5a8>
    34c8:	002c      	movs	r4, r5
    34ca:	4667      	mov	r7, ip
    34cc:	077b      	lsls	r3, r7, #29
    34ce:	d000      	beq.n	34d2 <__aeabi_dsub+0x24a>
    34d0:	e762      	b.n	3398 <__aeabi_dsub+0x110>
    34d2:	0763      	lsls	r3, r4, #29
    34d4:	08ff      	lsrs	r7, r7, #3
    34d6:	431f      	orrs	r7, r3
    34d8:	2501      	movs	r5, #1
    34da:	4643      	mov	r3, r8
    34dc:	08e4      	lsrs	r4, r4, #3
    34de:	401d      	ands	r5, r3
    34e0:	e793      	b.n	340a <__aeabi_dsub+0x182>
    34e2:	2d00      	cmp	r5, #0
    34e4:	d178      	bne.n	35d8 <__aeabi_dsub+0x350>
    34e6:	1c75      	adds	r5, r6, #1
    34e8:	056d      	lsls	r5, r5, #21
    34ea:	0d6d      	lsrs	r5, r5, #21
    34ec:	2d01      	cmp	r5, #1
    34ee:	dc00      	bgt.n	34f2 <__aeabi_dsub+0x26a>
    34f0:	e0f2      	b.n	36d8 <__aeabi_dsub+0x450>
    34f2:	4650      	mov	r0, sl
    34f4:	1a80      	subs	r0, r0, r2
    34f6:	4582      	cmp	sl, r0
    34f8:	41bf      	sbcs	r7, r7
    34fa:	1a65      	subs	r5, r4, r1
    34fc:	427f      	negs	r7, r7
    34fe:	1bed      	subs	r5, r5, r7
    3500:	4684      	mov	ip, r0
    3502:	0228      	lsls	r0, r5, #8
    3504:	d400      	bmi.n	3508 <__aeabi_dsub+0x280>
    3506:	e08c      	b.n	3622 <__aeabi_dsub+0x39a>
    3508:	4650      	mov	r0, sl
    350a:	1a17      	subs	r7, r2, r0
    350c:	42ba      	cmp	r2, r7
    350e:	4192      	sbcs	r2, r2
    3510:	1b0c      	subs	r4, r1, r4
    3512:	4255      	negs	r5, r2
    3514:	1b65      	subs	r5, r4, r5
    3516:	4698      	mov	r8, r3
    3518:	e714      	b.n	3344 <__aeabi_dsub+0xbc>
    351a:	2501      	movs	r5, #1
    351c:	4643      	mov	r3, r8
    351e:	2400      	movs	r4, #0
    3520:	401d      	ands	r5, r3
    3522:	2700      	movs	r7, #0
    3524:	e755      	b.n	33d2 <__aeabi_dsub+0x14a>
    3526:	4c2a      	ldr	r4, [pc, #168]	; (35d0 <__aeabi_dsub+0x348>)
    3528:	1af6      	subs	r6, r6, r3
    352a:	402c      	ands	r4, r5
    352c:	e732      	b.n	3394 <__aeabi_dsub+0x10c>
    352e:	003d      	movs	r5, r7
    3530:	3828      	subs	r0, #40	; 0x28
    3532:	4085      	lsls	r5, r0
    3534:	2700      	movs	r7, #0
    3536:	e717      	b.n	3368 <__aeabi_dsub+0xe0>
    3538:	0038      	movs	r0, r7
    353a:	f000 fb33 	bl	3ba4 <__clzsi2>
    353e:	3020      	adds	r0, #32
    3540:	e706      	b.n	3350 <__aeabi_dsub+0xc8>
    3542:	430a      	orrs	r2, r1
    3544:	0017      	movs	r7, r2
    3546:	2100      	movs	r1, #0
    3548:	1e7a      	subs	r2, r7, #1
    354a:	4197      	sbcs	r7, r2
    354c:	e6ee      	b.n	332c <__aeabi_dsub+0xa4>
    354e:	2b00      	cmp	r3, #0
    3550:	d000      	beq.n	3554 <__aeabi_dsub+0x2cc>
    3552:	e0e5      	b.n	3720 <__aeabi_dsub+0x498>
    3554:	1c73      	adds	r3, r6, #1
    3556:	469c      	mov	ip, r3
    3558:	055b      	lsls	r3, r3, #21
    355a:	0d5b      	lsrs	r3, r3, #21
    355c:	2b01      	cmp	r3, #1
    355e:	dc00      	bgt.n	3562 <__aeabi_dsub+0x2da>
    3560:	e09f      	b.n	36a2 <__aeabi_dsub+0x41a>
    3562:	4b1a      	ldr	r3, [pc, #104]	; (35cc <__aeabi_dsub+0x344>)
    3564:	459c      	cmp	ip, r3
    3566:	d100      	bne.n	356a <__aeabi_dsub+0x2e2>
    3568:	e0c5      	b.n	36f6 <__aeabi_dsub+0x46e>
    356a:	4452      	add	r2, sl
    356c:	4552      	cmp	r2, sl
    356e:	4180      	sbcs	r0, r0
    3570:	1864      	adds	r4, r4, r1
    3572:	4240      	negs	r0, r0
    3574:	1824      	adds	r4, r4, r0
    3576:	07e7      	lsls	r7, r4, #31
    3578:	0852      	lsrs	r2, r2, #1
    357a:	4317      	orrs	r7, r2
    357c:	0864      	lsrs	r4, r4, #1
    357e:	4666      	mov	r6, ip
    3580:	e708      	b.n	3394 <__aeabi_dsub+0x10c>
    3582:	4812      	ldr	r0, [pc, #72]	; (35cc <__aeabi_dsub+0x344>)
    3584:	4285      	cmp	r5, r0
    3586:	d100      	bne.n	358a <__aeabi_dsub+0x302>
    3588:	e085      	b.n	3696 <__aeabi_dsub+0x40e>
    358a:	001d      	movs	r5, r3
    358c:	e6bc      	b.n	3308 <__aeabi_dsub+0x80>
    358e:	0029      	movs	r1, r5
    3590:	3e1f      	subs	r6, #31
    3592:	40f1      	lsrs	r1, r6
    3594:	2b20      	cmp	r3, #32
    3596:	d100      	bne.n	359a <__aeabi_dsub+0x312>
    3598:	e07f      	b.n	369a <__aeabi_dsub+0x412>
    359a:	2240      	movs	r2, #64	; 0x40
    359c:	1ad3      	subs	r3, r2, r3
    359e:	409d      	lsls	r5, r3
    35a0:	432f      	orrs	r7, r5
    35a2:	1e7d      	subs	r5, r7, #1
    35a4:	41af      	sbcs	r7, r5
    35a6:	2400      	movs	r4, #0
    35a8:	430f      	orrs	r7, r1
    35aa:	2600      	movs	r6, #0
    35ac:	e78e      	b.n	34cc <__aeabi_dsub+0x244>
    35ae:	002b      	movs	r3, r5
    35b0:	000f      	movs	r7, r1
    35b2:	3b20      	subs	r3, #32
    35b4:	40df      	lsrs	r7, r3
    35b6:	2d20      	cmp	r5, #32
    35b8:	d071      	beq.n	369e <__aeabi_dsub+0x416>
    35ba:	2340      	movs	r3, #64	; 0x40
    35bc:	1b5d      	subs	r5, r3, r5
    35be:	40a9      	lsls	r1, r5
    35c0:	430a      	orrs	r2, r1
    35c2:	1e51      	subs	r1, r2, #1
    35c4:	418a      	sbcs	r2, r1
    35c6:	2100      	movs	r1, #0
    35c8:	4317      	orrs	r7, r2
    35ca:	e6af      	b.n	332c <__aeabi_dsub+0xa4>
    35cc:	000007ff 	.word	0x000007ff
    35d0:	ff7fffff 	.word	0xff7fffff
    35d4:	800fffff 	.word	0x800fffff
    35d8:	2e00      	cmp	r6, #0
    35da:	d03e      	beq.n	365a <__aeabi_dsub+0x3d2>
    35dc:	4eb3      	ldr	r6, [pc, #716]	; (38ac <__aeabi_dsub+0x624>)
    35de:	45b4      	cmp	ip, r6
    35e0:	d045      	beq.n	366e <__aeabi_dsub+0x3e6>
    35e2:	2680      	movs	r6, #128	; 0x80
    35e4:	0436      	lsls	r6, r6, #16
    35e6:	426d      	negs	r5, r5
    35e8:	4334      	orrs	r4, r6
    35ea:	2d38      	cmp	r5, #56	; 0x38
    35ec:	dd00      	ble.n	35f0 <__aeabi_dsub+0x368>
    35ee:	e0a8      	b.n	3742 <__aeabi_dsub+0x4ba>
    35f0:	2d1f      	cmp	r5, #31
    35f2:	dd00      	ble.n	35f6 <__aeabi_dsub+0x36e>
    35f4:	e11f      	b.n	3836 <__aeabi_dsub+0x5ae>
    35f6:	2620      	movs	r6, #32
    35f8:	0027      	movs	r7, r4
    35fa:	4650      	mov	r0, sl
    35fc:	1b76      	subs	r6, r6, r5
    35fe:	40b7      	lsls	r7, r6
    3600:	40e8      	lsrs	r0, r5
    3602:	4307      	orrs	r7, r0
    3604:	4650      	mov	r0, sl
    3606:	40b0      	lsls	r0, r6
    3608:	1e46      	subs	r6, r0, #1
    360a:	41b0      	sbcs	r0, r6
    360c:	40ec      	lsrs	r4, r5
    360e:	4338      	orrs	r0, r7
    3610:	1a17      	subs	r7, r2, r0
    3612:	42ba      	cmp	r2, r7
    3614:	4192      	sbcs	r2, r2
    3616:	1b0c      	subs	r4, r1, r4
    3618:	4252      	negs	r2, r2
    361a:	1aa4      	subs	r4, r4, r2
    361c:	4666      	mov	r6, ip
    361e:	4698      	mov	r8, r3
    3620:	e68b      	b.n	333a <__aeabi_dsub+0xb2>
    3622:	4664      	mov	r4, ip
    3624:	4667      	mov	r7, ip
    3626:	432c      	orrs	r4, r5
    3628:	d000      	beq.n	362c <__aeabi_dsub+0x3a4>
    362a:	e68b      	b.n	3344 <__aeabi_dsub+0xbc>
    362c:	2500      	movs	r5, #0
    362e:	2600      	movs	r6, #0
    3630:	2700      	movs	r7, #0
    3632:	e6ea      	b.n	340a <__aeabi_dsub+0x182>
    3634:	001e      	movs	r6, r3
    3636:	e6ad      	b.n	3394 <__aeabi_dsub+0x10c>
    3638:	2b1f      	cmp	r3, #31
    363a:	dc60      	bgt.n	36fe <__aeabi_dsub+0x476>
    363c:	2720      	movs	r7, #32
    363e:	1af8      	subs	r0, r7, r3
    3640:	000f      	movs	r7, r1
    3642:	4684      	mov	ip, r0
    3644:	4087      	lsls	r7, r0
    3646:	0010      	movs	r0, r2
    3648:	40d8      	lsrs	r0, r3
    364a:	4307      	orrs	r7, r0
    364c:	4660      	mov	r0, ip
    364e:	4082      	lsls	r2, r0
    3650:	1e50      	subs	r0, r2, #1
    3652:	4182      	sbcs	r2, r0
    3654:	40d9      	lsrs	r1, r3
    3656:	4317      	orrs	r7, r2
    3658:	e6f5      	b.n	3446 <__aeabi_dsub+0x1be>
    365a:	0026      	movs	r6, r4
    365c:	4650      	mov	r0, sl
    365e:	4306      	orrs	r6, r0
    3660:	d005      	beq.n	366e <__aeabi_dsub+0x3e6>
    3662:	43ed      	mvns	r5, r5
    3664:	2d00      	cmp	r5, #0
    3666:	d0d3      	beq.n	3610 <__aeabi_dsub+0x388>
    3668:	4e90      	ldr	r6, [pc, #576]	; (38ac <__aeabi_dsub+0x624>)
    366a:	45b4      	cmp	ip, r6
    366c:	d1bd      	bne.n	35ea <__aeabi_dsub+0x362>
    366e:	000c      	movs	r4, r1
    3670:	0017      	movs	r7, r2
    3672:	4666      	mov	r6, ip
    3674:	4698      	mov	r8, r3
    3676:	e68d      	b.n	3394 <__aeabi_dsub+0x10c>
    3678:	488c      	ldr	r0, [pc, #560]	; (38ac <__aeabi_dsub+0x624>)
    367a:	4283      	cmp	r3, r0
    367c:	d00b      	beq.n	3696 <__aeabi_dsub+0x40e>
    367e:	4663      	mov	r3, ip
    3680:	e6d9      	b.n	3436 <__aeabi_dsub+0x1ae>
    3682:	2d00      	cmp	r5, #0
    3684:	d000      	beq.n	3688 <__aeabi_dsub+0x400>
    3686:	e096      	b.n	37b6 <__aeabi_dsub+0x52e>
    3688:	0008      	movs	r0, r1
    368a:	4310      	orrs	r0, r2
    368c:	d100      	bne.n	3690 <__aeabi_dsub+0x408>
    368e:	e0e2      	b.n	3856 <__aeabi_dsub+0x5ce>
    3690:	000c      	movs	r4, r1
    3692:	0017      	movs	r7, r2
    3694:	4698      	mov	r8, r3
    3696:	4e85      	ldr	r6, [pc, #532]	; (38ac <__aeabi_dsub+0x624>)
    3698:	e67c      	b.n	3394 <__aeabi_dsub+0x10c>
    369a:	2500      	movs	r5, #0
    369c:	e780      	b.n	35a0 <__aeabi_dsub+0x318>
    369e:	2100      	movs	r1, #0
    36a0:	e78e      	b.n	35c0 <__aeabi_dsub+0x338>
    36a2:	0023      	movs	r3, r4
    36a4:	4650      	mov	r0, sl
    36a6:	4303      	orrs	r3, r0
    36a8:	2e00      	cmp	r6, #0
    36aa:	d000      	beq.n	36ae <__aeabi_dsub+0x426>
    36ac:	e0a8      	b.n	3800 <__aeabi_dsub+0x578>
    36ae:	2b00      	cmp	r3, #0
    36b0:	d100      	bne.n	36b4 <__aeabi_dsub+0x42c>
    36b2:	e0de      	b.n	3872 <__aeabi_dsub+0x5ea>
    36b4:	000b      	movs	r3, r1
    36b6:	4313      	orrs	r3, r2
    36b8:	d100      	bne.n	36bc <__aeabi_dsub+0x434>
    36ba:	e66b      	b.n	3394 <__aeabi_dsub+0x10c>
    36bc:	4452      	add	r2, sl
    36be:	4552      	cmp	r2, sl
    36c0:	4180      	sbcs	r0, r0
    36c2:	1864      	adds	r4, r4, r1
    36c4:	4240      	negs	r0, r0
    36c6:	1824      	adds	r4, r4, r0
    36c8:	0017      	movs	r7, r2
    36ca:	0223      	lsls	r3, r4, #8
    36cc:	d400      	bmi.n	36d0 <__aeabi_dsub+0x448>
    36ce:	e6fd      	b.n	34cc <__aeabi_dsub+0x244>
    36d0:	4b77      	ldr	r3, [pc, #476]	; (38b0 <__aeabi_dsub+0x628>)
    36d2:	4666      	mov	r6, ip
    36d4:	401c      	ands	r4, r3
    36d6:	e65d      	b.n	3394 <__aeabi_dsub+0x10c>
    36d8:	0025      	movs	r5, r4
    36da:	4650      	mov	r0, sl
    36dc:	4305      	orrs	r5, r0
    36de:	2e00      	cmp	r6, #0
    36e0:	d1cf      	bne.n	3682 <__aeabi_dsub+0x3fa>
    36e2:	2d00      	cmp	r5, #0
    36e4:	d14f      	bne.n	3786 <__aeabi_dsub+0x4fe>
    36e6:	000c      	movs	r4, r1
    36e8:	4314      	orrs	r4, r2
    36ea:	d100      	bne.n	36ee <__aeabi_dsub+0x466>
    36ec:	e0a0      	b.n	3830 <__aeabi_dsub+0x5a8>
    36ee:	000c      	movs	r4, r1
    36f0:	0017      	movs	r7, r2
    36f2:	4698      	mov	r8, r3
    36f4:	e64e      	b.n	3394 <__aeabi_dsub+0x10c>
    36f6:	4666      	mov	r6, ip
    36f8:	2400      	movs	r4, #0
    36fa:	2700      	movs	r7, #0
    36fc:	e685      	b.n	340a <__aeabi_dsub+0x182>
    36fe:	001f      	movs	r7, r3
    3700:	0008      	movs	r0, r1
    3702:	3f20      	subs	r7, #32
    3704:	40f8      	lsrs	r0, r7
    3706:	0007      	movs	r7, r0
    3708:	2b20      	cmp	r3, #32
    370a:	d100      	bne.n	370e <__aeabi_dsub+0x486>
    370c:	e08e      	b.n	382c <__aeabi_dsub+0x5a4>
    370e:	2040      	movs	r0, #64	; 0x40
    3710:	1ac3      	subs	r3, r0, r3
    3712:	4099      	lsls	r1, r3
    3714:	430a      	orrs	r2, r1
    3716:	1e51      	subs	r1, r2, #1
    3718:	418a      	sbcs	r2, r1
    371a:	2100      	movs	r1, #0
    371c:	4317      	orrs	r7, r2
    371e:	e692      	b.n	3446 <__aeabi_dsub+0x1be>
    3720:	2e00      	cmp	r6, #0
    3722:	d114      	bne.n	374e <__aeabi_dsub+0x4c6>
    3724:	0026      	movs	r6, r4
    3726:	4650      	mov	r0, sl
    3728:	4306      	orrs	r6, r0
    372a:	d062      	beq.n	37f2 <__aeabi_dsub+0x56a>
    372c:	43db      	mvns	r3, r3
    372e:	2b00      	cmp	r3, #0
    3730:	d15c      	bne.n	37ec <__aeabi_dsub+0x564>
    3732:	1887      	adds	r7, r0, r2
    3734:	4297      	cmp	r7, r2
    3736:	4192      	sbcs	r2, r2
    3738:	1864      	adds	r4, r4, r1
    373a:	4252      	negs	r2, r2
    373c:	18a4      	adds	r4, r4, r2
    373e:	4666      	mov	r6, ip
    3740:	e687      	b.n	3452 <__aeabi_dsub+0x1ca>
    3742:	4650      	mov	r0, sl
    3744:	4320      	orrs	r0, r4
    3746:	1e44      	subs	r4, r0, #1
    3748:	41a0      	sbcs	r0, r4
    374a:	2400      	movs	r4, #0
    374c:	e760      	b.n	3610 <__aeabi_dsub+0x388>
    374e:	4e57      	ldr	r6, [pc, #348]	; (38ac <__aeabi_dsub+0x624>)
    3750:	45b4      	cmp	ip, r6
    3752:	d04e      	beq.n	37f2 <__aeabi_dsub+0x56a>
    3754:	2680      	movs	r6, #128	; 0x80
    3756:	0436      	lsls	r6, r6, #16
    3758:	425b      	negs	r3, r3
    375a:	4334      	orrs	r4, r6
    375c:	2b38      	cmp	r3, #56	; 0x38
    375e:	dd00      	ble.n	3762 <__aeabi_dsub+0x4da>
    3760:	e07f      	b.n	3862 <__aeabi_dsub+0x5da>
    3762:	2b1f      	cmp	r3, #31
    3764:	dd00      	ble.n	3768 <__aeabi_dsub+0x4e0>
    3766:	e08b      	b.n	3880 <__aeabi_dsub+0x5f8>
    3768:	2620      	movs	r6, #32
    376a:	0027      	movs	r7, r4
    376c:	4650      	mov	r0, sl
    376e:	1af6      	subs	r6, r6, r3
    3770:	40b7      	lsls	r7, r6
    3772:	40d8      	lsrs	r0, r3
    3774:	4307      	orrs	r7, r0
    3776:	4650      	mov	r0, sl
    3778:	40b0      	lsls	r0, r6
    377a:	1e46      	subs	r6, r0, #1
    377c:	41b0      	sbcs	r0, r6
    377e:	4307      	orrs	r7, r0
    3780:	40dc      	lsrs	r4, r3
    3782:	18bf      	adds	r7, r7, r2
    3784:	e7d6      	b.n	3734 <__aeabi_dsub+0x4ac>
    3786:	000d      	movs	r5, r1
    3788:	4315      	orrs	r5, r2
    378a:	d100      	bne.n	378e <__aeabi_dsub+0x506>
    378c:	e602      	b.n	3394 <__aeabi_dsub+0x10c>
    378e:	4650      	mov	r0, sl
    3790:	1a80      	subs	r0, r0, r2
    3792:	4582      	cmp	sl, r0
    3794:	41bf      	sbcs	r7, r7
    3796:	1a65      	subs	r5, r4, r1
    3798:	427f      	negs	r7, r7
    379a:	1bed      	subs	r5, r5, r7
    379c:	4684      	mov	ip, r0
    379e:	0228      	lsls	r0, r5, #8
    37a0:	d400      	bmi.n	37a4 <__aeabi_dsub+0x51c>
    37a2:	e68d      	b.n	34c0 <__aeabi_dsub+0x238>
    37a4:	4650      	mov	r0, sl
    37a6:	1a17      	subs	r7, r2, r0
    37a8:	42ba      	cmp	r2, r7
    37aa:	4192      	sbcs	r2, r2
    37ac:	1b0c      	subs	r4, r1, r4
    37ae:	4252      	negs	r2, r2
    37b0:	1aa4      	subs	r4, r4, r2
    37b2:	4698      	mov	r8, r3
    37b4:	e5ee      	b.n	3394 <__aeabi_dsub+0x10c>
    37b6:	000d      	movs	r5, r1
    37b8:	4315      	orrs	r5, r2
    37ba:	d100      	bne.n	37be <__aeabi_dsub+0x536>
    37bc:	e76b      	b.n	3696 <__aeabi_dsub+0x40e>
    37be:	4650      	mov	r0, sl
    37c0:	0767      	lsls	r7, r4, #29
    37c2:	08c0      	lsrs	r0, r0, #3
    37c4:	4307      	orrs	r7, r0
    37c6:	2080      	movs	r0, #128	; 0x80
    37c8:	08e4      	lsrs	r4, r4, #3
    37ca:	0300      	lsls	r0, r0, #12
    37cc:	4204      	tst	r4, r0
    37ce:	d007      	beq.n	37e0 <__aeabi_dsub+0x558>
    37d0:	08cd      	lsrs	r5, r1, #3
    37d2:	4205      	tst	r5, r0
    37d4:	d104      	bne.n	37e0 <__aeabi_dsub+0x558>
    37d6:	002c      	movs	r4, r5
    37d8:	4698      	mov	r8, r3
    37da:	08d7      	lsrs	r7, r2, #3
    37dc:	0749      	lsls	r1, r1, #29
    37de:	430f      	orrs	r7, r1
    37e0:	0f7b      	lsrs	r3, r7, #29
    37e2:	00e4      	lsls	r4, r4, #3
    37e4:	431c      	orrs	r4, r3
    37e6:	00ff      	lsls	r7, r7, #3
    37e8:	4e30      	ldr	r6, [pc, #192]	; (38ac <__aeabi_dsub+0x624>)
    37ea:	e5d3      	b.n	3394 <__aeabi_dsub+0x10c>
    37ec:	4e2f      	ldr	r6, [pc, #188]	; (38ac <__aeabi_dsub+0x624>)
    37ee:	45b4      	cmp	ip, r6
    37f0:	d1b4      	bne.n	375c <__aeabi_dsub+0x4d4>
    37f2:	000c      	movs	r4, r1
    37f4:	0017      	movs	r7, r2
    37f6:	4666      	mov	r6, ip
    37f8:	e5cc      	b.n	3394 <__aeabi_dsub+0x10c>
    37fa:	2700      	movs	r7, #0
    37fc:	2400      	movs	r4, #0
    37fe:	e5e8      	b.n	33d2 <__aeabi_dsub+0x14a>
    3800:	2b00      	cmp	r3, #0
    3802:	d039      	beq.n	3878 <__aeabi_dsub+0x5f0>
    3804:	000b      	movs	r3, r1
    3806:	4313      	orrs	r3, r2
    3808:	d100      	bne.n	380c <__aeabi_dsub+0x584>
    380a:	e744      	b.n	3696 <__aeabi_dsub+0x40e>
    380c:	08c0      	lsrs	r0, r0, #3
    380e:	0767      	lsls	r7, r4, #29
    3810:	4307      	orrs	r7, r0
    3812:	2080      	movs	r0, #128	; 0x80
    3814:	08e4      	lsrs	r4, r4, #3
    3816:	0300      	lsls	r0, r0, #12
    3818:	4204      	tst	r4, r0
    381a:	d0e1      	beq.n	37e0 <__aeabi_dsub+0x558>
    381c:	08cb      	lsrs	r3, r1, #3
    381e:	4203      	tst	r3, r0
    3820:	d1de      	bne.n	37e0 <__aeabi_dsub+0x558>
    3822:	08d7      	lsrs	r7, r2, #3
    3824:	0749      	lsls	r1, r1, #29
    3826:	430f      	orrs	r7, r1
    3828:	001c      	movs	r4, r3
    382a:	e7d9      	b.n	37e0 <__aeabi_dsub+0x558>
    382c:	2100      	movs	r1, #0
    382e:	e771      	b.n	3714 <__aeabi_dsub+0x48c>
    3830:	2500      	movs	r5, #0
    3832:	2700      	movs	r7, #0
    3834:	e5e9      	b.n	340a <__aeabi_dsub+0x182>
    3836:	002e      	movs	r6, r5
    3838:	0027      	movs	r7, r4
    383a:	3e20      	subs	r6, #32
    383c:	40f7      	lsrs	r7, r6
    383e:	2d20      	cmp	r5, #32
    3840:	d02f      	beq.n	38a2 <__aeabi_dsub+0x61a>
    3842:	2640      	movs	r6, #64	; 0x40
    3844:	1b75      	subs	r5, r6, r5
    3846:	40ac      	lsls	r4, r5
    3848:	4650      	mov	r0, sl
    384a:	4320      	orrs	r0, r4
    384c:	1e44      	subs	r4, r0, #1
    384e:	41a0      	sbcs	r0, r4
    3850:	2400      	movs	r4, #0
    3852:	4338      	orrs	r0, r7
    3854:	e6dc      	b.n	3610 <__aeabi_dsub+0x388>
    3856:	2480      	movs	r4, #128	; 0x80
    3858:	2500      	movs	r5, #0
    385a:	0324      	lsls	r4, r4, #12
    385c:	4e13      	ldr	r6, [pc, #76]	; (38ac <__aeabi_dsub+0x624>)
    385e:	2700      	movs	r7, #0
    3860:	e5d3      	b.n	340a <__aeabi_dsub+0x182>
    3862:	4650      	mov	r0, sl
    3864:	4320      	orrs	r0, r4
    3866:	0007      	movs	r7, r0
    3868:	1e78      	subs	r0, r7, #1
    386a:	4187      	sbcs	r7, r0
    386c:	2400      	movs	r4, #0
    386e:	18bf      	adds	r7, r7, r2
    3870:	e760      	b.n	3734 <__aeabi_dsub+0x4ac>
    3872:	000c      	movs	r4, r1
    3874:	0017      	movs	r7, r2
    3876:	e58d      	b.n	3394 <__aeabi_dsub+0x10c>
    3878:	000c      	movs	r4, r1
    387a:	0017      	movs	r7, r2
    387c:	4e0b      	ldr	r6, [pc, #44]	; (38ac <__aeabi_dsub+0x624>)
    387e:	e589      	b.n	3394 <__aeabi_dsub+0x10c>
    3880:	001e      	movs	r6, r3
    3882:	0027      	movs	r7, r4
    3884:	3e20      	subs	r6, #32
    3886:	40f7      	lsrs	r7, r6
    3888:	2b20      	cmp	r3, #32
    388a:	d00c      	beq.n	38a6 <__aeabi_dsub+0x61e>
    388c:	2640      	movs	r6, #64	; 0x40
    388e:	1af3      	subs	r3, r6, r3
    3890:	409c      	lsls	r4, r3
    3892:	4650      	mov	r0, sl
    3894:	4320      	orrs	r0, r4
    3896:	1e44      	subs	r4, r0, #1
    3898:	41a0      	sbcs	r0, r4
    389a:	4307      	orrs	r7, r0
    389c:	2400      	movs	r4, #0
    389e:	18bf      	adds	r7, r7, r2
    38a0:	e748      	b.n	3734 <__aeabi_dsub+0x4ac>
    38a2:	2400      	movs	r4, #0
    38a4:	e7d0      	b.n	3848 <__aeabi_dsub+0x5c0>
    38a6:	2400      	movs	r4, #0
    38a8:	e7f3      	b.n	3892 <__aeabi_dsub+0x60a>
    38aa:	46c0      	nop			; (mov r8, r8)
    38ac:	000007ff 	.word	0x000007ff
    38b0:	ff7fffff 	.word	0xff7fffff

000038b4 <__aeabi_d2iz>:
    38b4:	b530      	push	{r4, r5, lr}
    38b6:	4d13      	ldr	r5, [pc, #76]	; (3904 <__aeabi_d2iz+0x50>)
    38b8:	030a      	lsls	r2, r1, #12
    38ba:	004b      	lsls	r3, r1, #1
    38bc:	0b12      	lsrs	r2, r2, #12
    38be:	0d5b      	lsrs	r3, r3, #21
    38c0:	0fc9      	lsrs	r1, r1, #31
    38c2:	2400      	movs	r4, #0
    38c4:	42ab      	cmp	r3, r5
    38c6:	dd10      	ble.n	38ea <__aeabi_d2iz+0x36>
    38c8:	4c0f      	ldr	r4, [pc, #60]	; (3908 <__aeabi_d2iz+0x54>)
    38ca:	42a3      	cmp	r3, r4
    38cc:	dc0f      	bgt.n	38ee <__aeabi_d2iz+0x3a>
    38ce:	2480      	movs	r4, #128	; 0x80
    38d0:	4d0e      	ldr	r5, [pc, #56]	; (390c <__aeabi_d2iz+0x58>)
    38d2:	0364      	lsls	r4, r4, #13
    38d4:	4322      	orrs	r2, r4
    38d6:	1aed      	subs	r5, r5, r3
    38d8:	2d1f      	cmp	r5, #31
    38da:	dd0b      	ble.n	38f4 <__aeabi_d2iz+0x40>
    38dc:	480c      	ldr	r0, [pc, #48]	; (3910 <__aeabi_d2iz+0x5c>)
    38de:	1ac3      	subs	r3, r0, r3
    38e0:	40da      	lsrs	r2, r3
    38e2:	4254      	negs	r4, r2
    38e4:	2900      	cmp	r1, #0
    38e6:	d100      	bne.n	38ea <__aeabi_d2iz+0x36>
    38e8:	0014      	movs	r4, r2
    38ea:	0020      	movs	r0, r4
    38ec:	bd30      	pop	{r4, r5, pc}
    38ee:	4b09      	ldr	r3, [pc, #36]	; (3914 <__aeabi_d2iz+0x60>)
    38f0:	18cc      	adds	r4, r1, r3
    38f2:	e7fa      	b.n	38ea <__aeabi_d2iz+0x36>
    38f4:	4c08      	ldr	r4, [pc, #32]	; (3918 <__aeabi_d2iz+0x64>)
    38f6:	40e8      	lsrs	r0, r5
    38f8:	46a4      	mov	ip, r4
    38fa:	4463      	add	r3, ip
    38fc:	409a      	lsls	r2, r3
    38fe:	4302      	orrs	r2, r0
    3900:	e7ef      	b.n	38e2 <__aeabi_d2iz+0x2e>
    3902:	46c0      	nop			; (mov r8, r8)
    3904:	000003fe 	.word	0x000003fe
    3908:	0000041d 	.word	0x0000041d
    390c:	00000433 	.word	0x00000433
    3910:	00000413 	.word	0x00000413
    3914:	7fffffff 	.word	0x7fffffff
    3918:	fffffbed 	.word	0xfffffbed

0000391c <__aeabi_i2d>:
    391c:	b570      	push	{r4, r5, r6, lr}
    391e:	2800      	cmp	r0, #0
    3920:	d030      	beq.n	3984 <__aeabi_i2d+0x68>
    3922:	17c3      	asrs	r3, r0, #31
    3924:	18c4      	adds	r4, r0, r3
    3926:	405c      	eors	r4, r3
    3928:	0fc5      	lsrs	r5, r0, #31
    392a:	0020      	movs	r0, r4
    392c:	f000 f93a 	bl	3ba4 <__clzsi2>
    3930:	4b17      	ldr	r3, [pc, #92]	; (3990 <__aeabi_i2d+0x74>)
    3932:	4a18      	ldr	r2, [pc, #96]	; (3994 <__aeabi_i2d+0x78>)
    3934:	1a1b      	subs	r3, r3, r0
    3936:	1ad2      	subs	r2, r2, r3
    3938:	2a1f      	cmp	r2, #31
    393a:	dd18      	ble.n	396e <__aeabi_i2d+0x52>
    393c:	4a16      	ldr	r2, [pc, #88]	; (3998 <__aeabi_i2d+0x7c>)
    393e:	1ad2      	subs	r2, r2, r3
    3940:	4094      	lsls	r4, r2
    3942:	2200      	movs	r2, #0
    3944:	0324      	lsls	r4, r4, #12
    3946:	055b      	lsls	r3, r3, #21
    3948:	0b24      	lsrs	r4, r4, #12
    394a:	0d5b      	lsrs	r3, r3, #21
    394c:	2100      	movs	r1, #0
    394e:	0010      	movs	r0, r2
    3950:	0324      	lsls	r4, r4, #12
    3952:	0d0a      	lsrs	r2, r1, #20
    3954:	0b24      	lsrs	r4, r4, #12
    3956:	0512      	lsls	r2, r2, #20
    3958:	4322      	orrs	r2, r4
    395a:	4c10      	ldr	r4, [pc, #64]	; (399c <__aeabi_i2d+0x80>)
    395c:	051b      	lsls	r3, r3, #20
    395e:	4022      	ands	r2, r4
    3960:	4313      	orrs	r3, r2
    3962:	005b      	lsls	r3, r3, #1
    3964:	07ed      	lsls	r5, r5, #31
    3966:	085b      	lsrs	r3, r3, #1
    3968:	432b      	orrs	r3, r5
    396a:	0019      	movs	r1, r3
    396c:	bd70      	pop	{r4, r5, r6, pc}
    396e:	0021      	movs	r1, r4
    3970:	4091      	lsls	r1, r2
    3972:	000a      	movs	r2, r1
    3974:	210b      	movs	r1, #11
    3976:	1a08      	subs	r0, r1, r0
    3978:	40c4      	lsrs	r4, r0
    397a:	055b      	lsls	r3, r3, #21
    397c:	0324      	lsls	r4, r4, #12
    397e:	0b24      	lsrs	r4, r4, #12
    3980:	0d5b      	lsrs	r3, r3, #21
    3982:	e7e3      	b.n	394c <__aeabi_i2d+0x30>
    3984:	2500      	movs	r5, #0
    3986:	2300      	movs	r3, #0
    3988:	2400      	movs	r4, #0
    398a:	2200      	movs	r2, #0
    398c:	e7de      	b.n	394c <__aeabi_i2d+0x30>
    398e:	46c0      	nop			; (mov r8, r8)
    3990:	0000041e 	.word	0x0000041e
    3994:	00000433 	.word	0x00000433
    3998:	00000413 	.word	0x00000413
    399c:	800fffff 	.word	0x800fffff

000039a0 <__aeabi_ui2d>:
    39a0:	b510      	push	{r4, lr}
    39a2:	1e04      	subs	r4, r0, #0
    39a4:	d028      	beq.n	39f8 <__aeabi_ui2d+0x58>
    39a6:	f000 f8fd 	bl	3ba4 <__clzsi2>
    39aa:	4b15      	ldr	r3, [pc, #84]	; (3a00 <__aeabi_ui2d+0x60>)
    39ac:	4a15      	ldr	r2, [pc, #84]	; (3a04 <__aeabi_ui2d+0x64>)
    39ae:	1a1b      	subs	r3, r3, r0
    39b0:	1ad2      	subs	r2, r2, r3
    39b2:	2a1f      	cmp	r2, #31
    39b4:	dd15      	ble.n	39e2 <__aeabi_ui2d+0x42>
    39b6:	4a14      	ldr	r2, [pc, #80]	; (3a08 <__aeabi_ui2d+0x68>)
    39b8:	1ad2      	subs	r2, r2, r3
    39ba:	4094      	lsls	r4, r2
    39bc:	2200      	movs	r2, #0
    39be:	0324      	lsls	r4, r4, #12
    39c0:	055b      	lsls	r3, r3, #21
    39c2:	0b24      	lsrs	r4, r4, #12
    39c4:	0d5b      	lsrs	r3, r3, #21
    39c6:	2100      	movs	r1, #0
    39c8:	0010      	movs	r0, r2
    39ca:	0324      	lsls	r4, r4, #12
    39cc:	0d0a      	lsrs	r2, r1, #20
    39ce:	0b24      	lsrs	r4, r4, #12
    39d0:	0512      	lsls	r2, r2, #20
    39d2:	4322      	orrs	r2, r4
    39d4:	4c0d      	ldr	r4, [pc, #52]	; (3a0c <__aeabi_ui2d+0x6c>)
    39d6:	051b      	lsls	r3, r3, #20
    39d8:	4022      	ands	r2, r4
    39da:	4313      	orrs	r3, r2
    39dc:	005b      	lsls	r3, r3, #1
    39de:	0859      	lsrs	r1, r3, #1
    39e0:	bd10      	pop	{r4, pc}
    39e2:	0021      	movs	r1, r4
    39e4:	4091      	lsls	r1, r2
    39e6:	000a      	movs	r2, r1
    39e8:	210b      	movs	r1, #11
    39ea:	1a08      	subs	r0, r1, r0
    39ec:	40c4      	lsrs	r4, r0
    39ee:	055b      	lsls	r3, r3, #21
    39f0:	0324      	lsls	r4, r4, #12
    39f2:	0b24      	lsrs	r4, r4, #12
    39f4:	0d5b      	lsrs	r3, r3, #21
    39f6:	e7e6      	b.n	39c6 <__aeabi_ui2d+0x26>
    39f8:	2300      	movs	r3, #0
    39fa:	2400      	movs	r4, #0
    39fc:	2200      	movs	r2, #0
    39fe:	e7e2      	b.n	39c6 <__aeabi_ui2d+0x26>
    3a00:	0000041e 	.word	0x0000041e
    3a04:	00000433 	.word	0x00000433
    3a08:	00000413 	.word	0x00000413
    3a0c:	800fffff 	.word	0x800fffff

00003a10 <__aeabi_f2d>:
    3a10:	0041      	lsls	r1, r0, #1
    3a12:	0e09      	lsrs	r1, r1, #24
    3a14:	1c4b      	adds	r3, r1, #1
    3a16:	b570      	push	{r4, r5, r6, lr}
    3a18:	b2db      	uxtb	r3, r3
    3a1a:	0246      	lsls	r6, r0, #9
    3a1c:	0a75      	lsrs	r5, r6, #9
    3a1e:	0fc4      	lsrs	r4, r0, #31
    3a20:	2b01      	cmp	r3, #1
    3a22:	dd14      	ble.n	3a4e <__aeabi_f2d+0x3e>
    3a24:	23e0      	movs	r3, #224	; 0xe0
    3a26:	009b      	lsls	r3, r3, #2
    3a28:	076d      	lsls	r5, r5, #29
    3a2a:	0b36      	lsrs	r6, r6, #12
    3a2c:	18cb      	adds	r3, r1, r3
    3a2e:	2100      	movs	r1, #0
    3a30:	0d0a      	lsrs	r2, r1, #20
    3a32:	0028      	movs	r0, r5
    3a34:	0512      	lsls	r2, r2, #20
    3a36:	4d1c      	ldr	r5, [pc, #112]	; (3aa8 <__aeabi_f2d+0x98>)
    3a38:	4332      	orrs	r2, r6
    3a3a:	055b      	lsls	r3, r3, #21
    3a3c:	402a      	ands	r2, r5
    3a3e:	085b      	lsrs	r3, r3, #1
    3a40:	4313      	orrs	r3, r2
    3a42:	005b      	lsls	r3, r3, #1
    3a44:	07e4      	lsls	r4, r4, #31
    3a46:	085b      	lsrs	r3, r3, #1
    3a48:	4323      	orrs	r3, r4
    3a4a:	0019      	movs	r1, r3
    3a4c:	bd70      	pop	{r4, r5, r6, pc}
    3a4e:	2900      	cmp	r1, #0
    3a50:	d114      	bne.n	3a7c <__aeabi_f2d+0x6c>
    3a52:	2d00      	cmp	r5, #0
    3a54:	d01e      	beq.n	3a94 <__aeabi_f2d+0x84>
    3a56:	0028      	movs	r0, r5
    3a58:	f000 f8a4 	bl	3ba4 <__clzsi2>
    3a5c:	280a      	cmp	r0, #10
    3a5e:	dc1c      	bgt.n	3a9a <__aeabi_f2d+0x8a>
    3a60:	230b      	movs	r3, #11
    3a62:	002a      	movs	r2, r5
    3a64:	1a1b      	subs	r3, r3, r0
    3a66:	40da      	lsrs	r2, r3
    3a68:	0003      	movs	r3, r0
    3a6a:	3315      	adds	r3, #21
    3a6c:	409d      	lsls	r5, r3
    3a6e:	4b0f      	ldr	r3, [pc, #60]	; (3aac <__aeabi_f2d+0x9c>)
    3a70:	0312      	lsls	r2, r2, #12
    3a72:	1a1b      	subs	r3, r3, r0
    3a74:	055b      	lsls	r3, r3, #21
    3a76:	0b16      	lsrs	r6, r2, #12
    3a78:	0d5b      	lsrs	r3, r3, #21
    3a7a:	e7d8      	b.n	3a2e <__aeabi_f2d+0x1e>
    3a7c:	2d00      	cmp	r5, #0
    3a7e:	d006      	beq.n	3a8e <__aeabi_f2d+0x7e>
    3a80:	0b32      	lsrs	r2, r6, #12
    3a82:	2680      	movs	r6, #128	; 0x80
    3a84:	0336      	lsls	r6, r6, #12
    3a86:	076d      	lsls	r5, r5, #29
    3a88:	4316      	orrs	r6, r2
    3a8a:	4b09      	ldr	r3, [pc, #36]	; (3ab0 <__aeabi_f2d+0xa0>)
    3a8c:	e7cf      	b.n	3a2e <__aeabi_f2d+0x1e>
    3a8e:	4b08      	ldr	r3, [pc, #32]	; (3ab0 <__aeabi_f2d+0xa0>)
    3a90:	2600      	movs	r6, #0
    3a92:	e7cc      	b.n	3a2e <__aeabi_f2d+0x1e>
    3a94:	2300      	movs	r3, #0
    3a96:	2600      	movs	r6, #0
    3a98:	e7c9      	b.n	3a2e <__aeabi_f2d+0x1e>
    3a9a:	0003      	movs	r3, r0
    3a9c:	002a      	movs	r2, r5
    3a9e:	3b0b      	subs	r3, #11
    3aa0:	409a      	lsls	r2, r3
    3aa2:	2500      	movs	r5, #0
    3aa4:	e7e3      	b.n	3a6e <__aeabi_f2d+0x5e>
    3aa6:	46c0      	nop			; (mov r8, r8)
    3aa8:	800fffff 	.word	0x800fffff
    3aac:	00000389 	.word	0x00000389
    3ab0:	000007ff 	.word	0x000007ff

00003ab4 <__aeabi_cdrcmple>:
    3ab4:	4684      	mov	ip, r0
    3ab6:	1c10      	adds	r0, r2, #0
    3ab8:	4662      	mov	r2, ip
    3aba:	468c      	mov	ip, r1
    3abc:	1c19      	adds	r1, r3, #0
    3abe:	4663      	mov	r3, ip
    3ac0:	e000      	b.n	3ac4 <__aeabi_cdcmpeq>
    3ac2:	46c0      	nop			; (mov r8, r8)

00003ac4 <__aeabi_cdcmpeq>:
    3ac4:	b51f      	push	{r0, r1, r2, r3, r4, lr}
    3ac6:	f000 f9d1 	bl	3e6c <__ledf2>
    3aca:	2800      	cmp	r0, #0
    3acc:	d401      	bmi.n	3ad2 <__aeabi_cdcmpeq+0xe>
    3ace:	2100      	movs	r1, #0
    3ad0:	42c8      	cmn	r0, r1
    3ad2:	bd1f      	pop	{r0, r1, r2, r3, r4, pc}

00003ad4 <__aeabi_dcmpeq>:
    3ad4:	b510      	push	{r4, lr}
    3ad6:	f000 f92b 	bl	3d30 <__eqdf2>
    3ada:	4240      	negs	r0, r0
    3adc:	3001      	adds	r0, #1
    3ade:	bd10      	pop	{r4, pc}

00003ae0 <__aeabi_dcmplt>:
    3ae0:	b510      	push	{r4, lr}
    3ae2:	f000 f9c3 	bl	3e6c <__ledf2>
    3ae6:	2800      	cmp	r0, #0
    3ae8:	db01      	blt.n	3aee <__aeabi_dcmplt+0xe>
    3aea:	2000      	movs	r0, #0
    3aec:	bd10      	pop	{r4, pc}
    3aee:	2001      	movs	r0, #1
    3af0:	bd10      	pop	{r4, pc}
    3af2:	46c0      	nop			; (mov r8, r8)

00003af4 <__aeabi_dcmple>:
    3af4:	b510      	push	{r4, lr}
    3af6:	f000 f9b9 	bl	3e6c <__ledf2>
    3afa:	2800      	cmp	r0, #0
    3afc:	dd01      	ble.n	3b02 <__aeabi_dcmple+0xe>
    3afe:	2000      	movs	r0, #0
    3b00:	bd10      	pop	{r4, pc}
    3b02:	2001      	movs	r0, #1
    3b04:	bd10      	pop	{r4, pc}
    3b06:	46c0      	nop			; (mov r8, r8)

00003b08 <__aeabi_dcmpgt>:
    3b08:	b510      	push	{r4, lr}
    3b0a:	f000 f94b 	bl	3da4 <__gedf2>
    3b0e:	2800      	cmp	r0, #0
    3b10:	dc01      	bgt.n	3b16 <__aeabi_dcmpgt+0xe>
    3b12:	2000      	movs	r0, #0
    3b14:	bd10      	pop	{r4, pc}
    3b16:	2001      	movs	r0, #1
    3b18:	bd10      	pop	{r4, pc}
    3b1a:	46c0      	nop			; (mov r8, r8)

00003b1c <__aeabi_dcmpge>:
    3b1c:	b510      	push	{r4, lr}
    3b1e:	f000 f941 	bl	3da4 <__gedf2>
    3b22:	2800      	cmp	r0, #0
    3b24:	da01      	bge.n	3b2a <__aeabi_dcmpge+0xe>
    3b26:	2000      	movs	r0, #0
    3b28:	bd10      	pop	{r4, pc}
    3b2a:	2001      	movs	r0, #1
    3b2c:	bd10      	pop	{r4, pc}
    3b2e:	46c0      	nop			; (mov r8, r8)

00003b30 <__aeabi_cfrcmple>:
    3b30:	4684      	mov	ip, r0
    3b32:	1c08      	adds	r0, r1, #0
    3b34:	4661      	mov	r1, ip
    3b36:	e7ff      	b.n	3b38 <__aeabi_cfcmpeq>

00003b38 <__aeabi_cfcmpeq>:
    3b38:	b51f      	push	{r0, r1, r2, r3, r4, lr}
    3b3a:	f000 f8b7 	bl	3cac <__lesf2>
    3b3e:	2800      	cmp	r0, #0
    3b40:	d401      	bmi.n	3b46 <__aeabi_cfcmpeq+0xe>
    3b42:	2100      	movs	r1, #0
    3b44:	42c8      	cmn	r0, r1
    3b46:	bd1f      	pop	{r0, r1, r2, r3, r4, pc}

00003b48 <__aeabi_fcmpeq>:
    3b48:	b510      	push	{r4, lr}
    3b4a:	f000 f849 	bl	3be0 <__eqsf2>
    3b4e:	4240      	negs	r0, r0
    3b50:	3001      	adds	r0, #1
    3b52:	bd10      	pop	{r4, pc}

00003b54 <__aeabi_fcmplt>:
    3b54:	b510      	push	{r4, lr}
    3b56:	f000 f8a9 	bl	3cac <__lesf2>
    3b5a:	2800      	cmp	r0, #0
    3b5c:	db01      	blt.n	3b62 <__aeabi_fcmplt+0xe>
    3b5e:	2000      	movs	r0, #0
    3b60:	bd10      	pop	{r4, pc}
    3b62:	2001      	movs	r0, #1
    3b64:	bd10      	pop	{r4, pc}
    3b66:	46c0      	nop			; (mov r8, r8)

00003b68 <__aeabi_fcmple>:
    3b68:	b510      	push	{r4, lr}
    3b6a:	f000 f89f 	bl	3cac <__lesf2>
    3b6e:	2800      	cmp	r0, #0
    3b70:	dd01      	ble.n	3b76 <__aeabi_fcmple+0xe>
    3b72:	2000      	movs	r0, #0
    3b74:	bd10      	pop	{r4, pc}
    3b76:	2001      	movs	r0, #1
    3b78:	bd10      	pop	{r4, pc}
    3b7a:	46c0      	nop			; (mov r8, r8)

00003b7c <__aeabi_fcmpgt>:
    3b7c:	b510      	push	{r4, lr}
    3b7e:	f000 f855 	bl	3c2c <__gesf2>
    3b82:	2800      	cmp	r0, #0
    3b84:	dc01      	bgt.n	3b8a <__aeabi_fcmpgt+0xe>
    3b86:	2000      	movs	r0, #0
    3b88:	bd10      	pop	{r4, pc}
    3b8a:	2001      	movs	r0, #1
    3b8c:	bd10      	pop	{r4, pc}
    3b8e:	46c0      	nop			; (mov r8, r8)

00003b90 <__aeabi_fcmpge>:
    3b90:	b510      	push	{r4, lr}
    3b92:	f000 f84b 	bl	3c2c <__gesf2>
    3b96:	2800      	cmp	r0, #0
    3b98:	da01      	bge.n	3b9e <__aeabi_fcmpge+0xe>
    3b9a:	2000      	movs	r0, #0
    3b9c:	bd10      	pop	{r4, pc}
    3b9e:	2001      	movs	r0, #1
    3ba0:	bd10      	pop	{r4, pc}
    3ba2:	46c0      	nop			; (mov r8, r8)

00003ba4 <__clzsi2>:
    3ba4:	211c      	movs	r1, #28
    3ba6:	2301      	movs	r3, #1
    3ba8:	041b      	lsls	r3, r3, #16
    3baa:	4298      	cmp	r0, r3
    3bac:	d301      	bcc.n	3bb2 <__clzsi2+0xe>
    3bae:	0c00      	lsrs	r0, r0, #16
    3bb0:	3910      	subs	r1, #16
    3bb2:	0a1b      	lsrs	r3, r3, #8
    3bb4:	4298      	cmp	r0, r3
    3bb6:	d301      	bcc.n	3bbc <__clzsi2+0x18>
    3bb8:	0a00      	lsrs	r0, r0, #8
    3bba:	3908      	subs	r1, #8
    3bbc:	091b      	lsrs	r3, r3, #4
    3bbe:	4298      	cmp	r0, r3
    3bc0:	d301      	bcc.n	3bc6 <__clzsi2+0x22>
    3bc2:	0900      	lsrs	r0, r0, #4
    3bc4:	3904      	subs	r1, #4
    3bc6:	a202      	add	r2, pc, #8	; (adr r2, 3bd0 <__clzsi2+0x2c>)
    3bc8:	5c10      	ldrb	r0, [r2, r0]
    3bca:	1840      	adds	r0, r0, r1
    3bcc:	4770      	bx	lr
    3bce:	46c0      	nop			; (mov r8, r8)
    3bd0:	02020304 	.word	0x02020304
    3bd4:	01010101 	.word	0x01010101
	...

00003be0 <__eqsf2>:
    3be0:	b570      	push	{r4, r5, r6, lr}
    3be2:	0042      	lsls	r2, r0, #1
    3be4:	0245      	lsls	r5, r0, #9
    3be6:	024e      	lsls	r6, r1, #9
    3be8:	004c      	lsls	r4, r1, #1
    3bea:	0fc3      	lsrs	r3, r0, #31
    3bec:	0a6d      	lsrs	r5, r5, #9
    3bee:	0e12      	lsrs	r2, r2, #24
    3bf0:	0a76      	lsrs	r6, r6, #9
    3bf2:	0e24      	lsrs	r4, r4, #24
    3bf4:	0fc9      	lsrs	r1, r1, #31
    3bf6:	2001      	movs	r0, #1
    3bf8:	2aff      	cmp	r2, #255	; 0xff
    3bfa:	d006      	beq.n	3c0a <__eqsf2+0x2a>
    3bfc:	2cff      	cmp	r4, #255	; 0xff
    3bfe:	d003      	beq.n	3c08 <__eqsf2+0x28>
    3c00:	42a2      	cmp	r2, r4
    3c02:	d101      	bne.n	3c08 <__eqsf2+0x28>
    3c04:	42b5      	cmp	r5, r6
    3c06:	d006      	beq.n	3c16 <__eqsf2+0x36>
    3c08:	bd70      	pop	{r4, r5, r6, pc}
    3c0a:	2d00      	cmp	r5, #0
    3c0c:	d1fc      	bne.n	3c08 <__eqsf2+0x28>
    3c0e:	2cff      	cmp	r4, #255	; 0xff
    3c10:	d1fa      	bne.n	3c08 <__eqsf2+0x28>
    3c12:	2e00      	cmp	r6, #0
    3c14:	d1f8      	bne.n	3c08 <__eqsf2+0x28>
    3c16:	428b      	cmp	r3, r1
    3c18:	d006      	beq.n	3c28 <__eqsf2+0x48>
    3c1a:	2001      	movs	r0, #1
    3c1c:	2a00      	cmp	r2, #0
    3c1e:	d1f3      	bne.n	3c08 <__eqsf2+0x28>
    3c20:	0028      	movs	r0, r5
    3c22:	1e45      	subs	r5, r0, #1
    3c24:	41a8      	sbcs	r0, r5
    3c26:	e7ef      	b.n	3c08 <__eqsf2+0x28>
    3c28:	2000      	movs	r0, #0
    3c2a:	e7ed      	b.n	3c08 <__eqsf2+0x28>

00003c2c <__gesf2>:
    3c2c:	b5f0      	push	{r4, r5, r6, r7, lr}
    3c2e:	0042      	lsls	r2, r0, #1
    3c30:	0245      	lsls	r5, r0, #9
    3c32:	024c      	lsls	r4, r1, #9
    3c34:	0fc3      	lsrs	r3, r0, #31
    3c36:	0048      	lsls	r0, r1, #1
    3c38:	0a6d      	lsrs	r5, r5, #9
    3c3a:	0e12      	lsrs	r2, r2, #24
    3c3c:	0a64      	lsrs	r4, r4, #9
    3c3e:	0e00      	lsrs	r0, r0, #24
    3c40:	0fc9      	lsrs	r1, r1, #31
    3c42:	2aff      	cmp	r2, #255	; 0xff
    3c44:	d01e      	beq.n	3c84 <__gesf2+0x58>
    3c46:	28ff      	cmp	r0, #255	; 0xff
    3c48:	d021      	beq.n	3c8e <__gesf2+0x62>
    3c4a:	2a00      	cmp	r2, #0
    3c4c:	d10a      	bne.n	3c64 <__gesf2+0x38>
    3c4e:	426e      	negs	r6, r5
    3c50:	416e      	adcs	r6, r5
    3c52:	b2f6      	uxtb	r6, r6
    3c54:	2800      	cmp	r0, #0
    3c56:	d10f      	bne.n	3c78 <__gesf2+0x4c>
    3c58:	2c00      	cmp	r4, #0
    3c5a:	d10d      	bne.n	3c78 <__gesf2+0x4c>
    3c5c:	2000      	movs	r0, #0
    3c5e:	2d00      	cmp	r5, #0
    3c60:	d009      	beq.n	3c76 <__gesf2+0x4a>
    3c62:	e005      	b.n	3c70 <__gesf2+0x44>
    3c64:	2800      	cmp	r0, #0
    3c66:	d101      	bne.n	3c6c <__gesf2+0x40>
    3c68:	2c00      	cmp	r4, #0
    3c6a:	d001      	beq.n	3c70 <__gesf2+0x44>
    3c6c:	428b      	cmp	r3, r1
    3c6e:	d011      	beq.n	3c94 <__gesf2+0x68>
    3c70:	2101      	movs	r1, #1
    3c72:	4258      	negs	r0, r3
    3c74:	4308      	orrs	r0, r1
    3c76:	bdf0      	pop	{r4, r5, r6, r7, pc}
    3c78:	2e00      	cmp	r6, #0
    3c7a:	d0f7      	beq.n	3c6c <__gesf2+0x40>
    3c7c:	2001      	movs	r0, #1
    3c7e:	3901      	subs	r1, #1
    3c80:	4308      	orrs	r0, r1
    3c82:	e7f8      	b.n	3c76 <__gesf2+0x4a>
    3c84:	2d00      	cmp	r5, #0
    3c86:	d0de      	beq.n	3c46 <__gesf2+0x1a>
    3c88:	2002      	movs	r0, #2
    3c8a:	4240      	negs	r0, r0
    3c8c:	e7f3      	b.n	3c76 <__gesf2+0x4a>
    3c8e:	2c00      	cmp	r4, #0
    3c90:	d0db      	beq.n	3c4a <__gesf2+0x1e>
    3c92:	e7f9      	b.n	3c88 <__gesf2+0x5c>
    3c94:	4282      	cmp	r2, r0
    3c96:	dceb      	bgt.n	3c70 <__gesf2+0x44>
    3c98:	db04      	blt.n	3ca4 <__gesf2+0x78>
    3c9a:	42a5      	cmp	r5, r4
    3c9c:	d8e8      	bhi.n	3c70 <__gesf2+0x44>
    3c9e:	2000      	movs	r0, #0
    3ca0:	42a5      	cmp	r5, r4
    3ca2:	d2e8      	bcs.n	3c76 <__gesf2+0x4a>
    3ca4:	2101      	movs	r1, #1
    3ca6:	1e58      	subs	r0, r3, #1
    3ca8:	4308      	orrs	r0, r1
    3caa:	e7e4      	b.n	3c76 <__gesf2+0x4a>

00003cac <__lesf2>:
    3cac:	b5f0      	push	{r4, r5, r6, r7, lr}
    3cae:	0042      	lsls	r2, r0, #1
    3cb0:	024d      	lsls	r5, r1, #9
    3cb2:	004c      	lsls	r4, r1, #1
    3cb4:	0246      	lsls	r6, r0, #9
    3cb6:	0a76      	lsrs	r6, r6, #9
    3cb8:	0e12      	lsrs	r2, r2, #24
    3cba:	0fc3      	lsrs	r3, r0, #31
    3cbc:	0a6d      	lsrs	r5, r5, #9
    3cbe:	0e24      	lsrs	r4, r4, #24
    3cc0:	0fc9      	lsrs	r1, r1, #31
    3cc2:	2aff      	cmp	r2, #255	; 0xff
    3cc4:	d016      	beq.n	3cf4 <__lesf2+0x48>
    3cc6:	2cff      	cmp	r4, #255	; 0xff
    3cc8:	d018      	beq.n	3cfc <__lesf2+0x50>
    3cca:	2a00      	cmp	r2, #0
    3ccc:	d10a      	bne.n	3ce4 <__lesf2+0x38>
    3cce:	4270      	negs	r0, r6
    3cd0:	4170      	adcs	r0, r6
    3cd2:	b2c0      	uxtb	r0, r0
    3cd4:	2c00      	cmp	r4, #0
    3cd6:	d015      	beq.n	3d04 <__lesf2+0x58>
    3cd8:	2800      	cmp	r0, #0
    3cda:	d005      	beq.n	3ce8 <__lesf2+0x3c>
    3cdc:	2001      	movs	r0, #1
    3cde:	3901      	subs	r1, #1
    3ce0:	4308      	orrs	r0, r1
    3ce2:	bdf0      	pop	{r4, r5, r6, r7, pc}
    3ce4:	2c00      	cmp	r4, #0
    3ce6:	d013      	beq.n	3d10 <__lesf2+0x64>
    3ce8:	4299      	cmp	r1, r3
    3cea:	d014      	beq.n	3d16 <__lesf2+0x6a>
    3cec:	2001      	movs	r0, #1
    3cee:	425b      	negs	r3, r3
    3cf0:	4318      	orrs	r0, r3
    3cf2:	e7f6      	b.n	3ce2 <__lesf2+0x36>
    3cf4:	2002      	movs	r0, #2
    3cf6:	2e00      	cmp	r6, #0
    3cf8:	d1f3      	bne.n	3ce2 <__lesf2+0x36>
    3cfa:	e7e4      	b.n	3cc6 <__lesf2+0x1a>
    3cfc:	2002      	movs	r0, #2
    3cfe:	2d00      	cmp	r5, #0
    3d00:	d1ef      	bne.n	3ce2 <__lesf2+0x36>
    3d02:	e7e2      	b.n	3cca <__lesf2+0x1e>
    3d04:	2d00      	cmp	r5, #0
    3d06:	d1e7      	bne.n	3cd8 <__lesf2+0x2c>
    3d08:	2000      	movs	r0, #0
    3d0a:	2e00      	cmp	r6, #0
    3d0c:	d0e9      	beq.n	3ce2 <__lesf2+0x36>
    3d0e:	e7ed      	b.n	3cec <__lesf2+0x40>
    3d10:	2d00      	cmp	r5, #0
    3d12:	d1e9      	bne.n	3ce8 <__lesf2+0x3c>
    3d14:	e7ea      	b.n	3cec <__lesf2+0x40>
    3d16:	42a2      	cmp	r2, r4
    3d18:	dc06      	bgt.n	3d28 <__lesf2+0x7c>
    3d1a:	dbdf      	blt.n	3cdc <__lesf2+0x30>
    3d1c:	42ae      	cmp	r6, r5
    3d1e:	d803      	bhi.n	3d28 <__lesf2+0x7c>
    3d20:	2000      	movs	r0, #0
    3d22:	42ae      	cmp	r6, r5
    3d24:	d3da      	bcc.n	3cdc <__lesf2+0x30>
    3d26:	e7dc      	b.n	3ce2 <__lesf2+0x36>
    3d28:	2001      	movs	r0, #1
    3d2a:	4249      	negs	r1, r1
    3d2c:	4308      	orrs	r0, r1
    3d2e:	e7d8      	b.n	3ce2 <__lesf2+0x36>

00003d30 <__eqdf2>:
    3d30:	b5f0      	push	{r4, r5, r6, r7, lr}
    3d32:	464f      	mov	r7, r9
    3d34:	4646      	mov	r6, r8
    3d36:	46d6      	mov	lr, sl
    3d38:	005c      	lsls	r4, r3, #1
    3d3a:	b5c0      	push	{r6, r7, lr}
    3d3c:	031f      	lsls	r7, r3, #12
    3d3e:	0fdb      	lsrs	r3, r3, #31
    3d40:	469a      	mov	sl, r3
    3d42:	4b17      	ldr	r3, [pc, #92]	; (3da0 <__eqdf2+0x70>)
    3d44:	030e      	lsls	r6, r1, #12
    3d46:	004d      	lsls	r5, r1, #1
    3d48:	4684      	mov	ip, r0
    3d4a:	4680      	mov	r8, r0
    3d4c:	0b36      	lsrs	r6, r6, #12
    3d4e:	0d6d      	lsrs	r5, r5, #21
    3d50:	0fc9      	lsrs	r1, r1, #31
    3d52:	4691      	mov	r9, r2
    3d54:	0b3f      	lsrs	r7, r7, #12
    3d56:	0d64      	lsrs	r4, r4, #21
    3d58:	2001      	movs	r0, #1
    3d5a:	429d      	cmp	r5, r3
    3d5c:	d008      	beq.n	3d70 <__eqdf2+0x40>
    3d5e:	429c      	cmp	r4, r3
    3d60:	d001      	beq.n	3d66 <__eqdf2+0x36>
    3d62:	42a5      	cmp	r5, r4
    3d64:	d00b      	beq.n	3d7e <__eqdf2+0x4e>
    3d66:	bc1c      	pop	{r2, r3, r4}
    3d68:	4690      	mov	r8, r2
    3d6a:	4699      	mov	r9, r3
    3d6c:	46a2      	mov	sl, r4
    3d6e:	bdf0      	pop	{r4, r5, r6, r7, pc}
    3d70:	4663      	mov	r3, ip
    3d72:	4333      	orrs	r3, r6
    3d74:	d1f7      	bne.n	3d66 <__eqdf2+0x36>
    3d76:	42ac      	cmp	r4, r5
    3d78:	d1f5      	bne.n	3d66 <__eqdf2+0x36>
    3d7a:	433a      	orrs	r2, r7
    3d7c:	d1f3      	bne.n	3d66 <__eqdf2+0x36>
    3d7e:	2001      	movs	r0, #1
    3d80:	42be      	cmp	r6, r7
    3d82:	d1f0      	bne.n	3d66 <__eqdf2+0x36>
    3d84:	45c8      	cmp	r8, r9
    3d86:	d1ee      	bne.n	3d66 <__eqdf2+0x36>
    3d88:	4551      	cmp	r1, sl
    3d8a:	d007      	beq.n	3d9c <__eqdf2+0x6c>
    3d8c:	2d00      	cmp	r5, #0
    3d8e:	d1ea      	bne.n	3d66 <__eqdf2+0x36>
    3d90:	4663      	mov	r3, ip
    3d92:	431e      	orrs	r6, r3
    3d94:	0030      	movs	r0, r6
    3d96:	1e46      	subs	r6, r0, #1
    3d98:	41b0      	sbcs	r0, r6
    3d9a:	e7e4      	b.n	3d66 <__eqdf2+0x36>
    3d9c:	2000      	movs	r0, #0
    3d9e:	e7e2      	b.n	3d66 <__eqdf2+0x36>
    3da0:	000007ff 	.word	0x000007ff

00003da4 <__gedf2>:
    3da4:	b5f0      	push	{r4, r5, r6, r7, lr}
    3da6:	4645      	mov	r5, r8
    3da8:	46de      	mov	lr, fp
    3daa:	4657      	mov	r7, sl
    3dac:	464e      	mov	r6, r9
    3dae:	b5e0      	push	{r5, r6, r7, lr}
    3db0:	031f      	lsls	r7, r3, #12
    3db2:	0b3d      	lsrs	r5, r7, #12
    3db4:	4f2c      	ldr	r7, [pc, #176]	; (3e68 <__gedf2+0xc4>)
    3db6:	030e      	lsls	r6, r1, #12
    3db8:	004c      	lsls	r4, r1, #1
    3dba:	46ab      	mov	fp, r5
    3dbc:	005d      	lsls	r5, r3, #1
    3dbe:	4684      	mov	ip, r0
    3dc0:	0b36      	lsrs	r6, r6, #12
    3dc2:	0d64      	lsrs	r4, r4, #21
    3dc4:	0fc9      	lsrs	r1, r1, #31
    3dc6:	4690      	mov	r8, r2
    3dc8:	0d6d      	lsrs	r5, r5, #21
    3dca:	0fdb      	lsrs	r3, r3, #31
    3dcc:	42bc      	cmp	r4, r7
    3dce:	d02a      	beq.n	3e26 <__gedf2+0x82>
    3dd0:	4f25      	ldr	r7, [pc, #148]	; (3e68 <__gedf2+0xc4>)
    3dd2:	42bd      	cmp	r5, r7
    3dd4:	d02d      	beq.n	3e32 <__gedf2+0x8e>
    3dd6:	2c00      	cmp	r4, #0
    3dd8:	d10f      	bne.n	3dfa <__gedf2+0x56>
    3dda:	4330      	orrs	r0, r6
    3ddc:	0007      	movs	r7, r0
    3dde:	4681      	mov	r9, r0
    3de0:	4278      	negs	r0, r7
    3de2:	4178      	adcs	r0, r7
    3de4:	b2c0      	uxtb	r0, r0
    3de6:	2d00      	cmp	r5, #0
    3de8:	d117      	bne.n	3e1a <__gedf2+0x76>
    3dea:	465f      	mov	r7, fp
    3dec:	433a      	orrs	r2, r7
    3dee:	d114      	bne.n	3e1a <__gedf2+0x76>
    3df0:	464b      	mov	r3, r9
    3df2:	2000      	movs	r0, #0
    3df4:	2b00      	cmp	r3, #0
    3df6:	d00a      	beq.n	3e0e <__gedf2+0x6a>
    3df8:	e006      	b.n	3e08 <__gedf2+0x64>
    3dfa:	2d00      	cmp	r5, #0
    3dfc:	d102      	bne.n	3e04 <__gedf2+0x60>
    3dfe:	4658      	mov	r0, fp
    3e00:	4302      	orrs	r2, r0
    3e02:	d001      	beq.n	3e08 <__gedf2+0x64>
    3e04:	4299      	cmp	r1, r3
    3e06:	d018      	beq.n	3e3a <__gedf2+0x96>
    3e08:	4248      	negs	r0, r1
    3e0a:	2101      	movs	r1, #1
    3e0c:	4308      	orrs	r0, r1
    3e0e:	bc3c      	pop	{r2, r3, r4, r5}
    3e10:	4690      	mov	r8, r2
    3e12:	4699      	mov	r9, r3
    3e14:	46a2      	mov	sl, r4
    3e16:	46ab      	mov	fp, r5
    3e18:	bdf0      	pop	{r4, r5, r6, r7, pc}
    3e1a:	2800      	cmp	r0, #0
    3e1c:	d0f2      	beq.n	3e04 <__gedf2+0x60>
    3e1e:	2001      	movs	r0, #1
    3e20:	3b01      	subs	r3, #1
    3e22:	4318      	orrs	r0, r3
    3e24:	e7f3      	b.n	3e0e <__gedf2+0x6a>
    3e26:	0037      	movs	r7, r6
    3e28:	4307      	orrs	r7, r0
    3e2a:	d0d1      	beq.n	3dd0 <__gedf2+0x2c>
    3e2c:	2002      	movs	r0, #2
    3e2e:	4240      	negs	r0, r0
    3e30:	e7ed      	b.n	3e0e <__gedf2+0x6a>
    3e32:	465f      	mov	r7, fp
    3e34:	4317      	orrs	r7, r2
    3e36:	d0ce      	beq.n	3dd6 <__gedf2+0x32>
    3e38:	e7f8      	b.n	3e2c <__gedf2+0x88>
    3e3a:	42ac      	cmp	r4, r5
    3e3c:	dce4      	bgt.n	3e08 <__gedf2+0x64>
    3e3e:	da03      	bge.n	3e48 <__gedf2+0xa4>
    3e40:	1e48      	subs	r0, r1, #1
    3e42:	2101      	movs	r1, #1
    3e44:	4308      	orrs	r0, r1
    3e46:	e7e2      	b.n	3e0e <__gedf2+0x6a>
    3e48:	455e      	cmp	r6, fp
    3e4a:	d8dd      	bhi.n	3e08 <__gedf2+0x64>
    3e4c:	d006      	beq.n	3e5c <__gedf2+0xb8>
    3e4e:	2000      	movs	r0, #0
    3e50:	455e      	cmp	r6, fp
    3e52:	d2dc      	bcs.n	3e0e <__gedf2+0x6a>
    3e54:	2301      	movs	r3, #1
    3e56:	1e48      	subs	r0, r1, #1
    3e58:	4318      	orrs	r0, r3
    3e5a:	e7d8      	b.n	3e0e <__gedf2+0x6a>
    3e5c:	45c4      	cmp	ip, r8
    3e5e:	d8d3      	bhi.n	3e08 <__gedf2+0x64>
    3e60:	2000      	movs	r0, #0
    3e62:	45c4      	cmp	ip, r8
    3e64:	d3f6      	bcc.n	3e54 <__gedf2+0xb0>
    3e66:	e7d2      	b.n	3e0e <__gedf2+0x6a>
    3e68:	000007ff 	.word	0x000007ff

00003e6c <__ledf2>:
    3e6c:	b5f0      	push	{r4, r5, r6, r7, lr}
    3e6e:	464e      	mov	r6, r9
    3e70:	4645      	mov	r5, r8
    3e72:	46de      	mov	lr, fp
    3e74:	4657      	mov	r7, sl
    3e76:	005c      	lsls	r4, r3, #1
    3e78:	b5e0      	push	{r5, r6, r7, lr}
    3e7a:	031f      	lsls	r7, r3, #12
    3e7c:	0fdb      	lsrs	r3, r3, #31
    3e7e:	4699      	mov	r9, r3
    3e80:	4b2a      	ldr	r3, [pc, #168]	; (3f2c <__ledf2+0xc0>)
    3e82:	030e      	lsls	r6, r1, #12
    3e84:	004d      	lsls	r5, r1, #1
    3e86:	0fc9      	lsrs	r1, r1, #31
    3e88:	4684      	mov	ip, r0
    3e8a:	0b36      	lsrs	r6, r6, #12
    3e8c:	0d6d      	lsrs	r5, r5, #21
    3e8e:	468b      	mov	fp, r1
    3e90:	4690      	mov	r8, r2
    3e92:	0b3f      	lsrs	r7, r7, #12
    3e94:	0d64      	lsrs	r4, r4, #21
    3e96:	429d      	cmp	r5, r3
    3e98:	d020      	beq.n	3edc <__ledf2+0x70>
    3e9a:	4b24      	ldr	r3, [pc, #144]	; (3f2c <__ledf2+0xc0>)
    3e9c:	429c      	cmp	r4, r3
    3e9e:	d022      	beq.n	3ee6 <__ledf2+0x7a>
    3ea0:	2d00      	cmp	r5, #0
    3ea2:	d112      	bne.n	3eca <__ledf2+0x5e>
    3ea4:	4330      	orrs	r0, r6
    3ea6:	4243      	negs	r3, r0
    3ea8:	4143      	adcs	r3, r0
    3eaa:	b2db      	uxtb	r3, r3
    3eac:	2c00      	cmp	r4, #0
    3eae:	d01f      	beq.n	3ef0 <__ledf2+0x84>
    3eb0:	2b00      	cmp	r3, #0
    3eb2:	d00c      	beq.n	3ece <__ledf2+0x62>
    3eb4:	464b      	mov	r3, r9
    3eb6:	2001      	movs	r0, #1
    3eb8:	3b01      	subs	r3, #1
    3eba:	4303      	orrs	r3, r0
    3ebc:	0018      	movs	r0, r3
    3ebe:	bc3c      	pop	{r2, r3, r4, r5}
    3ec0:	4690      	mov	r8, r2
    3ec2:	4699      	mov	r9, r3
    3ec4:	46a2      	mov	sl, r4
    3ec6:	46ab      	mov	fp, r5
    3ec8:	bdf0      	pop	{r4, r5, r6, r7, pc}
    3eca:	2c00      	cmp	r4, #0
    3ecc:	d016      	beq.n	3efc <__ledf2+0x90>
    3ece:	45cb      	cmp	fp, r9
    3ed0:	d017      	beq.n	3f02 <__ledf2+0x96>
    3ed2:	465b      	mov	r3, fp
    3ed4:	4259      	negs	r1, r3
    3ed6:	2301      	movs	r3, #1
    3ed8:	430b      	orrs	r3, r1
    3eda:	e7ef      	b.n	3ebc <__ledf2+0x50>
    3edc:	0031      	movs	r1, r6
    3ede:	2302      	movs	r3, #2
    3ee0:	4301      	orrs	r1, r0
    3ee2:	d1eb      	bne.n	3ebc <__ledf2+0x50>
    3ee4:	e7d9      	b.n	3e9a <__ledf2+0x2e>
    3ee6:	0039      	movs	r1, r7
    3ee8:	2302      	movs	r3, #2
    3eea:	4311      	orrs	r1, r2
    3eec:	d1e6      	bne.n	3ebc <__ledf2+0x50>
    3eee:	e7d7      	b.n	3ea0 <__ledf2+0x34>
    3ef0:	433a      	orrs	r2, r7
    3ef2:	d1dd      	bne.n	3eb0 <__ledf2+0x44>
    3ef4:	2300      	movs	r3, #0
    3ef6:	2800      	cmp	r0, #0
    3ef8:	d0e0      	beq.n	3ebc <__ledf2+0x50>
    3efa:	e7ea      	b.n	3ed2 <__ledf2+0x66>
    3efc:	433a      	orrs	r2, r7
    3efe:	d1e6      	bne.n	3ece <__ledf2+0x62>
    3f00:	e7e7      	b.n	3ed2 <__ledf2+0x66>
    3f02:	42a5      	cmp	r5, r4
    3f04:	dce5      	bgt.n	3ed2 <__ledf2+0x66>
    3f06:	db05      	blt.n	3f14 <__ledf2+0xa8>
    3f08:	42be      	cmp	r6, r7
    3f0a:	d8e2      	bhi.n	3ed2 <__ledf2+0x66>
    3f0c:	d007      	beq.n	3f1e <__ledf2+0xb2>
    3f0e:	2300      	movs	r3, #0
    3f10:	42be      	cmp	r6, r7
    3f12:	d2d3      	bcs.n	3ebc <__ledf2+0x50>
    3f14:	4659      	mov	r1, fp
    3f16:	2301      	movs	r3, #1
    3f18:	3901      	subs	r1, #1
    3f1a:	430b      	orrs	r3, r1
    3f1c:	e7ce      	b.n	3ebc <__ledf2+0x50>
    3f1e:	45c4      	cmp	ip, r8
    3f20:	d8d7      	bhi.n	3ed2 <__ledf2+0x66>
    3f22:	2300      	movs	r3, #0
    3f24:	45c4      	cmp	ip, r8
    3f26:	d3f5      	bcc.n	3f14 <__ledf2+0xa8>
    3f28:	e7c8      	b.n	3ebc <__ledf2+0x50>
    3f2a:	46c0      	nop			; (mov r8, r8)
    3f2c:	000007ff 	.word	0x000007ff

00003f30 <gcvt>:
    3f30:	b5f0      	push	{r4, r5, r6, r7, lr}
    3f32:	001c      	movs	r4, r3
    3f34:	b085      	sub	sp, #20
    3f36:	2300      	movs	r3, #0
    3f38:	0015      	movs	r5, r2
    3f3a:	2200      	movs	r2, #0
    3f3c:	0006      	movs	r6, r0
    3f3e:	000f      	movs	r7, r1
    3f40:	f7ff fdce 	bl	3ae0 <__aeabi_dcmplt>
    3f44:	0023      	movs	r3, r4
    3f46:	2800      	cmp	r0, #0
    3f48:	d003      	beq.n	3f52 <gcvt+0x22>
    3f4a:	232d      	movs	r3, #45	; 0x2d
    3f4c:	3d01      	subs	r5, #1
    3f4e:	7023      	strb	r3, [r4, #0]
    3f50:	1c63      	adds	r3, r4, #1
    3f52:	2200      	movs	r2, #0
    3f54:	4908      	ldr	r1, [pc, #32]	; (3f78 <gcvt+0x48>)
    3f56:	9203      	str	r2, [sp, #12]
    3f58:	3267      	adds	r2, #103	; 0x67
    3f5a:	9202      	str	r2, [sp, #8]
    3f5c:	9301      	str	r3, [sp, #4]
    3f5e:	9500      	str	r5, [sp, #0]
    3f60:	003b      	movs	r3, r7
    3f62:	0032      	movs	r2, r6
    3f64:	6808      	ldr	r0, [r1, #0]
    3f66:	f000 f93b 	bl	41e0 <_gcvt>
    3f6a:	1e43      	subs	r3, r0, #1
    3f6c:	4198      	sbcs	r0, r3
    3f6e:	4240      	negs	r0, r0
    3f70:	4004      	ands	r4, r0
    3f72:	0020      	movs	r0, r4
    3f74:	b005      	add	sp, #20
    3f76:	bdf0      	pop	{r4, r5, r6, r7, pc}
    3f78:	200000fc 	.word	0x200000fc

00003f7c <__libc_init_array>:
    3f7c:	b570      	push	{r4, r5, r6, lr}
    3f7e:	2600      	movs	r6, #0
    3f80:	4d0c      	ldr	r5, [pc, #48]	; (3fb4 <__libc_init_array+0x38>)
    3f82:	4c0d      	ldr	r4, [pc, #52]	; (3fb8 <__libc_init_array+0x3c>)
    3f84:	1b64      	subs	r4, r4, r5
    3f86:	10a4      	asrs	r4, r4, #2
    3f88:	42a6      	cmp	r6, r4
    3f8a:	d109      	bne.n	3fa0 <__libc_init_array+0x24>
    3f8c:	2600      	movs	r6, #0
    3f8e:	f002 f985 	bl	629c <_init>
    3f92:	4d0a      	ldr	r5, [pc, #40]	; (3fbc <__libc_init_array+0x40>)
    3f94:	4c0a      	ldr	r4, [pc, #40]	; (3fc0 <__libc_init_array+0x44>)
    3f96:	1b64      	subs	r4, r4, r5
    3f98:	10a4      	asrs	r4, r4, #2
    3f9a:	42a6      	cmp	r6, r4
    3f9c:	d105      	bne.n	3faa <__libc_init_array+0x2e>
    3f9e:	bd70      	pop	{r4, r5, r6, pc}
    3fa0:	00b3      	lsls	r3, r6, #2
    3fa2:	58eb      	ldr	r3, [r5, r3]
    3fa4:	4798      	blx	r3
    3fa6:	3601      	adds	r6, #1
    3fa8:	e7ee      	b.n	3f88 <__libc_init_array+0xc>
    3faa:	00b3      	lsls	r3, r6, #2
    3fac:	58eb      	ldr	r3, [r5, r3]
    3fae:	4798      	blx	r3
    3fb0:	3601      	adds	r6, #1
    3fb2:	e7f2      	b.n	3f9a <__libc_init_array+0x1e>
    3fb4:	000062a8 	.word	0x000062a8
    3fb8:	000062a8 	.word	0x000062a8
    3fbc:	000062a8 	.word	0x000062a8
    3fc0:	000062ac 	.word	0x000062ac

00003fc4 <malloc>:
    3fc4:	b510      	push	{r4, lr}
    3fc6:	4b03      	ldr	r3, [pc, #12]	; (3fd4 <malloc+0x10>)
    3fc8:	0001      	movs	r1, r0
    3fca:	6818      	ldr	r0, [r3, #0]
    3fcc:	f000 f816 	bl	3ffc <_malloc_r>
    3fd0:	bd10      	pop	{r4, pc}
    3fd2:	46c0      	nop			; (mov r8, r8)
    3fd4:	200000fc 	.word	0x200000fc

00003fd8 <memcpy>:
    3fd8:	2300      	movs	r3, #0
    3fda:	b510      	push	{r4, lr}
    3fdc:	429a      	cmp	r2, r3
    3fde:	d100      	bne.n	3fe2 <memcpy+0xa>
    3fe0:	bd10      	pop	{r4, pc}
    3fe2:	5ccc      	ldrb	r4, [r1, r3]
    3fe4:	54c4      	strb	r4, [r0, r3]
    3fe6:	3301      	adds	r3, #1
    3fe8:	e7f8      	b.n	3fdc <memcpy+0x4>

00003fea <memset>:
    3fea:	0003      	movs	r3, r0
    3fec:	1882      	adds	r2, r0, r2
    3fee:	4293      	cmp	r3, r2
    3ff0:	d100      	bne.n	3ff4 <memset+0xa>
    3ff2:	4770      	bx	lr
    3ff4:	7019      	strb	r1, [r3, #0]
    3ff6:	3301      	adds	r3, #1
    3ff8:	e7f9      	b.n	3fee <memset+0x4>
	...

00003ffc <_malloc_r>:
    3ffc:	2303      	movs	r3, #3
    3ffe:	b570      	push	{r4, r5, r6, lr}
    4000:	1ccd      	adds	r5, r1, #3
    4002:	439d      	bics	r5, r3
    4004:	3508      	adds	r5, #8
    4006:	0006      	movs	r6, r0
    4008:	2d0c      	cmp	r5, #12
    400a:	d21e      	bcs.n	404a <_malloc_r+0x4e>
    400c:	250c      	movs	r5, #12
    400e:	42a9      	cmp	r1, r5
    4010:	d81d      	bhi.n	404e <_malloc_r+0x52>
    4012:	0030      	movs	r0, r6
    4014:	f000 f9b2 	bl	437c <__malloc_lock>
    4018:	4a25      	ldr	r2, [pc, #148]	; (40b0 <_malloc_r+0xb4>)
    401a:	6814      	ldr	r4, [r2, #0]
    401c:	0021      	movs	r1, r4
    401e:	2900      	cmp	r1, #0
    4020:	d119      	bne.n	4056 <_malloc_r+0x5a>
    4022:	4c24      	ldr	r4, [pc, #144]	; (40b4 <_malloc_r+0xb8>)
    4024:	6823      	ldr	r3, [r4, #0]
    4026:	2b00      	cmp	r3, #0
    4028:	d103      	bne.n	4032 <_malloc_r+0x36>
    402a:	0030      	movs	r0, r6
    402c:	f000 f844 	bl	40b8 <_sbrk_r>
    4030:	6020      	str	r0, [r4, #0]
    4032:	0029      	movs	r1, r5
    4034:	0030      	movs	r0, r6
    4036:	f000 f83f 	bl	40b8 <_sbrk_r>
    403a:	1c43      	adds	r3, r0, #1
    403c:	d12c      	bne.n	4098 <_malloc_r+0x9c>
    403e:	230c      	movs	r3, #12
    4040:	0030      	movs	r0, r6
    4042:	6033      	str	r3, [r6, #0]
    4044:	f000 f99b 	bl	437e <__malloc_unlock>
    4048:	e003      	b.n	4052 <_malloc_r+0x56>
    404a:	2d00      	cmp	r5, #0
    404c:	dadf      	bge.n	400e <_malloc_r+0x12>
    404e:	230c      	movs	r3, #12
    4050:	6033      	str	r3, [r6, #0]
    4052:	2000      	movs	r0, #0
    4054:	bd70      	pop	{r4, r5, r6, pc}
    4056:	680b      	ldr	r3, [r1, #0]
    4058:	1b5b      	subs	r3, r3, r5
    405a:	d41a      	bmi.n	4092 <_malloc_r+0x96>
    405c:	2b0b      	cmp	r3, #11
    405e:	d903      	bls.n	4068 <_malloc_r+0x6c>
    4060:	600b      	str	r3, [r1, #0]
    4062:	18cc      	adds	r4, r1, r3
    4064:	6025      	str	r5, [r4, #0]
    4066:	e003      	b.n	4070 <_malloc_r+0x74>
    4068:	428c      	cmp	r4, r1
    406a:	d10e      	bne.n	408a <_malloc_r+0x8e>
    406c:	6863      	ldr	r3, [r4, #4]
    406e:	6013      	str	r3, [r2, #0]
    4070:	0030      	movs	r0, r6
    4072:	f000 f984 	bl	437e <__malloc_unlock>
    4076:	0020      	movs	r0, r4
    4078:	2207      	movs	r2, #7
    407a:	300b      	adds	r0, #11
    407c:	1d23      	adds	r3, r4, #4
    407e:	4390      	bics	r0, r2
    4080:	1ac3      	subs	r3, r0, r3
    4082:	d0e7      	beq.n	4054 <_malloc_r+0x58>
    4084:	425a      	negs	r2, r3
    4086:	50e2      	str	r2, [r4, r3]
    4088:	e7e4      	b.n	4054 <_malloc_r+0x58>
    408a:	684b      	ldr	r3, [r1, #4]
    408c:	6063      	str	r3, [r4, #4]
    408e:	000c      	movs	r4, r1
    4090:	e7ee      	b.n	4070 <_malloc_r+0x74>
    4092:	000c      	movs	r4, r1
    4094:	6849      	ldr	r1, [r1, #4]
    4096:	e7c2      	b.n	401e <_malloc_r+0x22>
    4098:	2303      	movs	r3, #3
    409a:	1cc4      	adds	r4, r0, #3
    409c:	439c      	bics	r4, r3
    409e:	42a0      	cmp	r0, r4
    40a0:	d0e0      	beq.n	4064 <_malloc_r+0x68>
    40a2:	1a21      	subs	r1, r4, r0
    40a4:	0030      	movs	r0, r6
    40a6:	f000 f807 	bl	40b8 <_sbrk_r>
    40aa:	1c43      	adds	r3, r0, #1
    40ac:	d1da      	bne.n	4064 <_malloc_r+0x68>
    40ae:	e7c6      	b.n	403e <_malloc_r+0x42>
    40b0:	200002c0 	.word	0x200002c0
    40b4:	200002c4 	.word	0x200002c4

000040b8 <_sbrk_r>:
    40b8:	2300      	movs	r3, #0
    40ba:	b570      	push	{r4, r5, r6, lr}
    40bc:	4c06      	ldr	r4, [pc, #24]	; (40d8 <_sbrk_r+0x20>)
    40be:	0005      	movs	r5, r0
    40c0:	0008      	movs	r0, r1
    40c2:	6023      	str	r3, [r4, #0]
    40c4:	f7fc fe86 	bl	dd4 <_sbrk>
    40c8:	1c43      	adds	r3, r0, #1
    40ca:	d103      	bne.n	40d4 <_sbrk_r+0x1c>
    40cc:	6823      	ldr	r3, [r4, #0]
    40ce:	2b00      	cmp	r3, #0
    40d0:	d000      	beq.n	40d4 <_sbrk_r+0x1c>
    40d2:	602b      	str	r3, [r5, #0]
    40d4:	bd70      	pop	{r4, r5, r6, pc}
    40d6:	46c0      	nop			; (mov r8, r8)
    40d8:	200003a4 	.word	0x200003a4

000040dc <strlen>:
    40dc:	2300      	movs	r3, #0
    40de:	5cc2      	ldrb	r2, [r0, r3]
    40e0:	3301      	adds	r3, #1
    40e2:	2a00      	cmp	r2, #0
    40e4:	d1fb      	bne.n	40de <strlen+0x2>
    40e6:	1e58      	subs	r0, r3, #1
    40e8:	4770      	bx	lr
	...

000040ec <print_e>:
    40ec:	b5f0      	push	{r4, r5, r6, r7, lr}
    40ee:	b08b      	sub	sp, #44	; 0x2c
    40f0:	000e      	movs	r6, r1
    40f2:	a910      	add	r1, sp, #64	; 0x40
    40f4:	c910      	ldmia	r1!, {r4}
    40f6:	780d      	ldrb	r5, [r1, #0]
    40f8:	a908      	add	r1, sp, #32
    40fa:	9104      	str	r1, [sp, #16]
    40fc:	a907      	add	r1, sp, #28
    40fe:	9103      	str	r1, [sp, #12]
    4100:	a909      	add	r1, sp, #36	; 0x24
    4102:	9102      	str	r1, [sp, #8]
    4104:	1c61      	adds	r1, r4, #1
    4106:	9101      	str	r1, [sp, #4]
    4108:	2102      	movs	r1, #2
    410a:	9100      	str	r1, [sp, #0]
    410c:	f000 fcce 	bl	4aac <_dtoa_r>
    4110:	9f09      	ldr	r7, [sp, #36]	; 0x24
    4112:	4b32      	ldr	r3, [pc, #200]	; (41dc <print_e+0xf0>)
    4114:	429f      	cmp	r7, r3
    4116:	d105      	bne.n	4124 <print_e+0x38>
    4118:	0001      	movs	r1, r0
    411a:	0030      	movs	r0, r6
    411c:	f000 fc3a 	bl	4994 <strcpy>
    4120:	b00b      	add	sp, #44	; 0x2c
    4122:	bdf0      	pop	{r4, r5, r6, r7, pc}
    4124:	7803      	ldrb	r3, [r0, #0]
    4126:	9a12      	ldr	r2, [sp, #72]	; 0x48
    4128:	1c41      	adds	r1, r0, #1
    412a:	7033      	strb	r3, [r6, #0]
    412c:	4322      	orrs	r2, r4
    412e:	d109      	bne.n	4144 <print_e+0x58>
    4130:	0014      	movs	r4, r2
    4132:	1c73      	adds	r3, r6, #1
    4134:	7808      	ldrb	r0, [r1, #0]
    4136:	001a      	movs	r2, r3
    4138:	2800      	cmp	r0, #0
    413a:	d107      	bne.n	414c <print_e+0x60>
    413c:	2d67      	cmp	r5, #103	; 0x67
    413e:	d10c      	bne.n	415a <print_e+0x6e>
    4140:	2565      	movs	r5, #101	; 0x65
    4142:	e014      	b.n	416e <print_e+0x82>
    4144:	222e      	movs	r2, #46	; 0x2e
    4146:	1cb3      	adds	r3, r6, #2
    4148:	7072      	strb	r2, [r6, #1]
    414a:	e7f3      	b.n	4134 <print_e+0x48>
    414c:	2c00      	cmp	r4, #0
    414e:	ddf5      	ble.n	413c <print_e+0x50>
    4150:	7018      	strb	r0, [r3, #0]
    4152:	3101      	adds	r1, #1
    4154:	3c01      	subs	r4, #1
    4156:	3301      	adds	r3, #1
    4158:	e7ec      	b.n	4134 <print_e+0x48>
    415a:	2d47      	cmp	r5, #71	; 0x47
    415c:	d039      	beq.n	41d2 <print_e+0xe6>
    415e:	0021      	movs	r1, r4
    4160:	2030      	movs	r0, #48	; 0x30
    4162:	2900      	cmp	r1, #0
    4164:	dc31      	bgt.n	41ca <print_e+0xde>
    4166:	43e3      	mvns	r3, r4
    4168:	17db      	asrs	r3, r3, #31
    416a:	401c      	ands	r4, r3
    416c:	1912      	adds	r2, r2, r4
    416e:	7015      	strb	r5, [r2, #0]
    4170:	1e7b      	subs	r3, r7, #1
    4172:	1c95      	adds	r5, r2, #2
    4174:	9309      	str	r3, [sp, #36]	; 0x24
    4176:	002c      	movs	r4, r5
    4178:	2b00      	cmp	r3, #0
    417a:	da2c      	bge.n	41d6 <print_e+0xea>
    417c:	232d      	movs	r3, #45	; 0x2d
    417e:	7053      	strb	r3, [r2, #1]
    4180:	3b2c      	subs	r3, #44	; 0x2c
    4182:	1bdf      	subs	r7, r3, r7
    4184:	9709      	str	r7, [sp, #36]	; 0x24
    4186:	9e09      	ldr	r6, [sp, #36]	; 0x24
    4188:	2e63      	cmp	r6, #99	; 0x63
    418a:	dd0c      	ble.n	41a6 <print_e+0xba>
    418c:	2164      	movs	r1, #100	; 0x64
    418e:	0030      	movs	r0, r6
    4190:	f7fd f827 	bl	11e2 <__aeabi_idiv>
    4194:	0003      	movs	r3, r0
    4196:	3330      	adds	r3, #48	; 0x30
    4198:	702b      	strb	r3, [r5, #0]
    419a:	2364      	movs	r3, #100	; 0x64
    419c:	425b      	negs	r3, r3
    419e:	4358      	muls	r0, r3
    41a0:	1980      	adds	r0, r0, r6
    41a2:	9009      	str	r0, [sp, #36]	; 0x24
    41a4:	1c6c      	adds	r4, r5, #1
    41a6:	9d09      	ldr	r5, [sp, #36]	; 0x24
    41a8:	210a      	movs	r1, #10
    41aa:	0028      	movs	r0, r5
    41ac:	f7fd f819 	bl	11e2 <__aeabi_idiv>
    41b0:	0003      	movs	r3, r0
    41b2:	0002      	movs	r2, r0
    41b4:	200a      	movs	r0, #10
    41b6:	4240      	negs	r0, r0
    41b8:	4358      	muls	r0, r3
    41ba:	2300      	movs	r3, #0
    41bc:	1940      	adds	r0, r0, r5
    41be:	3230      	adds	r2, #48	; 0x30
    41c0:	3030      	adds	r0, #48	; 0x30
    41c2:	7022      	strb	r2, [r4, #0]
    41c4:	7060      	strb	r0, [r4, #1]
    41c6:	70a3      	strb	r3, [r4, #2]
    41c8:	e7aa      	b.n	4120 <print_e+0x34>
    41ca:	7018      	strb	r0, [r3, #0]
    41cc:	3901      	subs	r1, #1
    41ce:	3301      	adds	r3, #1
    41d0:	e7c7      	b.n	4162 <print_e+0x76>
    41d2:	2545      	movs	r5, #69	; 0x45
    41d4:	e7cb      	b.n	416e <print_e+0x82>
    41d6:	232b      	movs	r3, #43	; 0x2b
    41d8:	7053      	strb	r3, [r2, #1]
    41da:	e7d4      	b.n	4186 <print_e+0x9a>
    41dc:	0000270f 	.word	0x0000270f

000041e0 <_gcvt>:
    41e0:	b5f0      	push	{r4, r5, r6, r7, lr}
    41e2:	0015      	movs	r5, r2
    41e4:	001c      	movs	r4, r3
    41e6:	b08d      	sub	sp, #52	; 0x34
    41e8:	ab14      	add	r3, sp, #80	; 0x50
    41ea:	781b      	ldrb	r3, [r3, #0]
    41ec:	0006      	movs	r6, r0
    41ee:	9307      	str	r3, [sp, #28]
    41f0:	2200      	movs	r2, #0
    41f2:	2300      	movs	r3, #0
    41f4:	0028      	movs	r0, r5
    41f6:	0021      	movs	r1, r4
    41f8:	9f13      	ldr	r7, [sp, #76]	; 0x4c
    41fa:	f7ff fc71 	bl	3ae0 <__aeabi_dcmplt>
    41fe:	2800      	cmp	r0, #0
    4200:	d002      	beq.n	4208 <_gcvt+0x28>
    4202:	2380      	movs	r3, #128	; 0x80
    4204:	061b      	lsls	r3, r3, #24
    4206:	18e4      	adds	r4, r4, r3
    4208:	2200      	movs	r2, #0
    420a:	2300      	movs	r3, #0
    420c:	0028      	movs	r0, r5
    420e:	0021      	movs	r1, r4
    4210:	f7ff fc60 	bl	3ad4 <__aeabi_dcmpeq>
    4214:	2800      	cmp	r0, #0
    4216:	d006      	beq.n	4226 <_gcvt+0x46>
    4218:	2330      	movs	r3, #48	; 0x30
    421a:	703b      	strb	r3, [r7, #0]
    421c:	2300      	movs	r3, #0
    421e:	707b      	strb	r3, [r7, #1]
    4220:	0038      	movs	r0, r7
    4222:	b00d      	add	sp, #52	; 0x34
    4224:	bdf0      	pop	{r4, r5, r6, r7, pc}
    4226:	4a51      	ldr	r2, [pc, #324]	; (436c <_gcvt+0x18c>)
    4228:	4b51      	ldr	r3, [pc, #324]	; (4370 <_gcvt+0x190>)
    422a:	0028      	movs	r0, r5
    422c:	0021      	movs	r1, r4
    422e:	f7ff fc61 	bl	3af4 <__aeabi_dcmple>
    4232:	2800      	cmp	r0, #0
    4234:	d00d      	beq.n	4252 <_gcvt+0x72>
    4236:	9b15      	ldr	r3, [sp, #84]	; 0x54
    4238:	002a      	movs	r2, r5
    423a:	9302      	str	r3, [sp, #8]
    423c:	9b07      	ldr	r3, [sp, #28]
    423e:	0039      	movs	r1, r7
    4240:	9301      	str	r3, [sp, #4]
    4242:	9b12      	ldr	r3, [sp, #72]	; 0x48
    4244:	0030      	movs	r0, r6
    4246:	3b01      	subs	r3, #1
    4248:	9300      	str	r3, [sp, #0]
    424a:	0023      	movs	r3, r4
    424c:	f7ff ff4e 	bl	40ec <print_e>
    4250:	e7e6      	b.n	4220 <_gcvt+0x40>
    4252:	9812      	ldr	r0, [sp, #72]	; 0x48
    4254:	f000 fb76 	bl	4944 <_mprec_log10>
    4258:	0002      	movs	r2, r0
    425a:	000b      	movs	r3, r1
    425c:	0028      	movs	r0, r5
    425e:	0021      	movs	r1, r4
    4260:	f7ff fc5c 	bl	3b1c <__aeabi_dcmpge>
    4264:	2800      	cmp	r0, #0
    4266:	d1e6      	bne.n	4236 <_gcvt+0x56>
    4268:	2200      	movs	r2, #0
    426a:	4b42      	ldr	r3, [pc, #264]	; (4374 <_gcvt+0x194>)
    426c:	0028      	movs	r0, r5
    426e:	0021      	movs	r1, r4
    4270:	f7ff fc36 	bl	3ae0 <__aeabi_dcmplt>
    4274:	ab0a      	add	r3, sp, #40	; 0x28
    4276:	9303      	str	r3, [sp, #12]
    4278:	ab09      	add	r3, sp, #36	; 0x24
    427a:	9302      	str	r3, [sp, #8]
    427c:	9b12      	ldr	r3, [sp, #72]	; 0x48
    427e:	aa0b      	add	r2, sp, #44	; 0x2c
    4280:	9301      	str	r3, [sp, #4]
    4282:	9204      	str	r2, [sp, #16]
    4284:	2303      	movs	r3, #3
    4286:	2800      	cmp	r0, #0
    4288:	d100      	bne.n	428c <_gcvt+0xac>
    428a:	2302      	movs	r3, #2
    428c:	9300      	str	r3, [sp, #0]
    428e:	002a      	movs	r2, r5
    4290:	0023      	movs	r3, r4
    4292:	0030      	movs	r0, r6
    4294:	f000 fc0a 	bl	4aac <_dtoa_r>
    4298:	4b37      	ldr	r3, [pc, #220]	; (4378 <_gcvt+0x198>)
    429a:	9a09      	ldr	r2, [sp, #36]	; 0x24
    429c:	429a      	cmp	r2, r3
    429e:	d013      	beq.n	42c8 <_gcvt+0xe8>
    42a0:	003a      	movs	r2, r7
    42a2:	9b12      	ldr	r3, [sp, #72]	; 0x48
    42a4:	7804      	ldrb	r4, [r0, #0]
    42a6:	1a9b      	subs	r3, r3, r2
    42a8:	0011      	movs	r1, r2
    42aa:	18fb      	adds	r3, r7, r3
    42ac:	9d09      	ldr	r5, [sp, #36]	; 0x24
    42ae:	2c00      	cmp	r4, #0
    42b0:	d115      	bne.n	42de <_gcvt+0xfe>
    42b2:	2101      	movs	r1, #1
    42b4:	468c      	mov	ip, r1
    42b6:	1aed      	subs	r5, r5, r3
    42b8:	18ee      	adds	r6, r5, r3
    42ba:	0011      	movs	r1, r2
    42bc:	2e00      	cmp	r6, #0
    42be:	dc3b      	bgt.n	4338 <_gcvt+0x158>
    42c0:	2c00      	cmp	r4, #0
    42c2:	d00e      	beq.n	42e2 <_gcvt+0x102>
    42c4:	9609      	str	r6, [sp, #36]	; 0x24
    42c6:	e00c      	b.n	42e2 <_gcvt+0x102>
    42c8:	0001      	movs	r1, r0
    42ca:	0038      	movs	r0, r7
    42cc:	f000 fb62 	bl	4994 <strcpy>
    42d0:	e7a6      	b.n	4220 <_gcvt+0x40>
    42d2:	3d01      	subs	r5, #1
    42d4:	7014      	strb	r4, [r2, #0]
    42d6:	3001      	adds	r0, #1
    42d8:	9509      	str	r5, [sp, #36]	; 0x24
    42da:	3201      	adds	r2, #1
    42dc:	e7e1      	b.n	42a2 <_gcvt+0xc2>
    42de:	2d00      	cmp	r5, #0
    42e0:	dcf7      	bgt.n	42d2 <_gcvt+0xf2>
    42e2:	9c15      	ldr	r4, [sp, #84]	; 0x54
    42e4:	2c00      	cmp	r4, #0
    42e6:	d102      	bne.n	42ee <_gcvt+0x10e>
    42e8:	7804      	ldrb	r4, [r0, #0]
    42ea:	2c00      	cmp	r4, #0
    42ec:	d021      	beq.n	4332 <_gcvt+0x152>
    42ee:	4297      	cmp	r7, r2
    42f0:	d102      	bne.n	42f8 <_gcvt+0x118>
    42f2:	2230      	movs	r2, #48	; 0x30
    42f4:	1c79      	adds	r1, r7, #1
    42f6:	703a      	strb	r2, [r7, #0]
    42f8:	222e      	movs	r2, #46	; 0x2e
    42fa:	2530      	movs	r5, #48	; 0x30
    42fc:	700a      	strb	r2, [r1, #0]
    42fe:	2601      	movs	r6, #1
    4300:	1c4a      	adds	r2, r1, #1
    4302:	2100      	movs	r1, #0
    4304:	9c09      	ldr	r4, [sp, #36]	; 0x24
    4306:	2c00      	cmp	r4, #0
    4308:	db1e      	blt.n	4348 <_gcvt+0x168>
    430a:	2900      	cmp	r1, #0
    430c:	d000      	beq.n	4310 <_gcvt+0x130>
    430e:	9409      	str	r4, [sp, #36]	; 0x24
    4310:	7804      	ldrb	r4, [r0, #0]
    4312:	0011      	movs	r1, r2
    4314:	2c00      	cmp	r4, #0
    4316:	d001      	beq.n	431c <_gcvt+0x13c>
    4318:	2b00      	cmp	r3, #0
    431a:	dc1d      	bgt.n	4358 <_gcvt+0x178>
    431c:	9815      	ldr	r0, [sp, #84]	; 0x54
    431e:	2800      	cmp	r0, #0
    4320:	d007      	beq.n	4332 <_gcvt+0x152>
    4322:	0018      	movs	r0, r3
    4324:	2430      	movs	r4, #48	; 0x30
    4326:	2800      	cmp	r0, #0
    4328:	dc1b      	bgt.n	4362 <_gcvt+0x182>
    432a:	43da      	mvns	r2, r3
    432c:	17d2      	asrs	r2, r2, #31
    432e:	4013      	ands	r3, r2
    4330:	18c9      	adds	r1, r1, r3
    4332:	2300      	movs	r3, #0
    4334:	700b      	strb	r3, [r1, #0]
    4336:	e773      	b.n	4220 <_gcvt+0x40>
    4338:	2b00      	cmp	r3, #0
    433a:	ddc1      	ble.n	42c0 <_gcvt+0xe0>
    433c:	2130      	movs	r1, #48	; 0x30
    433e:	3b01      	subs	r3, #1
    4340:	7011      	strb	r1, [r2, #0]
    4342:	4664      	mov	r4, ip
    4344:	3201      	adds	r2, #1
    4346:	e7b7      	b.n	42b8 <_gcvt+0xd8>
    4348:	2b00      	cmp	r3, #0
    434a:	ddde      	ble.n	430a <_gcvt+0x12a>
    434c:	7015      	strb	r5, [r2, #0]
    434e:	3401      	adds	r4, #1
    4350:	3b01      	subs	r3, #1
    4352:	3201      	adds	r2, #1
    4354:	0031      	movs	r1, r6
    4356:	e7d6      	b.n	4306 <_gcvt+0x126>
    4358:	7014      	strb	r4, [r2, #0]
    435a:	3001      	adds	r0, #1
    435c:	3b01      	subs	r3, #1
    435e:	3201      	adds	r2, #1
    4360:	e7d6      	b.n	4310 <_gcvt+0x130>
    4362:	7014      	strb	r4, [r2, #0]
    4364:	3801      	subs	r0, #1
    4366:	3201      	adds	r2, #1
    4368:	e7dd      	b.n	4326 <_gcvt+0x146>
    436a:	46c0      	nop			; (mov r8, r8)
    436c:	eb1c432d 	.word	0xeb1c432d
    4370:	3f1a36e2 	.word	0x3f1a36e2
    4374:	3ff00000 	.word	0x3ff00000
    4378:	0000270f 	.word	0x0000270f

0000437c <__malloc_lock>:
    437c:	4770      	bx	lr

0000437e <__malloc_unlock>:
    437e:	4770      	bx	lr

00004380 <_Balloc>:
    4380:	b570      	push	{r4, r5, r6, lr}
    4382:	6a46      	ldr	r6, [r0, #36]	; 0x24
    4384:	0004      	movs	r4, r0
    4386:	000d      	movs	r5, r1
    4388:	2e00      	cmp	r6, #0
    438a:	d107      	bne.n	439c <_Balloc+0x1c>
    438c:	2010      	movs	r0, #16
    438e:	f7ff fe19 	bl	3fc4 <malloc>
    4392:	6260      	str	r0, [r4, #36]	; 0x24
    4394:	6046      	str	r6, [r0, #4]
    4396:	6086      	str	r6, [r0, #8]
    4398:	6006      	str	r6, [r0, #0]
    439a:	60c6      	str	r6, [r0, #12]
    439c:	6a66      	ldr	r6, [r4, #36]	; 0x24
    439e:	68f3      	ldr	r3, [r6, #12]
    43a0:	2b00      	cmp	r3, #0
    43a2:	d013      	beq.n	43cc <_Balloc+0x4c>
    43a4:	6a63      	ldr	r3, [r4, #36]	; 0x24
    43a6:	00aa      	lsls	r2, r5, #2
    43a8:	68db      	ldr	r3, [r3, #12]
    43aa:	189b      	adds	r3, r3, r2
    43ac:	6818      	ldr	r0, [r3, #0]
    43ae:	2800      	cmp	r0, #0
    43b0:	d118      	bne.n	43e4 <_Balloc+0x64>
    43b2:	2101      	movs	r1, #1
    43b4:	000e      	movs	r6, r1
    43b6:	40ae      	lsls	r6, r5
    43b8:	1d72      	adds	r2, r6, #5
    43ba:	0092      	lsls	r2, r2, #2
    43bc:	0020      	movs	r0, r4
    43be:	f000 fadb 	bl	4978 <_calloc_r>
    43c2:	2800      	cmp	r0, #0
    43c4:	d00c      	beq.n	43e0 <_Balloc+0x60>
    43c6:	6045      	str	r5, [r0, #4]
    43c8:	6086      	str	r6, [r0, #8]
    43ca:	e00d      	b.n	43e8 <_Balloc+0x68>
    43cc:	2221      	movs	r2, #33	; 0x21
    43ce:	2104      	movs	r1, #4
    43d0:	0020      	movs	r0, r4
    43d2:	f000 fad1 	bl	4978 <_calloc_r>
    43d6:	6a63      	ldr	r3, [r4, #36]	; 0x24
    43d8:	60f0      	str	r0, [r6, #12]
    43da:	68db      	ldr	r3, [r3, #12]
    43dc:	2b00      	cmp	r3, #0
    43de:	d1e1      	bne.n	43a4 <_Balloc+0x24>
    43e0:	2000      	movs	r0, #0
    43e2:	bd70      	pop	{r4, r5, r6, pc}
    43e4:	6802      	ldr	r2, [r0, #0]
    43e6:	601a      	str	r2, [r3, #0]
    43e8:	2300      	movs	r3, #0
    43ea:	6103      	str	r3, [r0, #16]
    43ec:	60c3      	str	r3, [r0, #12]
    43ee:	e7f8      	b.n	43e2 <_Balloc+0x62>

000043f0 <_Bfree>:
    43f0:	b570      	push	{r4, r5, r6, lr}
    43f2:	6a44      	ldr	r4, [r0, #36]	; 0x24
    43f4:	0006      	movs	r6, r0
    43f6:	000d      	movs	r5, r1
    43f8:	2c00      	cmp	r4, #0
    43fa:	d107      	bne.n	440c <_Bfree+0x1c>
    43fc:	2010      	movs	r0, #16
    43fe:	f7ff fde1 	bl	3fc4 <malloc>
    4402:	6270      	str	r0, [r6, #36]	; 0x24
    4404:	6044      	str	r4, [r0, #4]
    4406:	6084      	str	r4, [r0, #8]
    4408:	6004      	str	r4, [r0, #0]
    440a:	60c4      	str	r4, [r0, #12]
    440c:	2d00      	cmp	r5, #0
    440e:	d007      	beq.n	4420 <_Bfree+0x30>
    4410:	6a73      	ldr	r3, [r6, #36]	; 0x24
    4412:	686a      	ldr	r2, [r5, #4]
    4414:	68db      	ldr	r3, [r3, #12]
    4416:	0092      	lsls	r2, r2, #2
    4418:	189b      	adds	r3, r3, r2
    441a:	681a      	ldr	r2, [r3, #0]
    441c:	602a      	str	r2, [r5, #0]
    441e:	601d      	str	r5, [r3, #0]
    4420:	bd70      	pop	{r4, r5, r6, pc}

00004422 <__multadd>:
    4422:	b5f7      	push	{r0, r1, r2, r4, r5, r6, r7, lr}
    4424:	001e      	movs	r6, r3
    4426:	2314      	movs	r3, #20
    4428:	469c      	mov	ip, r3
    442a:	0007      	movs	r7, r0
    442c:	000c      	movs	r4, r1
    442e:	2000      	movs	r0, #0
    4430:	690d      	ldr	r5, [r1, #16]
    4432:	448c      	add	ip, r1
    4434:	4663      	mov	r3, ip
    4436:	8819      	ldrh	r1, [r3, #0]
    4438:	681b      	ldr	r3, [r3, #0]
    443a:	4351      	muls	r1, r2
    443c:	0c1b      	lsrs	r3, r3, #16
    443e:	4353      	muls	r3, r2
    4440:	1989      	adds	r1, r1, r6
    4442:	0c0e      	lsrs	r6, r1, #16
    4444:	199b      	adds	r3, r3, r6
    4446:	b289      	uxth	r1, r1
    4448:	0c1e      	lsrs	r6, r3, #16
    444a:	041b      	lsls	r3, r3, #16
    444c:	185b      	adds	r3, r3, r1
    444e:	4661      	mov	r1, ip
    4450:	3001      	adds	r0, #1
    4452:	c108      	stmia	r1!, {r3}
    4454:	468c      	mov	ip, r1
    4456:	4285      	cmp	r5, r0
    4458:	dcec      	bgt.n	4434 <__multadd+0x12>
    445a:	2e00      	cmp	r6, #0
    445c:	d01b      	beq.n	4496 <__multadd+0x74>
    445e:	68a3      	ldr	r3, [r4, #8]
    4460:	429d      	cmp	r5, r3
    4462:	db12      	blt.n	448a <__multadd+0x68>
    4464:	6863      	ldr	r3, [r4, #4]
    4466:	0038      	movs	r0, r7
    4468:	1c59      	adds	r1, r3, #1
    446a:	f7ff ff89 	bl	4380 <_Balloc>
    446e:	0021      	movs	r1, r4
    4470:	6923      	ldr	r3, [r4, #16]
    4472:	9001      	str	r0, [sp, #4]
    4474:	1c9a      	adds	r2, r3, #2
    4476:	0092      	lsls	r2, r2, #2
    4478:	310c      	adds	r1, #12
    447a:	300c      	adds	r0, #12
    447c:	f7ff fdac 	bl	3fd8 <memcpy>
    4480:	0021      	movs	r1, r4
    4482:	0038      	movs	r0, r7
    4484:	f7ff ffb4 	bl	43f0 <_Bfree>
    4488:	9c01      	ldr	r4, [sp, #4]
    448a:	1d2b      	adds	r3, r5, #4
    448c:	009b      	lsls	r3, r3, #2
    448e:	18e3      	adds	r3, r4, r3
    4490:	3501      	adds	r5, #1
    4492:	605e      	str	r6, [r3, #4]
    4494:	6125      	str	r5, [r4, #16]
    4496:	0020      	movs	r0, r4
    4498:	bdfe      	pop	{r1, r2, r3, r4, r5, r6, r7, pc}

0000449a <__hi0bits>:
    449a:	0003      	movs	r3, r0
    449c:	0c02      	lsrs	r2, r0, #16
    449e:	2000      	movs	r0, #0
    44a0:	4282      	cmp	r2, r0
    44a2:	d101      	bne.n	44a8 <__hi0bits+0xe>
    44a4:	041b      	lsls	r3, r3, #16
    44a6:	3010      	adds	r0, #16
    44a8:	0e1a      	lsrs	r2, r3, #24
    44aa:	d101      	bne.n	44b0 <__hi0bits+0x16>
    44ac:	3008      	adds	r0, #8
    44ae:	021b      	lsls	r3, r3, #8
    44b0:	0f1a      	lsrs	r2, r3, #28
    44b2:	d101      	bne.n	44b8 <__hi0bits+0x1e>
    44b4:	3004      	adds	r0, #4
    44b6:	011b      	lsls	r3, r3, #4
    44b8:	0f9a      	lsrs	r2, r3, #30
    44ba:	d101      	bne.n	44c0 <__hi0bits+0x26>
    44bc:	3002      	adds	r0, #2
    44be:	009b      	lsls	r3, r3, #2
    44c0:	2b00      	cmp	r3, #0
    44c2:	db03      	blt.n	44cc <__hi0bits+0x32>
    44c4:	3001      	adds	r0, #1
    44c6:	005b      	lsls	r3, r3, #1
    44c8:	d400      	bmi.n	44cc <__hi0bits+0x32>
    44ca:	2020      	movs	r0, #32
    44cc:	4770      	bx	lr

000044ce <__lo0bits>:
    44ce:	2207      	movs	r2, #7
    44d0:	6803      	ldr	r3, [r0, #0]
    44d2:	b510      	push	{r4, lr}
    44d4:	0001      	movs	r1, r0
    44d6:	401a      	ands	r2, r3
    44d8:	d00d      	beq.n	44f6 <__lo0bits+0x28>
    44da:	2401      	movs	r4, #1
    44dc:	2000      	movs	r0, #0
    44de:	4223      	tst	r3, r4
    44e0:	d105      	bne.n	44ee <__lo0bits+0x20>
    44e2:	3002      	adds	r0, #2
    44e4:	4203      	tst	r3, r0
    44e6:	d003      	beq.n	44f0 <__lo0bits+0x22>
    44e8:	40e3      	lsrs	r3, r4
    44ea:	0020      	movs	r0, r4
    44ec:	600b      	str	r3, [r1, #0]
    44ee:	bd10      	pop	{r4, pc}
    44f0:	089b      	lsrs	r3, r3, #2
    44f2:	600b      	str	r3, [r1, #0]
    44f4:	e7fb      	b.n	44ee <__lo0bits+0x20>
    44f6:	b29c      	uxth	r4, r3
    44f8:	0010      	movs	r0, r2
    44fa:	2c00      	cmp	r4, #0
    44fc:	d101      	bne.n	4502 <__lo0bits+0x34>
    44fe:	2010      	movs	r0, #16
    4500:	0c1b      	lsrs	r3, r3, #16
    4502:	b2da      	uxtb	r2, r3
    4504:	2a00      	cmp	r2, #0
    4506:	d101      	bne.n	450c <__lo0bits+0x3e>
    4508:	3008      	adds	r0, #8
    450a:	0a1b      	lsrs	r3, r3, #8
    450c:	071a      	lsls	r2, r3, #28
    450e:	d101      	bne.n	4514 <__lo0bits+0x46>
    4510:	3004      	adds	r0, #4
    4512:	091b      	lsrs	r3, r3, #4
    4514:	079a      	lsls	r2, r3, #30
    4516:	d101      	bne.n	451c <__lo0bits+0x4e>
    4518:	3002      	adds	r0, #2
    451a:	089b      	lsrs	r3, r3, #2
    451c:	07da      	lsls	r2, r3, #31
    451e:	d4e8      	bmi.n	44f2 <__lo0bits+0x24>
    4520:	085b      	lsrs	r3, r3, #1
    4522:	d001      	beq.n	4528 <__lo0bits+0x5a>
    4524:	3001      	adds	r0, #1
    4526:	e7e4      	b.n	44f2 <__lo0bits+0x24>
    4528:	2020      	movs	r0, #32
    452a:	e7e0      	b.n	44ee <__lo0bits+0x20>

0000452c <__i2b>:
    452c:	b510      	push	{r4, lr}
    452e:	000c      	movs	r4, r1
    4530:	2101      	movs	r1, #1
    4532:	f7ff ff25 	bl	4380 <_Balloc>
    4536:	2301      	movs	r3, #1
    4538:	6144      	str	r4, [r0, #20]
    453a:	6103      	str	r3, [r0, #16]
    453c:	bd10      	pop	{r4, pc}

0000453e <__multiply>:
    453e:	b5f0      	push	{r4, r5, r6, r7, lr}
    4540:	690b      	ldr	r3, [r1, #16]
    4542:	0015      	movs	r5, r2
    4544:	6912      	ldr	r2, [r2, #16]
    4546:	b089      	sub	sp, #36	; 0x24
    4548:	000c      	movs	r4, r1
    454a:	4293      	cmp	r3, r2
    454c:	da01      	bge.n	4552 <__multiply+0x14>
    454e:	002c      	movs	r4, r5
    4550:	000d      	movs	r5, r1
    4552:	6927      	ldr	r7, [r4, #16]
    4554:	692e      	ldr	r6, [r5, #16]
    4556:	68a2      	ldr	r2, [r4, #8]
    4558:	19bb      	adds	r3, r7, r6
    455a:	6861      	ldr	r1, [r4, #4]
    455c:	9301      	str	r3, [sp, #4]
    455e:	4293      	cmp	r3, r2
    4560:	dd00      	ble.n	4564 <__multiply+0x26>
    4562:	3101      	adds	r1, #1
    4564:	f7ff ff0c 	bl	4380 <_Balloc>
    4568:	0003      	movs	r3, r0
    456a:	3314      	adds	r3, #20
    456c:	9300      	str	r3, [sp, #0]
    456e:	9a00      	ldr	r2, [sp, #0]
    4570:	19bb      	adds	r3, r7, r6
    4572:	4694      	mov	ip, r2
    4574:	009b      	lsls	r3, r3, #2
    4576:	449c      	add	ip, r3
    4578:	0013      	movs	r3, r2
    457a:	2200      	movs	r2, #0
    457c:	9004      	str	r0, [sp, #16]
    457e:	4563      	cmp	r3, ip
    4580:	d31c      	bcc.n	45bc <__multiply+0x7e>
    4582:	002a      	movs	r2, r5
    4584:	3414      	adds	r4, #20
    4586:	00bf      	lsls	r7, r7, #2
    4588:	19e3      	adds	r3, r4, r7
    458a:	3214      	adds	r2, #20
    458c:	00b6      	lsls	r6, r6, #2
    458e:	9305      	str	r3, [sp, #20]
    4590:	1993      	adds	r3, r2, r6
    4592:	9402      	str	r4, [sp, #8]
    4594:	9306      	str	r3, [sp, #24]
    4596:	9b06      	ldr	r3, [sp, #24]
    4598:	429a      	cmp	r2, r3
    459a:	d311      	bcc.n	45c0 <__multiply+0x82>
    459c:	9b01      	ldr	r3, [sp, #4]
    459e:	2b00      	cmp	r3, #0
    45a0:	dd06      	ble.n	45b0 <__multiply+0x72>
    45a2:	2304      	movs	r3, #4
    45a4:	425b      	negs	r3, r3
    45a6:	449c      	add	ip, r3
    45a8:	4663      	mov	r3, ip
    45aa:	681b      	ldr	r3, [r3, #0]
    45ac:	2b00      	cmp	r3, #0
    45ae:	d051      	beq.n	4654 <__multiply+0x116>
    45b0:	9b04      	ldr	r3, [sp, #16]
    45b2:	9a01      	ldr	r2, [sp, #4]
    45b4:	0018      	movs	r0, r3
    45b6:	611a      	str	r2, [r3, #16]
    45b8:	b009      	add	sp, #36	; 0x24
    45ba:	bdf0      	pop	{r4, r5, r6, r7, pc}
    45bc:	c304      	stmia	r3!, {r2}
    45be:	e7de      	b.n	457e <__multiply+0x40>
    45c0:	8814      	ldrh	r4, [r2, #0]
    45c2:	2c00      	cmp	r4, #0
    45c4:	d01e      	beq.n	4604 <__multiply+0xc6>
    45c6:	2600      	movs	r6, #0
    45c8:	9d00      	ldr	r5, [sp, #0]
    45ca:	9f02      	ldr	r7, [sp, #8]
    45cc:	cf01      	ldmia	r7!, {r0}
    45ce:	9507      	str	r5, [sp, #28]
    45d0:	cd08      	ldmia	r5!, {r3}
    45d2:	9303      	str	r3, [sp, #12]
    45d4:	b283      	uxth	r3, r0
    45d6:	4363      	muls	r3, r4
    45d8:	0019      	movs	r1, r3
    45da:	466b      	mov	r3, sp
    45dc:	0c00      	lsrs	r0, r0, #16
    45de:	899b      	ldrh	r3, [r3, #12]
    45e0:	4360      	muls	r0, r4
    45e2:	18cb      	adds	r3, r1, r3
    45e4:	9903      	ldr	r1, [sp, #12]
    45e6:	199b      	adds	r3, r3, r6
    45e8:	0c09      	lsrs	r1, r1, #16
    45ea:	1841      	adds	r1, r0, r1
    45ec:	0c18      	lsrs	r0, r3, #16
    45ee:	1809      	adds	r1, r1, r0
    45f0:	0c0e      	lsrs	r6, r1, #16
    45f2:	b29b      	uxth	r3, r3
    45f4:	0409      	lsls	r1, r1, #16
    45f6:	430b      	orrs	r3, r1
    45f8:	9907      	ldr	r1, [sp, #28]
    45fa:	600b      	str	r3, [r1, #0]
    45fc:	9b05      	ldr	r3, [sp, #20]
    45fe:	42bb      	cmp	r3, r7
    4600:	d8e4      	bhi.n	45cc <__multiply+0x8e>
    4602:	602e      	str	r6, [r5, #0]
    4604:	6813      	ldr	r3, [r2, #0]
    4606:	0c1b      	lsrs	r3, r3, #16
    4608:	9303      	str	r3, [sp, #12]
    460a:	d01e      	beq.n	464a <__multiply+0x10c>
    460c:	2600      	movs	r6, #0
    460e:	9b00      	ldr	r3, [sp, #0]
    4610:	9c02      	ldr	r4, [sp, #8]
    4612:	681b      	ldr	r3, [r3, #0]
    4614:	9800      	ldr	r0, [sp, #0]
    4616:	0007      	movs	r7, r0
    4618:	8821      	ldrh	r1, [r4, #0]
    461a:	9d03      	ldr	r5, [sp, #12]
    461c:	b29b      	uxth	r3, r3
    461e:	4369      	muls	r1, r5
    4620:	c820      	ldmia	r0!, {r5}
    4622:	0c2d      	lsrs	r5, r5, #16
    4624:	1949      	adds	r1, r1, r5
    4626:	198e      	adds	r6, r1, r6
    4628:	0431      	lsls	r1, r6, #16
    462a:	430b      	orrs	r3, r1
    462c:	603b      	str	r3, [r7, #0]
    462e:	cc08      	ldmia	r4!, {r3}
    4630:	9903      	ldr	r1, [sp, #12]
    4632:	0c1b      	lsrs	r3, r3, #16
    4634:	434b      	muls	r3, r1
    4636:	6879      	ldr	r1, [r7, #4]
    4638:	0c36      	lsrs	r6, r6, #16
    463a:	b289      	uxth	r1, r1
    463c:	185b      	adds	r3, r3, r1
    463e:	9905      	ldr	r1, [sp, #20]
    4640:	199b      	adds	r3, r3, r6
    4642:	0c1e      	lsrs	r6, r3, #16
    4644:	42a1      	cmp	r1, r4
    4646:	d8e6      	bhi.n	4616 <__multiply+0xd8>
    4648:	6003      	str	r3, [r0, #0]
    464a:	9b00      	ldr	r3, [sp, #0]
    464c:	3204      	adds	r2, #4
    464e:	3304      	adds	r3, #4
    4650:	9300      	str	r3, [sp, #0]
    4652:	e7a0      	b.n	4596 <__multiply+0x58>
    4654:	9b01      	ldr	r3, [sp, #4]
    4656:	3b01      	subs	r3, #1
    4658:	9301      	str	r3, [sp, #4]
    465a:	e79f      	b.n	459c <__multiply+0x5e>

0000465c <__pow5mult>:
    465c:	2303      	movs	r3, #3
    465e:	b5f7      	push	{r0, r1, r2, r4, r5, r6, r7, lr}
    4660:	4013      	ands	r3, r2
    4662:	0005      	movs	r5, r0
    4664:	000e      	movs	r6, r1
    4666:	0014      	movs	r4, r2
    4668:	2b00      	cmp	r3, #0
    466a:	d008      	beq.n	467e <__pow5mult+0x22>
    466c:	4922      	ldr	r1, [pc, #136]	; (46f8 <__pow5mult+0x9c>)
    466e:	3b01      	subs	r3, #1
    4670:	009a      	lsls	r2, r3, #2
    4672:	5852      	ldr	r2, [r2, r1]
    4674:	2300      	movs	r3, #0
    4676:	0031      	movs	r1, r6
    4678:	f7ff fed3 	bl	4422 <__multadd>
    467c:	0006      	movs	r6, r0
    467e:	10a3      	asrs	r3, r4, #2
    4680:	9301      	str	r3, [sp, #4]
    4682:	d036      	beq.n	46f2 <__pow5mult+0x96>
    4684:	6a6c      	ldr	r4, [r5, #36]	; 0x24
    4686:	2c00      	cmp	r4, #0
    4688:	d107      	bne.n	469a <__pow5mult+0x3e>
    468a:	2010      	movs	r0, #16
    468c:	f7ff fc9a 	bl	3fc4 <malloc>
    4690:	6268      	str	r0, [r5, #36]	; 0x24
    4692:	6044      	str	r4, [r0, #4]
    4694:	6084      	str	r4, [r0, #8]
    4696:	6004      	str	r4, [r0, #0]
    4698:	60c4      	str	r4, [r0, #12]
    469a:	6a6f      	ldr	r7, [r5, #36]	; 0x24
    469c:	68bc      	ldr	r4, [r7, #8]
    469e:	2c00      	cmp	r4, #0
    46a0:	d107      	bne.n	46b2 <__pow5mult+0x56>
    46a2:	4916      	ldr	r1, [pc, #88]	; (46fc <__pow5mult+0xa0>)
    46a4:	0028      	movs	r0, r5
    46a6:	f7ff ff41 	bl	452c <__i2b>
    46aa:	2300      	movs	r3, #0
    46ac:	0004      	movs	r4, r0
    46ae:	60b8      	str	r0, [r7, #8]
    46b0:	6003      	str	r3, [r0, #0]
    46b2:	2201      	movs	r2, #1
    46b4:	9b01      	ldr	r3, [sp, #4]
    46b6:	4213      	tst	r3, r2
    46b8:	d00a      	beq.n	46d0 <__pow5mult+0x74>
    46ba:	0031      	movs	r1, r6
    46bc:	0022      	movs	r2, r4
    46be:	0028      	movs	r0, r5
    46c0:	f7ff ff3d 	bl	453e <__multiply>
    46c4:	0007      	movs	r7, r0
    46c6:	0031      	movs	r1, r6
    46c8:	0028      	movs	r0, r5
    46ca:	f7ff fe91 	bl	43f0 <_Bfree>
    46ce:	003e      	movs	r6, r7
    46d0:	9b01      	ldr	r3, [sp, #4]
    46d2:	105b      	asrs	r3, r3, #1
    46d4:	9301      	str	r3, [sp, #4]
    46d6:	d00c      	beq.n	46f2 <__pow5mult+0x96>
    46d8:	6820      	ldr	r0, [r4, #0]
    46da:	2800      	cmp	r0, #0
    46dc:	d107      	bne.n	46ee <__pow5mult+0x92>
    46de:	0022      	movs	r2, r4
    46e0:	0021      	movs	r1, r4
    46e2:	0028      	movs	r0, r5
    46e4:	f7ff ff2b 	bl	453e <__multiply>
    46e8:	2300      	movs	r3, #0
    46ea:	6020      	str	r0, [r4, #0]
    46ec:	6003      	str	r3, [r0, #0]
    46ee:	0004      	movs	r4, r0
    46f0:	e7df      	b.n	46b2 <__pow5mult+0x56>
    46f2:	0030      	movs	r0, r6
    46f4:	bdfe      	pop	{r1, r2, r3, r4, r5, r6, r7, pc}
    46f6:	46c0      	nop			; (mov r8, r8)
    46f8:	00006280 	.word	0x00006280
    46fc:	00000271 	.word	0x00000271

00004700 <__lshift>:
    4700:	b5f0      	push	{r4, r5, r6, r7, lr}
    4702:	000d      	movs	r5, r1
    4704:	0017      	movs	r7, r2
    4706:	692b      	ldr	r3, [r5, #16]
    4708:	1154      	asrs	r4, r2, #5
    470a:	b085      	sub	sp, #20
    470c:	18e3      	adds	r3, r4, r3
    470e:	9302      	str	r3, [sp, #8]
    4710:	3301      	adds	r3, #1
    4712:	9301      	str	r3, [sp, #4]
    4714:	6849      	ldr	r1, [r1, #4]
    4716:	68ab      	ldr	r3, [r5, #8]
    4718:	9003      	str	r0, [sp, #12]
    471a:	9a01      	ldr	r2, [sp, #4]
    471c:	4293      	cmp	r3, r2
    471e:	db34      	blt.n	478a <__lshift+0x8a>
    4720:	9803      	ldr	r0, [sp, #12]
    4722:	f7ff fe2d 	bl	4380 <_Balloc>
    4726:	2300      	movs	r3, #0
    4728:	0002      	movs	r2, r0
    472a:	0006      	movs	r6, r0
    472c:	0019      	movs	r1, r3
    472e:	3214      	adds	r2, #20
    4730:	42a3      	cmp	r3, r4
    4732:	db2d      	blt.n	4790 <__lshift+0x90>
    4734:	43e3      	mvns	r3, r4
    4736:	17db      	asrs	r3, r3, #31
    4738:	401c      	ands	r4, r3
    473a:	002b      	movs	r3, r5
    473c:	211f      	movs	r1, #31
    473e:	00a4      	lsls	r4, r4, #2
    4740:	1914      	adds	r4, r2, r4
    4742:	692a      	ldr	r2, [r5, #16]
    4744:	3314      	adds	r3, #20
    4746:	0092      	lsls	r2, r2, #2
    4748:	189a      	adds	r2, r3, r2
    474a:	400f      	ands	r7, r1
    474c:	d024      	beq.n	4798 <__lshift+0x98>
    474e:	3101      	adds	r1, #1
    4750:	1bc9      	subs	r1, r1, r7
    4752:	468c      	mov	ip, r1
    4754:	2100      	movs	r1, #0
    4756:	6818      	ldr	r0, [r3, #0]
    4758:	40b8      	lsls	r0, r7
    475a:	4301      	orrs	r1, r0
    475c:	4660      	mov	r0, ip
    475e:	6021      	str	r1, [r4, #0]
    4760:	cb02      	ldmia	r3!, {r1}
    4762:	3404      	adds	r4, #4
    4764:	40c1      	lsrs	r1, r0
    4766:	429a      	cmp	r2, r3
    4768:	d8f5      	bhi.n	4756 <__lshift+0x56>
    476a:	6021      	str	r1, [r4, #0]
    476c:	2900      	cmp	r1, #0
    476e:	d002      	beq.n	4776 <__lshift+0x76>
    4770:	9b02      	ldr	r3, [sp, #8]
    4772:	3302      	adds	r3, #2
    4774:	9301      	str	r3, [sp, #4]
    4776:	9b01      	ldr	r3, [sp, #4]
    4778:	9803      	ldr	r0, [sp, #12]
    477a:	3b01      	subs	r3, #1
    477c:	6133      	str	r3, [r6, #16]
    477e:	0029      	movs	r1, r5
    4780:	f7ff fe36 	bl	43f0 <_Bfree>
    4784:	0030      	movs	r0, r6
    4786:	b005      	add	sp, #20
    4788:	bdf0      	pop	{r4, r5, r6, r7, pc}
    478a:	3101      	adds	r1, #1
    478c:	005b      	lsls	r3, r3, #1
    478e:	e7c4      	b.n	471a <__lshift+0x1a>
    4790:	0098      	lsls	r0, r3, #2
    4792:	5011      	str	r1, [r2, r0]
    4794:	3301      	adds	r3, #1
    4796:	e7cb      	b.n	4730 <__lshift+0x30>
    4798:	cb02      	ldmia	r3!, {r1}
    479a:	c402      	stmia	r4!, {r1}
    479c:	429a      	cmp	r2, r3
    479e:	d8fb      	bhi.n	4798 <__lshift+0x98>
    47a0:	e7e9      	b.n	4776 <__lshift+0x76>

000047a2 <__mcmp>:
    47a2:	690a      	ldr	r2, [r1, #16]
    47a4:	6903      	ldr	r3, [r0, #16]
    47a6:	b530      	push	{r4, r5, lr}
    47a8:	1a9b      	subs	r3, r3, r2
    47aa:	d10e      	bne.n	47ca <__mcmp+0x28>
    47ac:	0092      	lsls	r2, r2, #2
    47ae:	3014      	adds	r0, #20
    47b0:	3114      	adds	r1, #20
    47b2:	1884      	adds	r4, r0, r2
    47b4:	1889      	adds	r1, r1, r2
    47b6:	3c04      	subs	r4, #4
    47b8:	3904      	subs	r1, #4
    47ba:	6822      	ldr	r2, [r4, #0]
    47bc:	680d      	ldr	r5, [r1, #0]
    47be:	42aa      	cmp	r2, r5
    47c0:	d005      	beq.n	47ce <__mcmp+0x2c>
    47c2:	42aa      	cmp	r2, r5
    47c4:	4192      	sbcs	r2, r2
    47c6:	2301      	movs	r3, #1
    47c8:	4313      	orrs	r3, r2
    47ca:	0018      	movs	r0, r3
    47cc:	bd30      	pop	{r4, r5, pc}
    47ce:	42a0      	cmp	r0, r4
    47d0:	d3f1      	bcc.n	47b6 <__mcmp+0x14>
    47d2:	e7fa      	b.n	47ca <__mcmp+0x28>

000047d4 <__mdiff>:
    47d4:	b5f0      	push	{r4, r5, r6, r7, lr}
    47d6:	000d      	movs	r5, r1
    47d8:	b085      	sub	sp, #20
    47da:	0007      	movs	r7, r0
    47dc:	0011      	movs	r1, r2
    47de:	0028      	movs	r0, r5
    47e0:	0014      	movs	r4, r2
    47e2:	f7ff ffde 	bl	47a2 <__mcmp>
    47e6:	1e06      	subs	r6, r0, #0
    47e8:	d108      	bne.n	47fc <__mdiff+0x28>
    47ea:	0001      	movs	r1, r0
    47ec:	0038      	movs	r0, r7
    47ee:	f7ff fdc7 	bl	4380 <_Balloc>
    47f2:	2301      	movs	r3, #1
    47f4:	6146      	str	r6, [r0, #20]
    47f6:	6103      	str	r3, [r0, #16]
    47f8:	b005      	add	sp, #20
    47fa:	bdf0      	pop	{r4, r5, r6, r7, pc}
    47fc:	2301      	movs	r3, #1
    47fe:	9301      	str	r3, [sp, #4]
    4800:	2800      	cmp	r0, #0
    4802:	db04      	blt.n	480e <__mdiff+0x3a>
    4804:	0023      	movs	r3, r4
    4806:	002c      	movs	r4, r5
    4808:	001d      	movs	r5, r3
    480a:	2300      	movs	r3, #0
    480c:	9301      	str	r3, [sp, #4]
    480e:	6861      	ldr	r1, [r4, #4]
    4810:	0038      	movs	r0, r7
    4812:	f7ff fdb5 	bl	4380 <_Balloc>
    4816:	002f      	movs	r7, r5
    4818:	2200      	movs	r2, #0
    481a:	9b01      	ldr	r3, [sp, #4]
    481c:	6926      	ldr	r6, [r4, #16]
    481e:	60c3      	str	r3, [r0, #12]
    4820:	3414      	adds	r4, #20
    4822:	00b3      	lsls	r3, r6, #2
    4824:	18e3      	adds	r3, r4, r3
    4826:	9302      	str	r3, [sp, #8]
    4828:	692b      	ldr	r3, [r5, #16]
    482a:	3714      	adds	r7, #20
    482c:	009b      	lsls	r3, r3, #2
    482e:	18fb      	adds	r3, r7, r3
    4830:	9303      	str	r3, [sp, #12]
    4832:	0003      	movs	r3, r0
    4834:	4694      	mov	ip, r2
    4836:	3314      	adds	r3, #20
    4838:	cc20      	ldmia	r4!, {r5}
    483a:	cf04      	ldmia	r7!, {r2}
    483c:	9201      	str	r2, [sp, #4]
    483e:	b2aa      	uxth	r2, r5
    4840:	4494      	add	ip, r2
    4842:	466a      	mov	r2, sp
    4844:	4661      	mov	r1, ip
    4846:	8892      	ldrh	r2, [r2, #4]
    4848:	0c2d      	lsrs	r5, r5, #16
    484a:	1a8a      	subs	r2, r1, r2
    484c:	9901      	ldr	r1, [sp, #4]
    484e:	0c09      	lsrs	r1, r1, #16
    4850:	1a69      	subs	r1, r5, r1
    4852:	1415      	asrs	r5, r2, #16
    4854:	1949      	adds	r1, r1, r5
    4856:	140d      	asrs	r5, r1, #16
    4858:	b292      	uxth	r2, r2
    485a:	0409      	lsls	r1, r1, #16
    485c:	430a      	orrs	r2, r1
    485e:	601a      	str	r2, [r3, #0]
    4860:	9a03      	ldr	r2, [sp, #12]
    4862:	46ac      	mov	ip, r5
    4864:	3304      	adds	r3, #4
    4866:	42ba      	cmp	r2, r7
    4868:	d8e6      	bhi.n	4838 <__mdiff+0x64>
    486a:	9902      	ldr	r1, [sp, #8]
    486c:	001a      	movs	r2, r3
    486e:	428c      	cmp	r4, r1
    4870:	d305      	bcc.n	487e <__mdiff+0xaa>
    4872:	3a04      	subs	r2, #4
    4874:	6813      	ldr	r3, [r2, #0]
    4876:	2b00      	cmp	r3, #0
    4878:	d00e      	beq.n	4898 <__mdiff+0xc4>
    487a:	6106      	str	r6, [r0, #16]
    487c:	e7bc      	b.n	47f8 <__mdiff+0x24>
    487e:	cc04      	ldmia	r4!, {r2}
    4880:	b291      	uxth	r1, r2
    4882:	4461      	add	r1, ip
    4884:	140d      	asrs	r5, r1, #16
    4886:	0c12      	lsrs	r2, r2, #16
    4888:	1952      	adds	r2, r2, r5
    488a:	1415      	asrs	r5, r2, #16
    488c:	b289      	uxth	r1, r1
    488e:	0412      	lsls	r2, r2, #16
    4890:	430a      	orrs	r2, r1
    4892:	46ac      	mov	ip, r5
    4894:	c304      	stmia	r3!, {r2}
    4896:	e7e8      	b.n	486a <__mdiff+0x96>
    4898:	3e01      	subs	r6, #1
    489a:	e7ea      	b.n	4872 <__mdiff+0x9e>

0000489c <__d2b>:
    489c:	b5f7      	push	{r0, r1, r2, r4, r5, r6, r7, lr}
    489e:	001d      	movs	r5, r3
    48a0:	2101      	movs	r1, #1
    48a2:	9f08      	ldr	r7, [sp, #32]
    48a4:	0014      	movs	r4, r2
    48a6:	f7ff fd6b 	bl	4380 <_Balloc>
    48aa:	032b      	lsls	r3, r5, #12
    48ac:	006d      	lsls	r5, r5, #1
    48ae:	0006      	movs	r6, r0
    48b0:	0b1b      	lsrs	r3, r3, #12
    48b2:	0d6d      	lsrs	r5, r5, #21
    48b4:	d124      	bne.n	4900 <__d2b+0x64>
    48b6:	9301      	str	r3, [sp, #4]
    48b8:	2c00      	cmp	r4, #0
    48ba:	d027      	beq.n	490c <__d2b+0x70>
    48bc:	4668      	mov	r0, sp
    48be:	9400      	str	r4, [sp, #0]
    48c0:	f7ff fe05 	bl	44ce <__lo0bits>
    48c4:	9c00      	ldr	r4, [sp, #0]
    48c6:	2800      	cmp	r0, #0
    48c8:	d01e      	beq.n	4908 <__d2b+0x6c>
    48ca:	9b01      	ldr	r3, [sp, #4]
    48cc:	2120      	movs	r1, #32
    48ce:	001a      	movs	r2, r3
    48d0:	1a09      	subs	r1, r1, r0
    48d2:	408a      	lsls	r2, r1
    48d4:	40c3      	lsrs	r3, r0
    48d6:	4322      	orrs	r2, r4
    48d8:	6172      	str	r2, [r6, #20]
    48da:	9301      	str	r3, [sp, #4]
    48dc:	9c01      	ldr	r4, [sp, #4]
    48de:	61b4      	str	r4, [r6, #24]
    48e0:	1e63      	subs	r3, r4, #1
    48e2:	419c      	sbcs	r4, r3
    48e4:	3401      	adds	r4, #1
    48e6:	6134      	str	r4, [r6, #16]
    48e8:	2d00      	cmp	r5, #0
    48ea:	d018      	beq.n	491e <__d2b+0x82>
    48ec:	4b12      	ldr	r3, [pc, #72]	; (4938 <__d2b+0x9c>)
    48ee:	18ed      	adds	r5, r5, r3
    48f0:	2335      	movs	r3, #53	; 0x35
    48f2:	182d      	adds	r5, r5, r0
    48f4:	603d      	str	r5, [r7, #0]
    48f6:	1a18      	subs	r0, r3, r0
    48f8:	9b09      	ldr	r3, [sp, #36]	; 0x24
    48fa:	6018      	str	r0, [r3, #0]
    48fc:	0030      	movs	r0, r6
    48fe:	bdfe      	pop	{r1, r2, r3, r4, r5, r6, r7, pc}
    4900:	2280      	movs	r2, #128	; 0x80
    4902:	0352      	lsls	r2, r2, #13
    4904:	4313      	orrs	r3, r2
    4906:	e7d6      	b.n	48b6 <__d2b+0x1a>
    4908:	6174      	str	r4, [r6, #20]
    490a:	e7e7      	b.n	48dc <__d2b+0x40>
    490c:	a801      	add	r0, sp, #4
    490e:	f7ff fdde 	bl	44ce <__lo0bits>
    4912:	2401      	movs	r4, #1
    4914:	9b01      	ldr	r3, [sp, #4]
    4916:	6134      	str	r4, [r6, #16]
    4918:	6173      	str	r3, [r6, #20]
    491a:	3020      	adds	r0, #32
    491c:	e7e4      	b.n	48e8 <__d2b+0x4c>
    491e:	4b07      	ldr	r3, [pc, #28]	; (493c <__d2b+0xa0>)
    4920:	18c0      	adds	r0, r0, r3
    4922:	4b07      	ldr	r3, [pc, #28]	; (4940 <__d2b+0xa4>)
    4924:	6038      	str	r0, [r7, #0]
    4926:	18e3      	adds	r3, r4, r3
    4928:	009b      	lsls	r3, r3, #2
    492a:	18f3      	adds	r3, r6, r3
    492c:	6958      	ldr	r0, [r3, #20]
    492e:	f7ff fdb4 	bl	449a <__hi0bits>
    4932:	0164      	lsls	r4, r4, #5
    4934:	1a20      	subs	r0, r4, r0
    4936:	e7df      	b.n	48f8 <__d2b+0x5c>
    4938:	fffffbcd 	.word	0xfffffbcd
    493c:	fffffbce 	.word	0xfffffbce
    4940:	3fffffff 	.word	0x3fffffff

00004944 <_mprec_log10>:
    4944:	b510      	push	{r4, lr}
    4946:	0004      	movs	r4, r0
    4948:	2817      	cmp	r0, #23
    494a:	dc05      	bgt.n	4958 <_mprec_log10+0x14>
    494c:	4b07      	ldr	r3, [pc, #28]	; (496c <_mprec_log10+0x28>)
    494e:	00c4      	lsls	r4, r0, #3
    4950:	191c      	adds	r4, r3, r4
    4952:	6820      	ldr	r0, [r4, #0]
    4954:	6861      	ldr	r1, [r4, #4]
    4956:	bd10      	pop	{r4, pc}
    4958:	2000      	movs	r0, #0
    495a:	4905      	ldr	r1, [pc, #20]	; (4970 <_mprec_log10+0x2c>)
    495c:	2200      	movs	r2, #0
    495e:	4b05      	ldr	r3, [pc, #20]	; (4974 <_mprec_log10+0x30>)
    4960:	3c01      	subs	r4, #1
    4962:	f7fe fa11 	bl	2d88 <__aeabi_dmul>
    4966:	2c00      	cmp	r4, #0
    4968:	d1f8      	bne.n	495c <_mprec_log10+0x18>
    496a:	e7f4      	b.n	4956 <_mprec_log10+0x12>
    496c:	000061b8 	.word	0x000061b8
    4970:	3ff00000 	.word	0x3ff00000
    4974:	40240000 	.word	0x40240000

00004978 <_calloc_r>:
    4978:	434a      	muls	r2, r1
    497a:	b570      	push	{r4, r5, r6, lr}
    497c:	0011      	movs	r1, r2
    497e:	0014      	movs	r4, r2
    4980:	f7ff fb3c 	bl	3ffc <_malloc_r>
    4984:	1e05      	subs	r5, r0, #0
    4986:	d003      	beq.n	4990 <_calloc_r+0x18>
    4988:	0022      	movs	r2, r4
    498a:	2100      	movs	r1, #0
    498c:	f7ff fb2d 	bl	3fea <memset>
    4990:	0028      	movs	r0, r5
    4992:	bd70      	pop	{r4, r5, r6, pc}

00004994 <strcpy>:
    4994:	1c03      	adds	r3, r0, #0
    4996:	780a      	ldrb	r2, [r1, #0]
    4998:	3101      	adds	r1, #1
    499a:	701a      	strb	r2, [r3, #0]
    499c:	3301      	adds	r3, #1
    499e:	2a00      	cmp	r2, #0
    49a0:	d1f9      	bne.n	4996 <strcpy+0x2>
    49a2:	4770      	bx	lr

000049a4 <quorem>:
    49a4:	b5f0      	push	{r4, r5, r6, r7, lr}
    49a6:	6903      	ldr	r3, [r0, #16]
    49a8:	690c      	ldr	r4, [r1, #16]
    49aa:	b089      	sub	sp, #36	; 0x24
    49ac:	0007      	movs	r7, r0
    49ae:	9105      	str	r1, [sp, #20]
    49b0:	2600      	movs	r6, #0
    49b2:	429c      	cmp	r4, r3
    49b4:	dc6d      	bgt.n	4a92 <quorem+0xee>
    49b6:	000b      	movs	r3, r1
    49b8:	3c01      	subs	r4, #1
    49ba:	3314      	adds	r3, #20
    49bc:	00a5      	lsls	r5, r4, #2
    49be:	9303      	str	r3, [sp, #12]
    49c0:	195b      	adds	r3, r3, r5
    49c2:	9304      	str	r3, [sp, #16]
    49c4:	0003      	movs	r3, r0
    49c6:	3314      	adds	r3, #20
    49c8:	9302      	str	r3, [sp, #8]
    49ca:	195d      	adds	r5, r3, r5
    49cc:	9b04      	ldr	r3, [sp, #16]
    49ce:	6828      	ldr	r0, [r5, #0]
    49d0:	681b      	ldr	r3, [r3, #0]
    49d2:	1c59      	adds	r1, r3, #1
    49d4:	9301      	str	r3, [sp, #4]
    49d6:	f7fc fc1e 	bl	1216 <__aeabi_uidiv>
    49da:	9001      	str	r0, [sp, #4]
    49dc:	42b0      	cmp	r0, r6
    49de:	d02d      	beq.n	4a3c <quorem+0x98>
    49e0:	9b03      	ldr	r3, [sp, #12]
    49e2:	9802      	ldr	r0, [sp, #8]
    49e4:	469c      	mov	ip, r3
    49e6:	9606      	str	r6, [sp, #24]
    49e8:	4662      	mov	r2, ip
    49ea:	ca08      	ldmia	r2!, {r3}
    49ec:	4694      	mov	ip, r2
    49ee:	9a01      	ldr	r2, [sp, #4]
    49f0:	b299      	uxth	r1, r3
    49f2:	4351      	muls	r1, r2
    49f4:	0c1b      	lsrs	r3, r3, #16
    49f6:	4353      	muls	r3, r2
    49f8:	1989      	adds	r1, r1, r6
    49fa:	0c0a      	lsrs	r2, r1, #16
    49fc:	189b      	adds	r3, r3, r2
    49fe:	9307      	str	r3, [sp, #28]
    4a00:	8802      	ldrh	r2, [r0, #0]
    4a02:	0c1e      	lsrs	r6, r3, #16
    4a04:	9b06      	ldr	r3, [sp, #24]
    4a06:	b289      	uxth	r1, r1
    4a08:	18d2      	adds	r2, r2, r3
    4a0a:	6803      	ldr	r3, [r0, #0]
    4a0c:	1a52      	subs	r2, r2, r1
    4a0e:	0c19      	lsrs	r1, r3, #16
    4a10:	466b      	mov	r3, sp
    4a12:	8b9b      	ldrh	r3, [r3, #28]
    4a14:	1acb      	subs	r3, r1, r3
    4a16:	1411      	asrs	r1, r2, #16
    4a18:	185b      	adds	r3, r3, r1
    4a1a:	1419      	asrs	r1, r3, #16
    4a1c:	b292      	uxth	r2, r2
    4a1e:	041b      	lsls	r3, r3, #16
    4a20:	431a      	orrs	r2, r3
    4a22:	9b04      	ldr	r3, [sp, #16]
    4a24:	9106      	str	r1, [sp, #24]
    4a26:	c004      	stmia	r0!, {r2}
    4a28:	4563      	cmp	r3, ip
    4a2a:	d2dd      	bcs.n	49e8 <quorem+0x44>
    4a2c:	682b      	ldr	r3, [r5, #0]
    4a2e:	2b00      	cmp	r3, #0
    4a30:	d104      	bne.n	4a3c <quorem+0x98>
    4a32:	9b02      	ldr	r3, [sp, #8]
    4a34:	3d04      	subs	r5, #4
    4a36:	42ab      	cmp	r3, r5
    4a38:	d32e      	bcc.n	4a98 <quorem+0xf4>
    4a3a:	613c      	str	r4, [r7, #16]
    4a3c:	9905      	ldr	r1, [sp, #20]
    4a3e:	0038      	movs	r0, r7
    4a40:	f7ff feaf 	bl	47a2 <__mcmp>
    4a44:	2800      	cmp	r0, #0
    4a46:	db23      	blt.n	4a90 <quorem+0xec>
    4a48:	2500      	movs	r5, #0
    4a4a:	9b01      	ldr	r3, [sp, #4]
    4a4c:	9802      	ldr	r0, [sp, #8]
    4a4e:	3301      	adds	r3, #1
    4a50:	9903      	ldr	r1, [sp, #12]
    4a52:	9301      	str	r3, [sp, #4]
    4a54:	c908      	ldmia	r1!, {r3}
    4a56:	8802      	ldrh	r2, [r0, #0]
    4a58:	1955      	adds	r5, r2, r5
    4a5a:	b29a      	uxth	r2, r3
    4a5c:	1aaa      	subs	r2, r5, r2
    4a5e:	6805      	ldr	r5, [r0, #0]
    4a60:	0c1b      	lsrs	r3, r3, #16
    4a62:	0c2d      	lsrs	r5, r5, #16
    4a64:	1aeb      	subs	r3, r5, r3
    4a66:	1415      	asrs	r5, r2, #16
    4a68:	195b      	adds	r3, r3, r5
    4a6a:	141d      	asrs	r5, r3, #16
    4a6c:	b292      	uxth	r2, r2
    4a6e:	041b      	lsls	r3, r3, #16
    4a70:	4313      	orrs	r3, r2
    4a72:	c008      	stmia	r0!, {r3}
    4a74:	9b04      	ldr	r3, [sp, #16]
    4a76:	428b      	cmp	r3, r1
    4a78:	d2ec      	bcs.n	4a54 <quorem+0xb0>
    4a7a:	9a02      	ldr	r2, [sp, #8]
    4a7c:	00a3      	lsls	r3, r4, #2
    4a7e:	18d3      	adds	r3, r2, r3
    4a80:	681a      	ldr	r2, [r3, #0]
    4a82:	2a00      	cmp	r2, #0
    4a84:	d104      	bne.n	4a90 <quorem+0xec>
    4a86:	9a02      	ldr	r2, [sp, #8]
    4a88:	3b04      	subs	r3, #4
    4a8a:	429a      	cmp	r2, r3
    4a8c:	d309      	bcc.n	4aa2 <quorem+0xfe>
    4a8e:	613c      	str	r4, [r7, #16]
    4a90:	9e01      	ldr	r6, [sp, #4]
    4a92:	0030      	movs	r0, r6
    4a94:	b009      	add	sp, #36	; 0x24
    4a96:	bdf0      	pop	{r4, r5, r6, r7, pc}
    4a98:	682b      	ldr	r3, [r5, #0]
    4a9a:	2b00      	cmp	r3, #0
    4a9c:	d1cd      	bne.n	4a3a <quorem+0x96>
    4a9e:	3c01      	subs	r4, #1
    4aa0:	e7c7      	b.n	4a32 <quorem+0x8e>
    4aa2:	681a      	ldr	r2, [r3, #0]
    4aa4:	2a00      	cmp	r2, #0
    4aa6:	d1f2      	bne.n	4a8e <quorem+0xea>
    4aa8:	3c01      	subs	r4, #1
    4aaa:	e7ec      	b.n	4a86 <quorem+0xe2>

00004aac <_dtoa_r>:
    4aac:	b5f0      	push	{r4, r5, r6, r7, lr}
    4aae:	0016      	movs	r6, r2
    4ab0:	001f      	movs	r7, r3
    4ab2:	6a44      	ldr	r4, [r0, #36]	; 0x24
    4ab4:	b09d      	sub	sp, #116	; 0x74
    4ab6:	9004      	str	r0, [sp, #16]
    4ab8:	9d25      	ldr	r5, [sp, #148]	; 0x94
    4aba:	9606      	str	r6, [sp, #24]
    4abc:	9707      	str	r7, [sp, #28]
    4abe:	2c00      	cmp	r4, #0
    4ac0:	d108      	bne.n	4ad4 <_dtoa_r+0x28>
    4ac2:	2010      	movs	r0, #16
    4ac4:	f7ff fa7e 	bl	3fc4 <malloc>
    4ac8:	9b04      	ldr	r3, [sp, #16]
    4aca:	6258      	str	r0, [r3, #36]	; 0x24
    4acc:	6044      	str	r4, [r0, #4]
    4ace:	6084      	str	r4, [r0, #8]
    4ad0:	6004      	str	r4, [r0, #0]
    4ad2:	60c4      	str	r4, [r0, #12]
    4ad4:	9b04      	ldr	r3, [sp, #16]
    4ad6:	6a5b      	ldr	r3, [r3, #36]	; 0x24
    4ad8:	6819      	ldr	r1, [r3, #0]
    4ada:	2900      	cmp	r1, #0
    4adc:	d00b      	beq.n	4af6 <_dtoa_r+0x4a>
    4ade:	685a      	ldr	r2, [r3, #4]
    4ae0:	2301      	movs	r3, #1
    4ae2:	4093      	lsls	r3, r2
    4ae4:	604a      	str	r2, [r1, #4]
    4ae6:	608b      	str	r3, [r1, #8]
    4ae8:	9804      	ldr	r0, [sp, #16]
    4aea:	f7ff fc81 	bl	43f0 <_Bfree>
    4aee:	2200      	movs	r2, #0
    4af0:	9b04      	ldr	r3, [sp, #16]
    4af2:	6a5b      	ldr	r3, [r3, #36]	; 0x24
    4af4:	601a      	str	r2, [r3, #0]
    4af6:	9b07      	ldr	r3, [sp, #28]
    4af8:	2b00      	cmp	r3, #0
    4afa:	da1f      	bge.n	4b3c <_dtoa_r+0x90>
    4afc:	2301      	movs	r3, #1
    4afe:	602b      	str	r3, [r5, #0]
    4b00:	007b      	lsls	r3, r7, #1
    4b02:	085b      	lsrs	r3, r3, #1
    4b04:	9307      	str	r3, [sp, #28]
    4b06:	9c07      	ldr	r4, [sp, #28]
    4b08:	4bb7      	ldr	r3, [pc, #732]	; (4de8 <_dtoa_r+0x33c>)
    4b0a:	0022      	movs	r2, r4
    4b0c:	9319      	str	r3, [sp, #100]	; 0x64
    4b0e:	401a      	ands	r2, r3
    4b10:	429a      	cmp	r2, r3
    4b12:	d116      	bne.n	4b42 <_dtoa_r+0x96>
    4b14:	4bb5      	ldr	r3, [pc, #724]	; (4dec <_dtoa_r+0x340>)
    4b16:	9a24      	ldr	r2, [sp, #144]	; 0x90
    4b18:	6013      	str	r3, [r2, #0]
    4b1a:	9b06      	ldr	r3, [sp, #24]
    4b1c:	2b00      	cmp	r3, #0
    4b1e:	d103      	bne.n	4b28 <_dtoa_r+0x7c>
    4b20:	0324      	lsls	r4, r4, #12
    4b22:	d101      	bne.n	4b28 <_dtoa_r+0x7c>
    4b24:	f000 fd91 	bl	564a <_dtoa_r+0xb9e>
    4b28:	4bb1      	ldr	r3, [pc, #708]	; (4df0 <_dtoa_r+0x344>)
    4b2a:	9a26      	ldr	r2, [sp, #152]	; 0x98
    4b2c:	930a      	str	r3, [sp, #40]	; 0x28
    4b2e:	4bb1      	ldr	r3, [pc, #708]	; (4df4 <_dtoa_r+0x348>)
    4b30:	2a00      	cmp	r2, #0
    4b32:	d001      	beq.n	4b38 <_dtoa_r+0x8c>
    4b34:	f000 fd8f 	bl	5656 <_dtoa_r+0xbaa>
    4b38:	f000 fd8f 	bl	565a <_dtoa_r+0xbae>
    4b3c:	2300      	movs	r3, #0
    4b3e:	602b      	str	r3, [r5, #0]
    4b40:	e7e1      	b.n	4b06 <_dtoa_r+0x5a>
    4b42:	9e06      	ldr	r6, [sp, #24]
    4b44:	9f07      	ldr	r7, [sp, #28]
    4b46:	2200      	movs	r2, #0
    4b48:	2300      	movs	r3, #0
    4b4a:	0030      	movs	r0, r6
    4b4c:	0039      	movs	r1, r7
    4b4e:	f7fe ffc1 	bl	3ad4 <__aeabi_dcmpeq>
    4b52:	1e05      	subs	r5, r0, #0
    4b54:	d00e      	beq.n	4b74 <_dtoa_r+0xc8>
    4b56:	2301      	movs	r3, #1
    4b58:	9a24      	ldr	r2, [sp, #144]	; 0x90
    4b5a:	6013      	str	r3, [r2, #0]
    4b5c:	4ba6      	ldr	r3, [pc, #664]	; (4df8 <_dtoa_r+0x34c>)
    4b5e:	9a26      	ldr	r2, [sp, #152]	; 0x98
    4b60:	930a      	str	r3, [sp, #40]	; 0x28
    4b62:	2a00      	cmp	r2, #0
    4b64:	d101      	bne.n	4b6a <_dtoa_r+0xbe>
    4b66:	f000 fd78 	bl	565a <_dtoa_r+0xbae>
    4b6a:	4aa4      	ldr	r2, [pc, #656]	; (4dfc <_dtoa_r+0x350>)
    4b6c:	9926      	ldr	r1, [sp, #152]	; 0x98
    4b6e:	600a      	str	r2, [r1, #0]
    4b70:	f000 fd73 	bl	565a <_dtoa_r+0xbae>
    4b74:	ab1a      	add	r3, sp, #104	; 0x68
    4b76:	9301      	str	r3, [sp, #4]
    4b78:	ab1b      	add	r3, sp, #108	; 0x6c
    4b7a:	9300      	str	r3, [sp, #0]
    4b7c:	0032      	movs	r2, r6
    4b7e:	003b      	movs	r3, r7
    4b80:	9804      	ldr	r0, [sp, #16]
    4b82:	f7ff fe8b 	bl	489c <__d2b>
    4b86:	0063      	lsls	r3, r4, #1
    4b88:	9005      	str	r0, [sp, #20]
    4b8a:	0d5b      	lsrs	r3, r3, #21
    4b8c:	d100      	bne.n	4b90 <_dtoa_r+0xe4>
    4b8e:	e07f      	b.n	4c90 <_dtoa_r+0x1e4>
    4b90:	033a      	lsls	r2, r7, #12
    4b92:	4c9b      	ldr	r4, [pc, #620]	; (4e00 <_dtoa_r+0x354>)
    4b94:	0b12      	lsrs	r2, r2, #12
    4b96:	4314      	orrs	r4, r2
    4b98:	0021      	movs	r1, r4
    4b9a:	4a9a      	ldr	r2, [pc, #616]	; (4e04 <_dtoa_r+0x358>)
    4b9c:	0030      	movs	r0, r6
    4b9e:	9518      	str	r5, [sp, #96]	; 0x60
    4ba0:	189e      	adds	r6, r3, r2
    4ba2:	2200      	movs	r2, #0
    4ba4:	4b98      	ldr	r3, [pc, #608]	; (4e08 <_dtoa_r+0x35c>)
    4ba6:	f7fe fb6f 	bl	3288 <__aeabi_dsub>
    4baa:	4a98      	ldr	r2, [pc, #608]	; (4e0c <_dtoa_r+0x360>)
    4bac:	4b98      	ldr	r3, [pc, #608]	; (4e10 <_dtoa_r+0x364>)
    4bae:	f7fe f8eb 	bl	2d88 <__aeabi_dmul>
    4bb2:	4a98      	ldr	r2, [pc, #608]	; (4e14 <_dtoa_r+0x368>)
    4bb4:	4b98      	ldr	r3, [pc, #608]	; (4e18 <_dtoa_r+0x36c>)
    4bb6:	f000 fd6b 	bl	5690 <__aeabi_dadd>
    4bba:	0004      	movs	r4, r0
    4bbc:	0030      	movs	r0, r6
    4bbe:	000d      	movs	r5, r1
    4bc0:	f7fe feac 	bl	391c <__aeabi_i2d>
    4bc4:	4a95      	ldr	r2, [pc, #596]	; (4e1c <_dtoa_r+0x370>)
    4bc6:	4b96      	ldr	r3, [pc, #600]	; (4e20 <_dtoa_r+0x374>)
    4bc8:	f7fe f8de 	bl	2d88 <__aeabi_dmul>
    4bcc:	0002      	movs	r2, r0
    4bce:	000b      	movs	r3, r1
    4bd0:	0020      	movs	r0, r4
    4bd2:	0029      	movs	r1, r5
    4bd4:	f000 fd5c 	bl	5690 <__aeabi_dadd>
    4bd8:	0004      	movs	r4, r0
    4bda:	000d      	movs	r5, r1
    4bdc:	f7fe fe6a 	bl	38b4 <__aeabi_d2iz>
    4be0:	2200      	movs	r2, #0
    4be2:	9003      	str	r0, [sp, #12]
    4be4:	2300      	movs	r3, #0
    4be6:	0020      	movs	r0, r4
    4be8:	0029      	movs	r1, r5
    4bea:	f7fe ff79 	bl	3ae0 <__aeabi_dcmplt>
    4bee:	2800      	cmp	r0, #0
    4bf0:	d00e      	beq.n	4c10 <_dtoa_r+0x164>
    4bf2:	9803      	ldr	r0, [sp, #12]
    4bf4:	f7fe fe92 	bl	391c <__aeabi_i2d>
    4bf8:	000b      	movs	r3, r1
    4bfa:	0002      	movs	r2, r0
    4bfc:	0029      	movs	r1, r5
    4bfe:	0020      	movs	r0, r4
    4c00:	f7fe ff68 	bl	3ad4 <__aeabi_dcmpeq>
    4c04:	0003      	movs	r3, r0
    4c06:	4258      	negs	r0, r3
    4c08:	4158      	adcs	r0, r3
    4c0a:	9b03      	ldr	r3, [sp, #12]
    4c0c:	1a1b      	subs	r3, r3, r0
    4c0e:	9303      	str	r3, [sp, #12]
    4c10:	2301      	movs	r3, #1
    4c12:	9316      	str	r3, [sp, #88]	; 0x58
    4c14:	9b03      	ldr	r3, [sp, #12]
    4c16:	2b16      	cmp	r3, #22
    4c18:	d80f      	bhi.n	4c3a <_dtoa_r+0x18e>
    4c1a:	4982      	ldr	r1, [pc, #520]	; (4e24 <_dtoa_r+0x378>)
    4c1c:	00db      	lsls	r3, r3, #3
    4c1e:	18c9      	adds	r1, r1, r3
    4c20:	6808      	ldr	r0, [r1, #0]
    4c22:	6849      	ldr	r1, [r1, #4]
    4c24:	9a06      	ldr	r2, [sp, #24]
    4c26:	9b07      	ldr	r3, [sp, #28]
    4c28:	f7fe ff6e 	bl	3b08 <__aeabi_dcmpgt>
    4c2c:	2800      	cmp	r0, #0
    4c2e:	d04b      	beq.n	4cc8 <_dtoa_r+0x21c>
    4c30:	9b03      	ldr	r3, [sp, #12]
    4c32:	3b01      	subs	r3, #1
    4c34:	9303      	str	r3, [sp, #12]
    4c36:	2300      	movs	r3, #0
    4c38:	9316      	str	r3, [sp, #88]	; 0x58
    4c3a:	9b1a      	ldr	r3, [sp, #104]	; 0x68
    4c3c:	1b9e      	subs	r6, r3, r6
    4c3e:	2300      	movs	r3, #0
    4c40:	930b      	str	r3, [sp, #44]	; 0x2c
    4c42:	0033      	movs	r3, r6
    4c44:	3b01      	subs	r3, #1
    4c46:	930c      	str	r3, [sp, #48]	; 0x30
    4c48:	d504      	bpl.n	4c54 <_dtoa_r+0x1a8>
    4c4a:	2301      	movs	r3, #1
    4c4c:	1b9b      	subs	r3, r3, r6
    4c4e:	930b      	str	r3, [sp, #44]	; 0x2c
    4c50:	2300      	movs	r3, #0
    4c52:	930c      	str	r3, [sp, #48]	; 0x30
    4c54:	9b03      	ldr	r3, [sp, #12]
    4c56:	2b00      	cmp	r3, #0
    4c58:	db38      	blt.n	4ccc <_dtoa_r+0x220>
    4c5a:	9a03      	ldr	r2, [sp, #12]
    4c5c:	9b0c      	ldr	r3, [sp, #48]	; 0x30
    4c5e:	4694      	mov	ip, r2
    4c60:	4463      	add	r3, ip
    4c62:	930c      	str	r3, [sp, #48]	; 0x30
    4c64:	2300      	movs	r3, #0
    4c66:	920f      	str	r2, [sp, #60]	; 0x3c
    4c68:	9308      	str	r3, [sp, #32]
    4c6a:	9b22      	ldr	r3, [sp, #136]	; 0x88
    4c6c:	2501      	movs	r5, #1
    4c6e:	2b09      	cmp	r3, #9
    4c70:	d900      	bls.n	4c74 <_dtoa_r+0x1c8>
    4c72:	e091      	b.n	4d98 <_dtoa_r+0x2ec>
    4c74:	2b05      	cmp	r3, #5
    4c76:	dd02      	ble.n	4c7e <_dtoa_r+0x1d2>
    4c78:	2500      	movs	r5, #0
    4c7a:	3b04      	subs	r3, #4
    4c7c:	9322      	str	r3, [sp, #136]	; 0x88
    4c7e:	9b22      	ldr	r3, [sp, #136]	; 0x88
    4c80:	1e98      	subs	r0, r3, #2
    4c82:	2803      	cmp	r0, #3
    4c84:	d900      	bls.n	4c88 <_dtoa_r+0x1dc>
    4c86:	e091      	b.n	4dac <_dtoa_r+0x300>
    4c88:	f000 fcf8 	bl	567c <__gnu_thumb1_case_uqi>
    4c8c:	76298482 	.word	0x76298482
    4c90:	9b1a      	ldr	r3, [sp, #104]	; 0x68
    4c92:	9a1b      	ldr	r2, [sp, #108]	; 0x6c
    4c94:	189e      	adds	r6, r3, r2
    4c96:	4b64      	ldr	r3, [pc, #400]	; (4e28 <_dtoa_r+0x37c>)
    4c98:	18f2      	adds	r2, r6, r3
    4c9a:	2a20      	cmp	r2, #32
    4c9c:	dd0f      	ble.n	4cbe <_dtoa_r+0x212>
    4c9e:	4b63      	ldr	r3, [pc, #396]	; (4e2c <_dtoa_r+0x380>)
    4ca0:	9806      	ldr	r0, [sp, #24]
    4ca2:	18f3      	adds	r3, r6, r3
    4ca4:	40d8      	lsrs	r0, r3
    4ca6:	2340      	movs	r3, #64	; 0x40
    4ca8:	1a9b      	subs	r3, r3, r2
    4caa:	409c      	lsls	r4, r3
    4cac:	4320      	orrs	r0, r4
    4cae:	f7fe fe77 	bl	39a0 <__aeabi_ui2d>
    4cb2:	2301      	movs	r3, #1
    4cb4:	4c5e      	ldr	r4, [pc, #376]	; (4e30 <_dtoa_r+0x384>)
    4cb6:	3e01      	subs	r6, #1
    4cb8:	1909      	adds	r1, r1, r4
    4cba:	9318      	str	r3, [sp, #96]	; 0x60
    4cbc:	e771      	b.n	4ba2 <_dtoa_r+0xf6>
    4cbe:	2320      	movs	r3, #32
    4cc0:	9806      	ldr	r0, [sp, #24]
    4cc2:	1a9b      	subs	r3, r3, r2
    4cc4:	4098      	lsls	r0, r3
    4cc6:	e7f2      	b.n	4cae <_dtoa_r+0x202>
    4cc8:	9016      	str	r0, [sp, #88]	; 0x58
    4cca:	e7b6      	b.n	4c3a <_dtoa_r+0x18e>
    4ccc:	9b0b      	ldr	r3, [sp, #44]	; 0x2c
    4cce:	9a03      	ldr	r2, [sp, #12]
    4cd0:	1a9b      	subs	r3, r3, r2
    4cd2:	930b      	str	r3, [sp, #44]	; 0x2c
    4cd4:	4253      	negs	r3, r2
    4cd6:	9308      	str	r3, [sp, #32]
    4cd8:	2300      	movs	r3, #0
    4cda:	930f      	str	r3, [sp, #60]	; 0x3c
    4cdc:	e7c5      	b.n	4c6a <_dtoa_r+0x1be>
    4cde:	2301      	movs	r3, #1
    4ce0:	930e      	str	r3, [sp, #56]	; 0x38
    4ce2:	9b23      	ldr	r3, [sp, #140]	; 0x8c
    4ce4:	2b00      	cmp	r3, #0
    4ce6:	dd65      	ble.n	4db4 <_dtoa_r+0x308>
    4ce8:	001f      	movs	r7, r3
    4cea:	930d      	str	r3, [sp, #52]	; 0x34
    4cec:	9a04      	ldr	r2, [sp, #16]
    4cee:	6a54      	ldr	r4, [r2, #36]	; 0x24
    4cf0:	2200      	movs	r2, #0
    4cf2:	6062      	str	r2, [r4, #4]
    4cf4:	3204      	adds	r2, #4
    4cf6:	0011      	movs	r1, r2
    4cf8:	3114      	adds	r1, #20
    4cfa:	4299      	cmp	r1, r3
    4cfc:	d95f      	bls.n	4dbe <_dtoa_r+0x312>
    4cfe:	6861      	ldr	r1, [r4, #4]
    4d00:	9804      	ldr	r0, [sp, #16]
    4d02:	f7ff fb3d 	bl	4380 <_Balloc>
    4d06:	9b04      	ldr	r3, [sp, #16]
    4d08:	6020      	str	r0, [r4, #0]
    4d0a:	6a5b      	ldr	r3, [r3, #36]	; 0x24
    4d0c:	681b      	ldr	r3, [r3, #0]
    4d0e:	930a      	str	r3, [sp, #40]	; 0x28
    4d10:	2f0e      	cmp	r7, #14
    4d12:	d900      	bls.n	4d16 <_dtoa_r+0x26a>
    4d14:	e105      	b.n	4f22 <_dtoa_r+0x476>
    4d16:	2d00      	cmp	r5, #0
    4d18:	d100      	bne.n	4d1c <_dtoa_r+0x270>
    4d1a:	e102      	b.n	4f22 <_dtoa_r+0x476>
    4d1c:	9b06      	ldr	r3, [sp, #24]
    4d1e:	9c07      	ldr	r4, [sp, #28]
    4d20:	9314      	str	r3, [sp, #80]	; 0x50
    4d22:	9415      	str	r4, [sp, #84]	; 0x54
    4d24:	9b03      	ldr	r3, [sp, #12]
    4d26:	2b00      	cmp	r3, #0
    4d28:	dc00      	bgt.n	4d2c <_dtoa_r+0x280>
    4d2a:	e085      	b.n	4e38 <_dtoa_r+0x38c>
    4d2c:	001a      	movs	r2, r3
    4d2e:	210f      	movs	r1, #15
    4d30:	4b3c      	ldr	r3, [pc, #240]	; (4e24 <_dtoa_r+0x378>)
    4d32:	400a      	ands	r2, r1
    4d34:	00d2      	lsls	r2, r2, #3
    4d36:	189b      	adds	r3, r3, r2
    4d38:	685c      	ldr	r4, [r3, #4]
    4d3a:	681b      	ldr	r3, [r3, #0]
    4d3c:	9310      	str	r3, [sp, #64]	; 0x40
    4d3e:	9411      	str	r4, [sp, #68]	; 0x44
    4d40:	9b03      	ldr	r3, [sp, #12]
    4d42:	2402      	movs	r4, #2
    4d44:	111d      	asrs	r5, r3, #4
    4d46:	06eb      	lsls	r3, r5, #27
    4d48:	d50a      	bpl.n	4d60 <_dtoa_r+0x2b4>
    4d4a:	4b3a      	ldr	r3, [pc, #232]	; (4e34 <_dtoa_r+0x388>)
    4d4c:	400d      	ands	r5, r1
    4d4e:	6a1a      	ldr	r2, [r3, #32]
    4d50:	6a5b      	ldr	r3, [r3, #36]	; 0x24
    4d52:	9814      	ldr	r0, [sp, #80]	; 0x50
    4d54:	9915      	ldr	r1, [sp, #84]	; 0x54
    4d56:	f7fd fce3 	bl	2720 <__aeabi_ddiv>
    4d5a:	9006      	str	r0, [sp, #24]
    4d5c:	9107      	str	r1, [sp, #28]
    4d5e:	3401      	adds	r4, #1
    4d60:	4e34      	ldr	r6, [pc, #208]	; (4e34 <_dtoa_r+0x388>)
    4d62:	2d00      	cmp	r5, #0
    4d64:	d130      	bne.n	4dc8 <_dtoa_r+0x31c>
    4d66:	9a10      	ldr	r2, [sp, #64]	; 0x40
    4d68:	9b11      	ldr	r3, [sp, #68]	; 0x44
    4d6a:	9806      	ldr	r0, [sp, #24]
    4d6c:	9907      	ldr	r1, [sp, #28]
    4d6e:	f7fd fcd7 	bl	2720 <__aeabi_ddiv>
    4d72:	9006      	str	r0, [sp, #24]
    4d74:	9107      	str	r1, [sp, #28]
    4d76:	e07a      	b.n	4e6e <_dtoa_r+0x3c2>
    4d78:	2301      	movs	r3, #1
    4d7a:	9a23      	ldr	r2, [sp, #140]	; 0x8c
    4d7c:	930e      	str	r3, [sp, #56]	; 0x38
    4d7e:	4694      	mov	ip, r2
    4d80:	9b03      	ldr	r3, [sp, #12]
    4d82:	4463      	add	r3, ip
    4d84:	1c5f      	adds	r7, r3, #1
    4d86:	930d      	str	r3, [sp, #52]	; 0x34
    4d88:	1e3b      	subs	r3, r7, #0
    4d8a:	dcaf      	bgt.n	4cec <_dtoa_r+0x240>
    4d8c:	2301      	movs	r3, #1
    4d8e:	e7ad      	b.n	4cec <_dtoa_r+0x240>
    4d90:	2300      	movs	r3, #0
    4d92:	e7a5      	b.n	4ce0 <_dtoa_r+0x234>
    4d94:	2300      	movs	r3, #0
    4d96:	e7f0      	b.n	4d7a <_dtoa_r+0x2ce>
    4d98:	2300      	movs	r3, #0
    4d9a:	950e      	str	r5, [sp, #56]	; 0x38
    4d9c:	9322      	str	r3, [sp, #136]	; 0x88
    4d9e:	3b01      	subs	r3, #1
    4da0:	2200      	movs	r2, #0
    4da2:	930d      	str	r3, [sp, #52]	; 0x34
    4da4:	001f      	movs	r7, r3
    4da6:	3313      	adds	r3, #19
    4da8:	9223      	str	r2, [sp, #140]	; 0x8c
    4daa:	e79f      	b.n	4cec <_dtoa_r+0x240>
    4dac:	2301      	movs	r3, #1
    4dae:	930e      	str	r3, [sp, #56]	; 0x38
    4db0:	3b02      	subs	r3, #2
    4db2:	e7f5      	b.n	4da0 <_dtoa_r+0x2f4>
    4db4:	2301      	movs	r3, #1
    4db6:	930d      	str	r3, [sp, #52]	; 0x34
    4db8:	001f      	movs	r7, r3
    4dba:	001a      	movs	r2, r3
    4dbc:	e7f4      	b.n	4da8 <_dtoa_r+0x2fc>
    4dbe:	6861      	ldr	r1, [r4, #4]
    4dc0:	0052      	lsls	r2, r2, #1
    4dc2:	3101      	adds	r1, #1
    4dc4:	6061      	str	r1, [r4, #4]
    4dc6:	e796      	b.n	4cf6 <_dtoa_r+0x24a>
    4dc8:	2301      	movs	r3, #1
    4dca:	421d      	tst	r5, r3
    4dcc:	d008      	beq.n	4de0 <_dtoa_r+0x334>
    4dce:	9810      	ldr	r0, [sp, #64]	; 0x40
    4dd0:	9911      	ldr	r1, [sp, #68]	; 0x44
    4dd2:	18e4      	adds	r4, r4, r3
    4dd4:	6832      	ldr	r2, [r6, #0]
    4dd6:	6873      	ldr	r3, [r6, #4]
    4dd8:	f7fd ffd6 	bl	2d88 <__aeabi_dmul>
    4ddc:	9010      	str	r0, [sp, #64]	; 0x40
    4dde:	9111      	str	r1, [sp, #68]	; 0x44
    4de0:	106d      	asrs	r5, r5, #1
    4de2:	3608      	adds	r6, #8
    4de4:	e7bd      	b.n	4d62 <_dtoa_r+0x2b6>
    4de6:	46c0      	nop			; (mov r8, r8)
    4de8:	7ff00000 	.word	0x7ff00000
    4dec:	0000270f 	.word	0x0000270f
    4df0:	00006295 	.word	0x00006295
    4df4:	00006298 	.word	0x00006298
    4df8:	00006299 	.word	0x00006299
    4dfc:	0000629a 	.word	0x0000629a
    4e00:	3ff00000 	.word	0x3ff00000
    4e04:	fffffc01 	.word	0xfffffc01
    4e08:	3ff80000 	.word	0x3ff80000
    4e0c:	636f4361 	.word	0x636f4361
    4e10:	3fd287a7 	.word	0x3fd287a7
    4e14:	8b60c8b3 	.word	0x8b60c8b3
    4e18:	3fc68a28 	.word	0x3fc68a28
    4e1c:	509f79fb 	.word	0x509f79fb
    4e20:	3fd34413 	.word	0x3fd34413
    4e24:	000061b8 	.word	0x000061b8
    4e28:	00000432 	.word	0x00000432
    4e2c:	00000412 	.word	0x00000412
    4e30:	fe100000 	.word	0xfe100000
    4e34:	00006190 	.word	0x00006190
    4e38:	9b03      	ldr	r3, [sp, #12]
    4e3a:	2402      	movs	r4, #2
    4e3c:	2b00      	cmp	r3, #0
    4e3e:	d016      	beq.n	4e6e <_dtoa_r+0x3c2>
    4e40:	9814      	ldr	r0, [sp, #80]	; 0x50
    4e42:	9915      	ldr	r1, [sp, #84]	; 0x54
    4e44:	425d      	negs	r5, r3
    4e46:	230f      	movs	r3, #15
    4e48:	4aca      	ldr	r2, [pc, #808]	; (5174 <_dtoa_r+0x6c8>)
    4e4a:	402b      	ands	r3, r5
    4e4c:	00db      	lsls	r3, r3, #3
    4e4e:	18d3      	adds	r3, r2, r3
    4e50:	681a      	ldr	r2, [r3, #0]
    4e52:	685b      	ldr	r3, [r3, #4]
    4e54:	f7fd ff98 	bl	2d88 <__aeabi_dmul>
    4e58:	2300      	movs	r3, #0
    4e5a:	9006      	str	r0, [sp, #24]
    4e5c:	9107      	str	r1, [sp, #28]
    4e5e:	4ec6      	ldr	r6, [pc, #792]	; (5178 <_dtoa_r+0x6cc>)
    4e60:	112d      	asrs	r5, r5, #4
    4e62:	2d00      	cmp	r5, #0
    4e64:	d000      	beq.n	4e68 <_dtoa_r+0x3bc>
    4e66:	e08c      	b.n	4f82 <_dtoa_r+0x4d6>
    4e68:	2b00      	cmp	r3, #0
    4e6a:	d000      	beq.n	4e6e <_dtoa_r+0x3c2>
    4e6c:	e781      	b.n	4d72 <_dtoa_r+0x2c6>
    4e6e:	9b16      	ldr	r3, [sp, #88]	; 0x58
    4e70:	2b00      	cmp	r3, #0
    4e72:	d100      	bne.n	4e76 <_dtoa_r+0x3ca>
    4e74:	e091      	b.n	4f9a <_dtoa_r+0x4ee>
    4e76:	9a06      	ldr	r2, [sp, #24]
    4e78:	9b07      	ldr	r3, [sp, #28]
    4e7a:	9210      	str	r2, [sp, #64]	; 0x40
    4e7c:	9311      	str	r3, [sp, #68]	; 0x44
    4e7e:	9810      	ldr	r0, [sp, #64]	; 0x40
    4e80:	9911      	ldr	r1, [sp, #68]	; 0x44
    4e82:	2200      	movs	r2, #0
    4e84:	4bbd      	ldr	r3, [pc, #756]	; (517c <_dtoa_r+0x6d0>)
    4e86:	f7fe fe2b 	bl	3ae0 <__aeabi_dcmplt>
    4e8a:	2800      	cmp	r0, #0
    4e8c:	d100      	bne.n	4e90 <_dtoa_r+0x3e4>
    4e8e:	e084      	b.n	4f9a <_dtoa_r+0x4ee>
    4e90:	2f00      	cmp	r7, #0
    4e92:	d100      	bne.n	4e96 <_dtoa_r+0x3ea>
    4e94:	e081      	b.n	4f9a <_dtoa_r+0x4ee>
    4e96:	9b0d      	ldr	r3, [sp, #52]	; 0x34
    4e98:	2b00      	cmp	r3, #0
    4e9a:	dd3e      	ble.n	4f1a <_dtoa_r+0x46e>
    4e9c:	9810      	ldr	r0, [sp, #64]	; 0x40
    4e9e:	9911      	ldr	r1, [sp, #68]	; 0x44
    4ea0:	9b03      	ldr	r3, [sp, #12]
    4ea2:	2200      	movs	r2, #0
    4ea4:	1e5e      	subs	r6, r3, #1
    4ea6:	4bb6      	ldr	r3, [pc, #728]	; (5180 <_dtoa_r+0x6d4>)
    4ea8:	f7fd ff6e 	bl	2d88 <__aeabi_dmul>
    4eac:	9006      	str	r0, [sp, #24]
    4eae:	9107      	str	r1, [sp, #28]
    4eb0:	9d0d      	ldr	r5, [sp, #52]	; 0x34
    4eb2:	3401      	adds	r4, #1
    4eb4:	0020      	movs	r0, r4
    4eb6:	f7fe fd31 	bl	391c <__aeabi_i2d>
    4eba:	9a06      	ldr	r2, [sp, #24]
    4ebc:	9b07      	ldr	r3, [sp, #28]
    4ebe:	f7fd ff63 	bl	2d88 <__aeabi_dmul>
    4ec2:	2200      	movs	r2, #0
    4ec4:	4baf      	ldr	r3, [pc, #700]	; (5184 <_dtoa_r+0x6d8>)
    4ec6:	f000 fbe3 	bl	5690 <__aeabi_dadd>
    4eca:	9012      	str	r0, [sp, #72]	; 0x48
    4ecc:	9113      	str	r1, [sp, #76]	; 0x4c
    4ece:	9b12      	ldr	r3, [sp, #72]	; 0x48
    4ed0:	9c13      	ldr	r4, [sp, #76]	; 0x4c
    4ed2:	4aad      	ldr	r2, [pc, #692]	; (5188 <_dtoa_r+0x6dc>)
    4ed4:	9310      	str	r3, [sp, #64]	; 0x40
    4ed6:	9411      	str	r4, [sp, #68]	; 0x44
    4ed8:	9b13      	ldr	r3, [sp, #76]	; 0x4c
    4eda:	189c      	adds	r4, r3, r2
    4edc:	9411      	str	r4, [sp, #68]	; 0x44
    4ede:	2d00      	cmp	r5, #0
    4ee0:	d15e      	bne.n	4fa0 <_dtoa_r+0x4f4>
    4ee2:	9806      	ldr	r0, [sp, #24]
    4ee4:	9907      	ldr	r1, [sp, #28]
    4ee6:	2200      	movs	r2, #0
    4ee8:	4ba8      	ldr	r3, [pc, #672]	; (518c <_dtoa_r+0x6e0>)
    4eea:	f7fe f9cd 	bl	3288 <__aeabi_dsub>
    4eee:	9a10      	ldr	r2, [sp, #64]	; 0x40
    4ef0:	0023      	movs	r3, r4
    4ef2:	9006      	str	r0, [sp, #24]
    4ef4:	9107      	str	r1, [sp, #28]
    4ef6:	f7fe fe07 	bl	3b08 <__aeabi_dcmpgt>
    4efa:	2800      	cmp	r0, #0
    4efc:	d000      	beq.n	4f00 <_dtoa_r+0x454>
    4efe:	e301      	b.n	5504 <_dtoa_r+0xa58>
    4f00:	48a3      	ldr	r0, [pc, #652]	; (5190 <_dtoa_r+0x6e4>)
    4f02:	9913      	ldr	r1, [sp, #76]	; 0x4c
    4f04:	4684      	mov	ip, r0
    4f06:	4461      	add	r1, ip
    4f08:	000b      	movs	r3, r1
    4f0a:	9806      	ldr	r0, [sp, #24]
    4f0c:	9907      	ldr	r1, [sp, #28]
    4f0e:	9a10      	ldr	r2, [sp, #64]	; 0x40
    4f10:	f7fe fde6 	bl	3ae0 <__aeabi_dcmplt>
    4f14:	2800      	cmp	r0, #0
    4f16:	d000      	beq.n	4f1a <_dtoa_r+0x46e>
    4f18:	e2e8      	b.n	54ec <_dtoa_r+0xa40>
    4f1a:	9b14      	ldr	r3, [sp, #80]	; 0x50
    4f1c:	9c15      	ldr	r4, [sp, #84]	; 0x54
    4f1e:	9306      	str	r3, [sp, #24]
    4f20:	9407      	str	r4, [sp, #28]
    4f22:	9b1b      	ldr	r3, [sp, #108]	; 0x6c
    4f24:	2b00      	cmp	r3, #0
    4f26:	da00      	bge.n	4f2a <_dtoa_r+0x47e>
    4f28:	e157      	b.n	51da <_dtoa_r+0x72e>
    4f2a:	9a03      	ldr	r2, [sp, #12]
    4f2c:	2a0e      	cmp	r2, #14
    4f2e:	dd00      	ble.n	4f32 <_dtoa_r+0x486>
    4f30:	e153      	b.n	51da <_dtoa_r+0x72e>
    4f32:	4b90      	ldr	r3, [pc, #576]	; (5174 <_dtoa_r+0x6c8>)
    4f34:	00d2      	lsls	r2, r2, #3
    4f36:	189b      	adds	r3, r3, r2
    4f38:	685c      	ldr	r4, [r3, #4]
    4f3a:	681b      	ldr	r3, [r3, #0]
    4f3c:	9308      	str	r3, [sp, #32]
    4f3e:	9409      	str	r4, [sp, #36]	; 0x24
    4f40:	9b23      	ldr	r3, [sp, #140]	; 0x8c
    4f42:	2b00      	cmp	r3, #0
    4f44:	db00      	blt.n	4f48 <_dtoa_r+0x49c>
    4f46:	e0ce      	b.n	50e6 <_dtoa_r+0x63a>
    4f48:	2f00      	cmp	r7, #0
    4f4a:	dd00      	ble.n	4f4e <_dtoa_r+0x4a2>
    4f4c:	e0cb      	b.n	50e6 <_dtoa_r+0x63a>
    4f4e:	d000      	beq.n	4f52 <_dtoa_r+0x4a6>
    4f50:	e2cf      	b.n	54f2 <_dtoa_r+0xa46>
    4f52:	9808      	ldr	r0, [sp, #32]
    4f54:	9909      	ldr	r1, [sp, #36]	; 0x24
    4f56:	2200      	movs	r2, #0
    4f58:	4b8c      	ldr	r3, [pc, #560]	; (518c <_dtoa_r+0x6e0>)
    4f5a:	f7fd ff15 	bl	2d88 <__aeabi_dmul>
    4f5e:	9a06      	ldr	r2, [sp, #24]
    4f60:	9b07      	ldr	r3, [sp, #28]
    4f62:	f7fe fddb 	bl	3b1c <__aeabi_dcmpge>
    4f66:	003e      	movs	r6, r7
    4f68:	9708      	str	r7, [sp, #32]
    4f6a:	2800      	cmp	r0, #0
    4f6c:	d000      	beq.n	4f70 <_dtoa_r+0x4c4>
    4f6e:	e2a4      	b.n	54ba <_dtoa_r+0xa0e>
    4f70:	9b0a      	ldr	r3, [sp, #40]	; 0x28
    4f72:	9a0a      	ldr	r2, [sp, #40]	; 0x28
    4f74:	1c5d      	adds	r5, r3, #1
    4f76:	2331      	movs	r3, #49	; 0x31
    4f78:	7013      	strb	r3, [r2, #0]
    4f7a:	9b03      	ldr	r3, [sp, #12]
    4f7c:	3301      	adds	r3, #1
    4f7e:	9303      	str	r3, [sp, #12]
    4f80:	e29f      	b.n	54c2 <_dtoa_r+0xa16>
    4f82:	2201      	movs	r2, #1
    4f84:	4215      	tst	r5, r2
    4f86:	d005      	beq.n	4f94 <_dtoa_r+0x4e8>
    4f88:	18a4      	adds	r4, r4, r2
    4f8a:	6832      	ldr	r2, [r6, #0]
    4f8c:	6873      	ldr	r3, [r6, #4]
    4f8e:	f7fd fefb 	bl	2d88 <__aeabi_dmul>
    4f92:	2301      	movs	r3, #1
    4f94:	106d      	asrs	r5, r5, #1
    4f96:	3608      	adds	r6, #8
    4f98:	e763      	b.n	4e62 <_dtoa_r+0x3b6>
    4f9a:	9e03      	ldr	r6, [sp, #12]
    4f9c:	003d      	movs	r5, r7
    4f9e:	e789      	b.n	4eb4 <_dtoa_r+0x408>
    4fa0:	9a0a      	ldr	r2, [sp, #40]	; 0x28
    4fa2:	1e69      	subs	r1, r5, #1
    4fa4:	1952      	adds	r2, r2, r5
    4fa6:	9217      	str	r2, [sp, #92]	; 0x5c
    4fa8:	9a0e      	ldr	r2, [sp, #56]	; 0x38
    4faa:	4b72      	ldr	r3, [pc, #456]	; (5174 <_dtoa_r+0x6c8>)
    4fac:	00c9      	lsls	r1, r1, #3
    4fae:	2a00      	cmp	r2, #0
    4fb0:	d04a      	beq.n	5048 <_dtoa_r+0x59c>
    4fb2:	185b      	adds	r3, r3, r1
    4fb4:	681a      	ldr	r2, [r3, #0]
    4fb6:	685b      	ldr	r3, [r3, #4]
    4fb8:	2000      	movs	r0, #0
    4fba:	4976      	ldr	r1, [pc, #472]	; (5194 <_dtoa_r+0x6e8>)
    4fbc:	f7fd fbb0 	bl	2720 <__aeabi_ddiv>
    4fc0:	9a10      	ldr	r2, [sp, #64]	; 0x40
    4fc2:	9b11      	ldr	r3, [sp, #68]	; 0x44
    4fc4:	f7fe f960 	bl	3288 <__aeabi_dsub>
    4fc8:	9b0a      	ldr	r3, [sp, #40]	; 0x28
    4fca:	9010      	str	r0, [sp, #64]	; 0x40
    4fcc:	9111      	str	r1, [sp, #68]	; 0x44
    4fce:	9312      	str	r3, [sp, #72]	; 0x48
    4fd0:	9806      	ldr	r0, [sp, #24]
    4fd2:	9907      	ldr	r1, [sp, #28]
    4fd4:	f7fe fc6e 	bl	38b4 <__aeabi_d2iz>
    4fd8:	0004      	movs	r4, r0
    4fda:	f7fe fc9f 	bl	391c <__aeabi_i2d>
    4fde:	0002      	movs	r2, r0
    4fe0:	000b      	movs	r3, r1
    4fe2:	9806      	ldr	r0, [sp, #24]
    4fe4:	9907      	ldr	r1, [sp, #28]
    4fe6:	f7fe f94f 	bl	3288 <__aeabi_dsub>
    4fea:	9b12      	ldr	r3, [sp, #72]	; 0x48
    4fec:	3430      	adds	r4, #48	; 0x30
    4fee:	1c5d      	adds	r5, r3, #1
    4ff0:	701c      	strb	r4, [r3, #0]
    4ff2:	9a10      	ldr	r2, [sp, #64]	; 0x40
    4ff4:	9b11      	ldr	r3, [sp, #68]	; 0x44
    4ff6:	9006      	str	r0, [sp, #24]
    4ff8:	9107      	str	r1, [sp, #28]
    4ffa:	f7fe fd71 	bl	3ae0 <__aeabi_dcmplt>
    4ffe:	2800      	cmp	r0, #0
    5000:	d165      	bne.n	50ce <_dtoa_r+0x622>
    5002:	9a06      	ldr	r2, [sp, #24]
    5004:	9b07      	ldr	r3, [sp, #28]
    5006:	2000      	movs	r0, #0
    5008:	495c      	ldr	r1, [pc, #368]	; (517c <_dtoa_r+0x6d0>)
    500a:	f7fe f93d 	bl	3288 <__aeabi_dsub>
    500e:	9a10      	ldr	r2, [sp, #64]	; 0x40
    5010:	9b11      	ldr	r3, [sp, #68]	; 0x44
    5012:	f7fe fd65 	bl	3ae0 <__aeabi_dcmplt>
    5016:	2800      	cmp	r0, #0
    5018:	d000      	beq.n	501c <_dtoa_r+0x570>
    501a:	e0be      	b.n	519a <_dtoa_r+0x6ee>
    501c:	9b17      	ldr	r3, [sp, #92]	; 0x5c
    501e:	429d      	cmp	r5, r3
    5020:	d100      	bne.n	5024 <_dtoa_r+0x578>
    5022:	e77a      	b.n	4f1a <_dtoa_r+0x46e>
    5024:	9810      	ldr	r0, [sp, #64]	; 0x40
    5026:	9911      	ldr	r1, [sp, #68]	; 0x44
    5028:	2200      	movs	r2, #0
    502a:	4b55      	ldr	r3, [pc, #340]	; (5180 <_dtoa_r+0x6d4>)
    502c:	f7fd feac 	bl	2d88 <__aeabi_dmul>
    5030:	2200      	movs	r2, #0
    5032:	9010      	str	r0, [sp, #64]	; 0x40
    5034:	9111      	str	r1, [sp, #68]	; 0x44
    5036:	9806      	ldr	r0, [sp, #24]
    5038:	9907      	ldr	r1, [sp, #28]
    503a:	4b51      	ldr	r3, [pc, #324]	; (5180 <_dtoa_r+0x6d4>)
    503c:	f7fd fea4 	bl	2d88 <__aeabi_dmul>
    5040:	9512      	str	r5, [sp, #72]	; 0x48
    5042:	9006      	str	r0, [sp, #24]
    5044:	9107      	str	r1, [sp, #28]
    5046:	e7c3      	b.n	4fd0 <_dtoa_r+0x524>
    5048:	1859      	adds	r1, r3, r1
    504a:	6808      	ldr	r0, [r1, #0]
    504c:	6849      	ldr	r1, [r1, #4]
    504e:	9a10      	ldr	r2, [sp, #64]	; 0x40
    5050:	9b11      	ldr	r3, [sp, #68]	; 0x44
    5052:	f7fd fe99 	bl	2d88 <__aeabi_dmul>
    5056:	9010      	str	r0, [sp, #64]	; 0x40
    5058:	9111      	str	r1, [sp, #68]	; 0x44
    505a:	9c0a      	ldr	r4, [sp, #40]	; 0x28
    505c:	9d17      	ldr	r5, [sp, #92]	; 0x5c
    505e:	9806      	ldr	r0, [sp, #24]
    5060:	9907      	ldr	r1, [sp, #28]
    5062:	f7fe fc27 	bl	38b4 <__aeabi_d2iz>
    5066:	9012      	str	r0, [sp, #72]	; 0x48
    5068:	f7fe fc58 	bl	391c <__aeabi_i2d>
    506c:	0002      	movs	r2, r0
    506e:	000b      	movs	r3, r1
    5070:	9806      	ldr	r0, [sp, #24]
    5072:	9907      	ldr	r1, [sp, #28]
    5074:	f7fe f908 	bl	3288 <__aeabi_dsub>
    5078:	9b12      	ldr	r3, [sp, #72]	; 0x48
    507a:	9006      	str	r0, [sp, #24]
    507c:	9107      	str	r1, [sp, #28]
    507e:	3330      	adds	r3, #48	; 0x30
    5080:	7023      	strb	r3, [r4, #0]
    5082:	9b17      	ldr	r3, [sp, #92]	; 0x5c
    5084:	3401      	adds	r4, #1
    5086:	2200      	movs	r2, #0
    5088:	42a3      	cmp	r3, r4
    508a:	d124      	bne.n	50d6 <_dtoa_r+0x62a>
    508c:	4b41      	ldr	r3, [pc, #260]	; (5194 <_dtoa_r+0x6e8>)
    508e:	9810      	ldr	r0, [sp, #64]	; 0x40
    5090:	9911      	ldr	r1, [sp, #68]	; 0x44
    5092:	f000 fafd 	bl	5690 <__aeabi_dadd>
    5096:	0002      	movs	r2, r0
    5098:	000b      	movs	r3, r1
    509a:	9806      	ldr	r0, [sp, #24]
    509c:	9907      	ldr	r1, [sp, #28]
    509e:	f7fe fd33 	bl	3b08 <__aeabi_dcmpgt>
    50a2:	2800      	cmp	r0, #0
    50a4:	d000      	beq.n	50a8 <_dtoa_r+0x5fc>
    50a6:	e078      	b.n	519a <_dtoa_r+0x6ee>
    50a8:	9a10      	ldr	r2, [sp, #64]	; 0x40
    50aa:	9b11      	ldr	r3, [sp, #68]	; 0x44
    50ac:	2000      	movs	r0, #0
    50ae:	4939      	ldr	r1, [pc, #228]	; (5194 <_dtoa_r+0x6e8>)
    50b0:	f7fe f8ea 	bl	3288 <__aeabi_dsub>
    50b4:	0002      	movs	r2, r0
    50b6:	000b      	movs	r3, r1
    50b8:	9806      	ldr	r0, [sp, #24]
    50ba:	9907      	ldr	r1, [sp, #28]
    50bc:	f7fe fd10 	bl	3ae0 <__aeabi_dcmplt>
    50c0:	2800      	cmp	r0, #0
    50c2:	d100      	bne.n	50c6 <_dtoa_r+0x61a>
    50c4:	e729      	b.n	4f1a <_dtoa_r+0x46e>
    50c6:	1e6b      	subs	r3, r5, #1
    50c8:	781a      	ldrb	r2, [r3, #0]
    50ca:	2a30      	cmp	r2, #48	; 0x30
    50cc:	d001      	beq.n	50d2 <_dtoa_r+0x626>
    50ce:	9603      	str	r6, [sp, #12]
    50d0:	e03f      	b.n	5152 <_dtoa_r+0x6a6>
    50d2:	001d      	movs	r5, r3
    50d4:	e7f7      	b.n	50c6 <_dtoa_r+0x61a>
    50d6:	9806      	ldr	r0, [sp, #24]
    50d8:	9907      	ldr	r1, [sp, #28]
    50da:	4b29      	ldr	r3, [pc, #164]	; (5180 <_dtoa_r+0x6d4>)
    50dc:	f7fd fe54 	bl	2d88 <__aeabi_dmul>
    50e0:	9006      	str	r0, [sp, #24]
    50e2:	9107      	str	r1, [sp, #28]
    50e4:	e7bb      	b.n	505e <_dtoa_r+0x5b2>
    50e6:	9e0a      	ldr	r6, [sp, #40]	; 0x28
    50e8:	9a08      	ldr	r2, [sp, #32]
    50ea:	9b09      	ldr	r3, [sp, #36]	; 0x24
    50ec:	9806      	ldr	r0, [sp, #24]
    50ee:	9907      	ldr	r1, [sp, #28]
    50f0:	f7fd fb16 	bl	2720 <__aeabi_ddiv>
    50f4:	f7fe fbde 	bl	38b4 <__aeabi_d2iz>
    50f8:	0004      	movs	r4, r0
    50fa:	f7fe fc0f 	bl	391c <__aeabi_i2d>
    50fe:	9a08      	ldr	r2, [sp, #32]
    5100:	9b09      	ldr	r3, [sp, #36]	; 0x24
    5102:	f7fd fe41 	bl	2d88 <__aeabi_dmul>
    5106:	000b      	movs	r3, r1
    5108:	0002      	movs	r2, r0
    510a:	9806      	ldr	r0, [sp, #24]
    510c:	9907      	ldr	r1, [sp, #28]
    510e:	f7fe f8bb 	bl	3288 <__aeabi_dsub>
    5112:	0023      	movs	r3, r4
    5114:	3330      	adds	r3, #48	; 0x30
    5116:	7033      	strb	r3, [r6, #0]
    5118:	9b0a      	ldr	r3, [sp, #40]	; 0x28
    511a:	1c75      	adds	r5, r6, #1
    511c:	1aeb      	subs	r3, r5, r3
    511e:	429f      	cmp	r7, r3
    5120:	d14c      	bne.n	51bc <_dtoa_r+0x710>
    5122:	0002      	movs	r2, r0
    5124:	000b      	movs	r3, r1
    5126:	f000 fab3 	bl	5690 <__aeabi_dadd>
    512a:	0006      	movs	r6, r0
    512c:	000f      	movs	r7, r1
    512e:	0002      	movs	r2, r0
    5130:	000b      	movs	r3, r1
    5132:	9808      	ldr	r0, [sp, #32]
    5134:	9909      	ldr	r1, [sp, #36]	; 0x24
    5136:	f7fe fcd3 	bl	3ae0 <__aeabi_dcmplt>
    513a:	2800      	cmp	r0, #0
    513c:	d12c      	bne.n	5198 <_dtoa_r+0x6ec>
    513e:	9808      	ldr	r0, [sp, #32]
    5140:	9909      	ldr	r1, [sp, #36]	; 0x24
    5142:	0032      	movs	r2, r6
    5144:	003b      	movs	r3, r7
    5146:	f7fe fcc5 	bl	3ad4 <__aeabi_dcmpeq>
    514a:	2800      	cmp	r0, #0
    514c:	d001      	beq.n	5152 <_dtoa_r+0x6a6>
    514e:	07e3      	lsls	r3, r4, #31
    5150:	d422      	bmi.n	5198 <_dtoa_r+0x6ec>
    5152:	9905      	ldr	r1, [sp, #20]
    5154:	9804      	ldr	r0, [sp, #16]
    5156:	f7ff f94b 	bl	43f0 <_Bfree>
    515a:	2300      	movs	r3, #0
    515c:	702b      	strb	r3, [r5, #0]
    515e:	9b03      	ldr	r3, [sp, #12]
    5160:	9a24      	ldr	r2, [sp, #144]	; 0x90
    5162:	3301      	adds	r3, #1
    5164:	6013      	str	r3, [r2, #0]
    5166:	9b26      	ldr	r3, [sp, #152]	; 0x98
    5168:	2b00      	cmp	r3, #0
    516a:	d100      	bne.n	516e <_dtoa_r+0x6c2>
    516c:	e275      	b.n	565a <_dtoa_r+0xbae>
    516e:	601d      	str	r5, [r3, #0]
    5170:	e273      	b.n	565a <_dtoa_r+0xbae>
    5172:	46c0      	nop			; (mov r8, r8)
    5174:	000061b8 	.word	0x000061b8
    5178:	00006190 	.word	0x00006190
    517c:	3ff00000 	.word	0x3ff00000
    5180:	40240000 	.word	0x40240000
    5184:	401c0000 	.word	0x401c0000
    5188:	fcc00000 	.word	0xfcc00000
    518c:	40140000 	.word	0x40140000
    5190:	7cc00000 	.word	0x7cc00000
    5194:	3fe00000 	.word	0x3fe00000
    5198:	9e03      	ldr	r6, [sp, #12]
    519a:	1e6b      	subs	r3, r5, #1
    519c:	781a      	ldrb	r2, [r3, #0]
    519e:	2a39      	cmp	r2, #57	; 0x39
    51a0:	d106      	bne.n	51b0 <_dtoa_r+0x704>
    51a2:	9a0a      	ldr	r2, [sp, #40]	; 0x28
    51a4:	429a      	cmp	r2, r3
    51a6:	d107      	bne.n	51b8 <_dtoa_r+0x70c>
    51a8:	2330      	movs	r3, #48	; 0x30
    51aa:	7013      	strb	r3, [r2, #0]
    51ac:	0013      	movs	r3, r2
    51ae:	3601      	adds	r6, #1
    51b0:	781a      	ldrb	r2, [r3, #0]
    51b2:	3201      	adds	r2, #1
    51b4:	701a      	strb	r2, [r3, #0]
    51b6:	e78a      	b.n	50ce <_dtoa_r+0x622>
    51b8:	001d      	movs	r5, r3
    51ba:	e7ee      	b.n	519a <_dtoa_r+0x6ee>
    51bc:	2200      	movs	r2, #0
    51be:	4bcf      	ldr	r3, [pc, #828]	; (54fc <_dtoa_r+0xa50>)
    51c0:	f7fd fde2 	bl	2d88 <__aeabi_dmul>
    51c4:	2200      	movs	r2, #0
    51c6:	2300      	movs	r3, #0
    51c8:	9006      	str	r0, [sp, #24]
    51ca:	9107      	str	r1, [sp, #28]
    51cc:	002e      	movs	r6, r5
    51ce:	f7fe fc81 	bl	3ad4 <__aeabi_dcmpeq>
    51d2:	2800      	cmp	r0, #0
    51d4:	d100      	bne.n	51d8 <_dtoa_r+0x72c>
    51d6:	e787      	b.n	50e8 <_dtoa_r+0x63c>
    51d8:	e7bb      	b.n	5152 <_dtoa_r+0x6a6>
    51da:	9a0e      	ldr	r2, [sp, #56]	; 0x38
    51dc:	2a00      	cmp	r2, #0
    51de:	d100      	bne.n	51e2 <_dtoa_r+0x736>
    51e0:	e087      	b.n	52f2 <_dtoa_r+0x846>
    51e2:	9a22      	ldr	r2, [sp, #136]	; 0x88
    51e4:	2a01      	cmp	r2, #1
    51e6:	dc6e      	bgt.n	52c6 <_dtoa_r+0x81a>
    51e8:	9a18      	ldr	r2, [sp, #96]	; 0x60
    51ea:	2a00      	cmp	r2, #0
    51ec:	d067      	beq.n	52be <_dtoa_r+0x812>
    51ee:	4ac4      	ldr	r2, [pc, #784]	; (5500 <_dtoa_r+0xa54>)
    51f0:	189b      	adds	r3, r3, r2
    51f2:	9d08      	ldr	r5, [sp, #32]
    51f4:	9c0b      	ldr	r4, [sp, #44]	; 0x2c
    51f6:	9a0b      	ldr	r2, [sp, #44]	; 0x2c
    51f8:	2101      	movs	r1, #1
    51fa:	18d2      	adds	r2, r2, r3
    51fc:	920b      	str	r2, [sp, #44]	; 0x2c
    51fe:	9a0c      	ldr	r2, [sp, #48]	; 0x30
    5200:	9804      	ldr	r0, [sp, #16]
    5202:	18d3      	adds	r3, r2, r3
    5204:	930c      	str	r3, [sp, #48]	; 0x30
    5206:	f7ff f991 	bl	452c <__i2b>
    520a:	0006      	movs	r6, r0
    520c:	2c00      	cmp	r4, #0
    520e:	dd0e      	ble.n	522e <_dtoa_r+0x782>
    5210:	9b0c      	ldr	r3, [sp, #48]	; 0x30
    5212:	2b00      	cmp	r3, #0
    5214:	dd0b      	ble.n	522e <_dtoa_r+0x782>
    5216:	9a0c      	ldr	r2, [sp, #48]	; 0x30
    5218:	0023      	movs	r3, r4
    521a:	4294      	cmp	r4, r2
    521c:	dd00      	ble.n	5220 <_dtoa_r+0x774>
    521e:	0013      	movs	r3, r2
    5220:	9a0b      	ldr	r2, [sp, #44]	; 0x2c
    5222:	1ae4      	subs	r4, r4, r3
    5224:	1ad2      	subs	r2, r2, r3
    5226:	920b      	str	r2, [sp, #44]	; 0x2c
    5228:	9a0c      	ldr	r2, [sp, #48]	; 0x30
    522a:	1ad3      	subs	r3, r2, r3
    522c:	930c      	str	r3, [sp, #48]	; 0x30
    522e:	9b08      	ldr	r3, [sp, #32]
    5230:	2b00      	cmp	r3, #0
    5232:	d01e      	beq.n	5272 <_dtoa_r+0x7c6>
    5234:	9b0e      	ldr	r3, [sp, #56]	; 0x38
    5236:	2b00      	cmp	r3, #0
    5238:	d05f      	beq.n	52fa <_dtoa_r+0x84e>
    523a:	2d00      	cmp	r5, #0
    523c:	dd11      	ble.n	5262 <_dtoa_r+0x7b6>
    523e:	0031      	movs	r1, r6
    5240:	002a      	movs	r2, r5
    5242:	9804      	ldr	r0, [sp, #16]
    5244:	f7ff fa0a 	bl	465c <__pow5mult>
    5248:	9a05      	ldr	r2, [sp, #20]
    524a:	0001      	movs	r1, r0
    524c:	0006      	movs	r6, r0
    524e:	9804      	ldr	r0, [sp, #16]
    5250:	f7ff f975 	bl	453e <__multiply>
    5254:	9905      	ldr	r1, [sp, #20]
    5256:	9010      	str	r0, [sp, #64]	; 0x40
    5258:	9804      	ldr	r0, [sp, #16]
    525a:	f7ff f8c9 	bl	43f0 <_Bfree>
    525e:	9b10      	ldr	r3, [sp, #64]	; 0x40
    5260:	9305      	str	r3, [sp, #20]
    5262:	9b08      	ldr	r3, [sp, #32]
    5264:	1b5a      	subs	r2, r3, r5
    5266:	d004      	beq.n	5272 <_dtoa_r+0x7c6>
    5268:	9905      	ldr	r1, [sp, #20]
    526a:	9804      	ldr	r0, [sp, #16]
    526c:	f7ff f9f6 	bl	465c <__pow5mult>
    5270:	9005      	str	r0, [sp, #20]
    5272:	2101      	movs	r1, #1
    5274:	9804      	ldr	r0, [sp, #16]
    5276:	f7ff f959 	bl	452c <__i2b>
    527a:	9b0f      	ldr	r3, [sp, #60]	; 0x3c
    527c:	9008      	str	r0, [sp, #32]
    527e:	2b00      	cmp	r3, #0
    5280:	dd3d      	ble.n	52fe <_dtoa_r+0x852>
    5282:	001a      	movs	r2, r3
    5284:	0001      	movs	r1, r0
    5286:	9804      	ldr	r0, [sp, #16]
    5288:	f7ff f9e8 	bl	465c <__pow5mult>
    528c:	9b22      	ldr	r3, [sp, #136]	; 0x88
    528e:	9008      	str	r0, [sp, #32]
    5290:	2500      	movs	r5, #0
    5292:	2b01      	cmp	r3, #1
    5294:	dc3b      	bgt.n	530e <_dtoa_r+0x862>
    5296:	2500      	movs	r5, #0
    5298:	9b06      	ldr	r3, [sp, #24]
    529a:	42ab      	cmp	r3, r5
    529c:	d133      	bne.n	5306 <_dtoa_r+0x85a>
    529e:	9b07      	ldr	r3, [sp, #28]
    52a0:	031b      	lsls	r3, r3, #12
    52a2:	42ab      	cmp	r3, r5
    52a4:	d12f      	bne.n	5306 <_dtoa_r+0x85a>
    52a6:	9b19      	ldr	r3, [sp, #100]	; 0x64
    52a8:	9a07      	ldr	r2, [sp, #28]
    52aa:	4213      	tst	r3, r2
    52ac:	d02b      	beq.n	5306 <_dtoa_r+0x85a>
    52ae:	9b0b      	ldr	r3, [sp, #44]	; 0x2c
    52b0:	3501      	adds	r5, #1
    52b2:	3301      	adds	r3, #1
    52b4:	930b      	str	r3, [sp, #44]	; 0x2c
    52b6:	9b0c      	ldr	r3, [sp, #48]	; 0x30
    52b8:	3301      	adds	r3, #1
    52ba:	930c      	str	r3, [sp, #48]	; 0x30
    52bc:	e023      	b.n	5306 <_dtoa_r+0x85a>
    52be:	2336      	movs	r3, #54	; 0x36
    52c0:	9a1a      	ldr	r2, [sp, #104]	; 0x68
    52c2:	1a9b      	subs	r3, r3, r2
    52c4:	e795      	b.n	51f2 <_dtoa_r+0x746>
    52c6:	9b08      	ldr	r3, [sp, #32]
    52c8:	1e7d      	subs	r5, r7, #1
    52ca:	42ab      	cmp	r3, r5
    52cc:	db06      	blt.n	52dc <_dtoa_r+0x830>
    52ce:	1b5d      	subs	r5, r3, r5
    52d0:	2f00      	cmp	r7, #0
    52d2:	da0b      	bge.n	52ec <_dtoa_r+0x840>
    52d4:	9b0b      	ldr	r3, [sp, #44]	; 0x2c
    52d6:	1bdc      	subs	r4, r3, r7
    52d8:	2300      	movs	r3, #0
    52da:	e78c      	b.n	51f6 <_dtoa_r+0x74a>
    52dc:	9b08      	ldr	r3, [sp, #32]
    52de:	9508      	str	r5, [sp, #32]
    52e0:	1aea      	subs	r2, r5, r3
    52e2:	9b0f      	ldr	r3, [sp, #60]	; 0x3c
    52e4:	2500      	movs	r5, #0
    52e6:	189b      	adds	r3, r3, r2
    52e8:	930f      	str	r3, [sp, #60]	; 0x3c
    52ea:	e7f1      	b.n	52d0 <_dtoa_r+0x824>
    52ec:	9c0b      	ldr	r4, [sp, #44]	; 0x2c
    52ee:	003b      	movs	r3, r7
    52f0:	e781      	b.n	51f6 <_dtoa_r+0x74a>
    52f2:	9d08      	ldr	r5, [sp, #32]
    52f4:	9c0b      	ldr	r4, [sp, #44]	; 0x2c
    52f6:	9e0e      	ldr	r6, [sp, #56]	; 0x38
    52f8:	e788      	b.n	520c <_dtoa_r+0x760>
    52fa:	9a08      	ldr	r2, [sp, #32]
    52fc:	e7b4      	b.n	5268 <_dtoa_r+0x7bc>
    52fe:	9b22      	ldr	r3, [sp, #136]	; 0x88
    5300:	2500      	movs	r5, #0
    5302:	2b01      	cmp	r3, #1
    5304:	ddc7      	ble.n	5296 <_dtoa_r+0x7ea>
    5306:	9b0f      	ldr	r3, [sp, #60]	; 0x3c
    5308:	2001      	movs	r0, #1
    530a:	2b00      	cmp	r3, #0
    530c:	d00b      	beq.n	5326 <_dtoa_r+0x87a>
    530e:	9b08      	ldr	r3, [sp, #32]
    5310:	9a08      	ldr	r2, [sp, #32]
    5312:	691b      	ldr	r3, [r3, #16]
    5314:	930f      	str	r3, [sp, #60]	; 0x3c
    5316:	3303      	adds	r3, #3
    5318:	009b      	lsls	r3, r3, #2
    531a:	18d3      	adds	r3, r2, r3
    531c:	6858      	ldr	r0, [r3, #4]
    531e:	f7ff f8bc 	bl	449a <__hi0bits>
    5322:	2320      	movs	r3, #32
    5324:	1a18      	subs	r0, r3, r0
    5326:	9b0c      	ldr	r3, [sp, #48]	; 0x30
    5328:	18c0      	adds	r0, r0, r3
    532a:	231f      	movs	r3, #31
    532c:	4018      	ands	r0, r3
    532e:	d100      	bne.n	5332 <_dtoa_r+0x886>
    5330:	e0ab      	b.n	548a <_dtoa_r+0x9de>
    5332:	3301      	adds	r3, #1
    5334:	1a1b      	subs	r3, r3, r0
    5336:	2b04      	cmp	r3, #4
    5338:	dc00      	bgt.n	533c <_dtoa_r+0x890>
    533a:	e09b      	b.n	5474 <_dtoa_r+0x9c8>
    533c:	231c      	movs	r3, #28
    533e:	1a18      	subs	r0, r3, r0
    5340:	9b0b      	ldr	r3, [sp, #44]	; 0x2c
    5342:	1824      	adds	r4, r4, r0
    5344:	181b      	adds	r3, r3, r0
    5346:	930b      	str	r3, [sp, #44]	; 0x2c
    5348:	9b0c      	ldr	r3, [sp, #48]	; 0x30
    534a:	181b      	adds	r3, r3, r0
    534c:	930c      	str	r3, [sp, #48]	; 0x30
    534e:	9b0b      	ldr	r3, [sp, #44]	; 0x2c
    5350:	2b00      	cmp	r3, #0
    5352:	dd05      	ble.n	5360 <_dtoa_r+0x8b4>
    5354:	001a      	movs	r2, r3
    5356:	9905      	ldr	r1, [sp, #20]
    5358:	9804      	ldr	r0, [sp, #16]
    535a:	f7ff f9d1 	bl	4700 <__lshift>
    535e:	9005      	str	r0, [sp, #20]
    5360:	9b0c      	ldr	r3, [sp, #48]	; 0x30
    5362:	2b00      	cmp	r3, #0
    5364:	dd05      	ble.n	5372 <_dtoa_r+0x8c6>
    5366:	001a      	movs	r2, r3
    5368:	9908      	ldr	r1, [sp, #32]
    536a:	9804      	ldr	r0, [sp, #16]
    536c:	f7ff f9c8 	bl	4700 <__lshift>
    5370:	9008      	str	r0, [sp, #32]
    5372:	9b16      	ldr	r3, [sp, #88]	; 0x58
    5374:	2b00      	cmp	r3, #0
    5376:	d100      	bne.n	537a <_dtoa_r+0x8ce>
    5378:	e089      	b.n	548e <_dtoa_r+0x9e2>
    537a:	9908      	ldr	r1, [sp, #32]
    537c:	9805      	ldr	r0, [sp, #20]
    537e:	f7ff fa10 	bl	47a2 <__mcmp>
    5382:	2800      	cmp	r0, #0
    5384:	db00      	blt.n	5388 <_dtoa_r+0x8dc>
    5386:	e082      	b.n	548e <_dtoa_r+0x9e2>
    5388:	9b03      	ldr	r3, [sp, #12]
    538a:	220a      	movs	r2, #10
    538c:	3b01      	subs	r3, #1
    538e:	9303      	str	r3, [sp, #12]
    5390:	9905      	ldr	r1, [sp, #20]
    5392:	2300      	movs	r3, #0
    5394:	9804      	ldr	r0, [sp, #16]
    5396:	f7ff f844 	bl	4422 <__multadd>
    539a:	9b0e      	ldr	r3, [sp, #56]	; 0x38
    539c:	9005      	str	r0, [sp, #20]
    539e:	2b00      	cmp	r3, #0
    53a0:	d100      	bne.n	53a4 <_dtoa_r+0x8f8>
    53a2:	e15d      	b.n	5660 <_dtoa_r+0xbb4>
    53a4:	2300      	movs	r3, #0
    53a6:	0031      	movs	r1, r6
    53a8:	220a      	movs	r2, #10
    53aa:	9804      	ldr	r0, [sp, #16]
    53ac:	f7ff f839 	bl	4422 <__multadd>
    53b0:	9b0d      	ldr	r3, [sp, #52]	; 0x34
    53b2:	0006      	movs	r6, r0
    53b4:	2b00      	cmp	r3, #0
    53b6:	dc02      	bgt.n	53be <_dtoa_r+0x912>
    53b8:	9b22      	ldr	r3, [sp, #136]	; 0x88
    53ba:	2b02      	cmp	r3, #2
    53bc:	dc6d      	bgt.n	549a <_dtoa_r+0x9ee>
    53be:	2c00      	cmp	r4, #0
    53c0:	dd05      	ble.n	53ce <_dtoa_r+0x922>
    53c2:	0031      	movs	r1, r6
    53c4:	0022      	movs	r2, r4
    53c6:	9804      	ldr	r0, [sp, #16]
    53c8:	f7ff f99a 	bl	4700 <__lshift>
    53cc:	0006      	movs	r6, r0
    53ce:	0030      	movs	r0, r6
    53d0:	2d00      	cmp	r5, #0
    53d2:	d011      	beq.n	53f8 <_dtoa_r+0x94c>
    53d4:	6871      	ldr	r1, [r6, #4]
    53d6:	9804      	ldr	r0, [sp, #16]
    53d8:	f7fe ffd2 	bl	4380 <_Balloc>
    53dc:	0031      	movs	r1, r6
    53de:	0004      	movs	r4, r0
    53e0:	6933      	ldr	r3, [r6, #16]
    53e2:	310c      	adds	r1, #12
    53e4:	1c9a      	adds	r2, r3, #2
    53e6:	0092      	lsls	r2, r2, #2
    53e8:	300c      	adds	r0, #12
    53ea:	f7fe fdf5 	bl	3fd8 <memcpy>
    53ee:	2201      	movs	r2, #1
    53f0:	0021      	movs	r1, r4
    53f2:	9804      	ldr	r0, [sp, #16]
    53f4:	f7ff f984 	bl	4700 <__lshift>
    53f8:	9f0d      	ldr	r7, [sp, #52]	; 0x34
    53fa:	9b0a      	ldr	r3, [sp, #40]	; 0x28
    53fc:	3f01      	subs	r7, #1
    53fe:	930b      	str	r3, [sp, #44]	; 0x2c
    5400:	19db      	adds	r3, r3, r7
    5402:	0037      	movs	r7, r6
    5404:	0006      	movs	r6, r0
    5406:	930f      	str	r3, [sp, #60]	; 0x3c
    5408:	9908      	ldr	r1, [sp, #32]
    540a:	9805      	ldr	r0, [sp, #20]
    540c:	f7ff faca 	bl	49a4 <quorem>
    5410:	0039      	movs	r1, r7
    5412:	900d      	str	r0, [sp, #52]	; 0x34
    5414:	0004      	movs	r4, r0
    5416:	9805      	ldr	r0, [sp, #20]
    5418:	f7ff f9c3 	bl	47a2 <__mcmp>
    541c:	0032      	movs	r2, r6
    541e:	900e      	str	r0, [sp, #56]	; 0x38
    5420:	9908      	ldr	r1, [sp, #32]
    5422:	9804      	ldr	r0, [sp, #16]
    5424:	f7ff f9d6 	bl	47d4 <__mdiff>
    5428:	2301      	movs	r3, #1
    542a:	930c      	str	r3, [sp, #48]	; 0x30
    542c:	68c3      	ldr	r3, [r0, #12]
    542e:	3430      	adds	r4, #48	; 0x30
    5430:	0005      	movs	r5, r0
    5432:	2b00      	cmp	r3, #0
    5434:	d104      	bne.n	5440 <_dtoa_r+0x994>
    5436:	0001      	movs	r1, r0
    5438:	9805      	ldr	r0, [sp, #20]
    543a:	f7ff f9b2 	bl	47a2 <__mcmp>
    543e:	900c      	str	r0, [sp, #48]	; 0x30
    5440:	0029      	movs	r1, r5
    5442:	9804      	ldr	r0, [sp, #16]
    5444:	f7fe ffd4 	bl	43f0 <_Bfree>
    5448:	9b0c      	ldr	r3, [sp, #48]	; 0x30
    544a:	9a22      	ldr	r2, [sp, #136]	; 0x88
    544c:	4313      	orrs	r3, r2
    544e:	d000      	beq.n	5452 <_dtoa_r+0x9a6>
    5450:	e089      	b.n	5566 <_dtoa_r+0xaba>
    5452:	9a06      	ldr	r2, [sp, #24]
    5454:	3301      	adds	r3, #1
    5456:	4213      	tst	r3, r2
    5458:	d000      	beq.n	545c <_dtoa_r+0x9b0>
    545a:	e084      	b.n	5566 <_dtoa_r+0xaba>
    545c:	2c39      	cmp	r4, #57	; 0x39
    545e:	d100      	bne.n	5462 <_dtoa_r+0x9b6>
    5460:	e0a3      	b.n	55aa <_dtoa_r+0xafe>
    5462:	9b0e      	ldr	r3, [sp, #56]	; 0x38
    5464:	2b00      	cmp	r3, #0
    5466:	dd01      	ble.n	546c <_dtoa_r+0x9c0>
    5468:	9c0d      	ldr	r4, [sp, #52]	; 0x34
    546a:	3431      	adds	r4, #49	; 0x31
    546c:	9b0b      	ldr	r3, [sp, #44]	; 0x2c
    546e:	1c5d      	adds	r5, r3, #1
    5470:	701c      	strb	r4, [r3, #0]
    5472:	e027      	b.n	54c4 <_dtoa_r+0xa18>
    5474:	2b04      	cmp	r3, #4
    5476:	d100      	bne.n	547a <_dtoa_r+0x9ce>
    5478:	e769      	b.n	534e <_dtoa_r+0x8a2>
    547a:	9a0b      	ldr	r2, [sp, #44]	; 0x2c
    547c:	331c      	adds	r3, #28
    547e:	18d2      	adds	r2, r2, r3
    5480:	920b      	str	r2, [sp, #44]	; 0x2c
    5482:	9a0c      	ldr	r2, [sp, #48]	; 0x30
    5484:	18e4      	adds	r4, r4, r3
    5486:	18d3      	adds	r3, r2, r3
    5488:	e760      	b.n	534c <_dtoa_r+0x8a0>
    548a:	0003      	movs	r3, r0
    548c:	e7f5      	b.n	547a <_dtoa_r+0x9ce>
    548e:	2f00      	cmp	r7, #0
    5490:	dc3c      	bgt.n	550c <_dtoa_r+0xa60>
    5492:	9b22      	ldr	r3, [sp, #136]	; 0x88
    5494:	2b02      	cmp	r3, #2
    5496:	dd39      	ble.n	550c <_dtoa_r+0xa60>
    5498:	970d      	str	r7, [sp, #52]	; 0x34
    549a:	9b0d      	ldr	r3, [sp, #52]	; 0x34
    549c:	2b00      	cmp	r3, #0
    549e:	d10c      	bne.n	54ba <_dtoa_r+0xa0e>
    54a0:	9908      	ldr	r1, [sp, #32]
    54a2:	2205      	movs	r2, #5
    54a4:	9804      	ldr	r0, [sp, #16]
    54a6:	f7fe ffbc 	bl	4422 <__multadd>
    54aa:	9008      	str	r0, [sp, #32]
    54ac:	0001      	movs	r1, r0
    54ae:	9805      	ldr	r0, [sp, #20]
    54b0:	f7ff f977 	bl	47a2 <__mcmp>
    54b4:	2800      	cmp	r0, #0
    54b6:	dd00      	ble.n	54ba <_dtoa_r+0xa0e>
    54b8:	e55a      	b.n	4f70 <_dtoa_r+0x4c4>
    54ba:	9b23      	ldr	r3, [sp, #140]	; 0x8c
    54bc:	9d0a      	ldr	r5, [sp, #40]	; 0x28
    54be:	43db      	mvns	r3, r3
    54c0:	9303      	str	r3, [sp, #12]
    54c2:	2700      	movs	r7, #0
    54c4:	9908      	ldr	r1, [sp, #32]
    54c6:	9804      	ldr	r0, [sp, #16]
    54c8:	f7fe ff92 	bl	43f0 <_Bfree>
    54cc:	2e00      	cmp	r6, #0
    54ce:	d100      	bne.n	54d2 <_dtoa_r+0xa26>
    54d0:	e63f      	b.n	5152 <_dtoa_r+0x6a6>
    54d2:	2f00      	cmp	r7, #0
    54d4:	d005      	beq.n	54e2 <_dtoa_r+0xa36>
    54d6:	42b7      	cmp	r7, r6
    54d8:	d003      	beq.n	54e2 <_dtoa_r+0xa36>
    54da:	0039      	movs	r1, r7
    54dc:	9804      	ldr	r0, [sp, #16]
    54de:	f7fe ff87 	bl	43f0 <_Bfree>
    54e2:	0031      	movs	r1, r6
    54e4:	9804      	ldr	r0, [sp, #16]
    54e6:	f7fe ff83 	bl	43f0 <_Bfree>
    54ea:	e632      	b.n	5152 <_dtoa_r+0x6a6>
    54ec:	9508      	str	r5, [sp, #32]
    54ee:	002e      	movs	r6, r5
    54f0:	e7e3      	b.n	54ba <_dtoa_r+0xa0e>
    54f2:	2300      	movs	r3, #0
    54f4:	9308      	str	r3, [sp, #32]
    54f6:	001e      	movs	r6, r3
    54f8:	e7df      	b.n	54ba <_dtoa_r+0xa0e>
    54fa:	46c0      	nop			; (mov r8, r8)
    54fc:	40240000 	.word	0x40240000
    5500:	00000433 	.word	0x00000433
    5504:	9603      	str	r6, [sp, #12]
    5506:	9508      	str	r5, [sp, #32]
    5508:	002e      	movs	r6, r5
    550a:	e531      	b.n	4f70 <_dtoa_r+0x4c4>
    550c:	9b0e      	ldr	r3, [sp, #56]	; 0x38
    550e:	970d      	str	r7, [sp, #52]	; 0x34
    5510:	2b00      	cmp	r3, #0
    5512:	d000      	beq.n	5516 <_dtoa_r+0xa6a>
    5514:	e753      	b.n	53be <_dtoa_r+0x912>
    5516:	9d0a      	ldr	r5, [sp, #40]	; 0x28
    5518:	9908      	ldr	r1, [sp, #32]
    551a:	9805      	ldr	r0, [sp, #20]
    551c:	f7ff fa42 	bl	49a4 <quorem>
    5520:	9b0a      	ldr	r3, [sp, #40]	; 0x28
    5522:	3030      	adds	r0, #48	; 0x30
    5524:	9a0d      	ldr	r2, [sp, #52]	; 0x34
    5526:	7028      	strb	r0, [r5, #0]
    5528:	3501      	adds	r5, #1
    552a:	0004      	movs	r4, r0
    552c:	1aeb      	subs	r3, r5, r3
    552e:	429a      	cmp	r2, r3
    5530:	dc78      	bgt.n	5624 <_dtoa_r+0xb78>
    5532:	1e15      	subs	r5, r2, #0
    5534:	dc00      	bgt.n	5538 <_dtoa_r+0xa8c>
    5536:	2501      	movs	r5, #1
    5538:	2700      	movs	r7, #0
    553a:	9b0a      	ldr	r3, [sp, #40]	; 0x28
    553c:	195d      	adds	r5, r3, r5
    553e:	9905      	ldr	r1, [sp, #20]
    5540:	2201      	movs	r2, #1
    5542:	9804      	ldr	r0, [sp, #16]
    5544:	f7ff f8dc 	bl	4700 <__lshift>
    5548:	9908      	ldr	r1, [sp, #32]
    554a:	9005      	str	r0, [sp, #20]
    554c:	f7ff f929 	bl	47a2 <__mcmp>
    5550:	2800      	cmp	r0, #0
    5552:	dc2f      	bgt.n	55b4 <_dtoa_r+0xb08>
    5554:	d101      	bne.n	555a <_dtoa_r+0xaae>
    5556:	07e3      	lsls	r3, r4, #31
    5558:	d42c      	bmi.n	55b4 <_dtoa_r+0xb08>
    555a:	1e6b      	subs	r3, r5, #1
    555c:	781a      	ldrb	r2, [r3, #0]
    555e:	2a30      	cmp	r2, #48	; 0x30
    5560:	d1b0      	bne.n	54c4 <_dtoa_r+0xa18>
    5562:	001d      	movs	r5, r3
    5564:	e7f9      	b.n	555a <_dtoa_r+0xaae>
    5566:	9b0e      	ldr	r3, [sp, #56]	; 0x38
    5568:	2b00      	cmp	r3, #0
    556a:	db07      	blt.n	557c <_dtoa_r+0xad0>
    556c:	001d      	movs	r5, r3
    556e:	9b22      	ldr	r3, [sp, #136]	; 0x88
    5570:	431d      	orrs	r5, r3
    5572:	d126      	bne.n	55c2 <_dtoa_r+0xb16>
    5574:	2301      	movs	r3, #1
    5576:	9a06      	ldr	r2, [sp, #24]
    5578:	4213      	tst	r3, r2
    557a:	d122      	bne.n	55c2 <_dtoa_r+0xb16>
    557c:	9b0c      	ldr	r3, [sp, #48]	; 0x30
    557e:	2b00      	cmp	r3, #0
    5580:	dc00      	bgt.n	5584 <_dtoa_r+0xad8>
    5582:	e773      	b.n	546c <_dtoa_r+0x9c0>
    5584:	9905      	ldr	r1, [sp, #20]
    5586:	2201      	movs	r2, #1
    5588:	9804      	ldr	r0, [sp, #16]
    558a:	f7ff f8b9 	bl	4700 <__lshift>
    558e:	9908      	ldr	r1, [sp, #32]
    5590:	9005      	str	r0, [sp, #20]
    5592:	f7ff f906 	bl	47a2 <__mcmp>
    5596:	2800      	cmp	r0, #0
    5598:	dc04      	bgt.n	55a4 <_dtoa_r+0xaf8>
    559a:	d000      	beq.n	559e <_dtoa_r+0xaf2>
    559c:	e766      	b.n	546c <_dtoa_r+0x9c0>
    559e:	07e3      	lsls	r3, r4, #31
    55a0:	d400      	bmi.n	55a4 <_dtoa_r+0xaf8>
    55a2:	e763      	b.n	546c <_dtoa_r+0x9c0>
    55a4:	2c39      	cmp	r4, #57	; 0x39
    55a6:	d000      	beq.n	55aa <_dtoa_r+0xafe>
    55a8:	e75e      	b.n	5468 <_dtoa_r+0x9bc>
    55aa:	9b0b      	ldr	r3, [sp, #44]	; 0x2c
    55ac:	9a0b      	ldr	r2, [sp, #44]	; 0x2c
    55ae:	1c5d      	adds	r5, r3, #1
    55b0:	2339      	movs	r3, #57	; 0x39
    55b2:	7013      	strb	r3, [r2, #0]
    55b4:	1e6b      	subs	r3, r5, #1
    55b6:	781a      	ldrb	r2, [r3, #0]
    55b8:	2a39      	cmp	r2, #57	; 0x39
    55ba:	d03b      	beq.n	5634 <_dtoa_r+0xb88>
    55bc:	3201      	adds	r2, #1
    55be:	701a      	strb	r2, [r3, #0]
    55c0:	e780      	b.n	54c4 <_dtoa_r+0xa18>
    55c2:	9b0b      	ldr	r3, [sp, #44]	; 0x2c
    55c4:	3301      	adds	r3, #1
    55c6:	930d      	str	r3, [sp, #52]	; 0x34
    55c8:	9b0c      	ldr	r3, [sp, #48]	; 0x30
    55ca:	2b00      	cmp	r3, #0
    55cc:	dd05      	ble.n	55da <_dtoa_r+0xb2e>
    55ce:	2c39      	cmp	r4, #57	; 0x39
    55d0:	d0eb      	beq.n	55aa <_dtoa_r+0xafe>
    55d2:	9d0d      	ldr	r5, [sp, #52]	; 0x34
    55d4:	3401      	adds	r4, #1
    55d6:	9b0b      	ldr	r3, [sp, #44]	; 0x2c
    55d8:	e74a      	b.n	5470 <_dtoa_r+0x9c4>
    55da:	9b0b      	ldr	r3, [sp, #44]	; 0x2c
    55dc:	9a0f      	ldr	r2, [sp, #60]	; 0x3c
    55de:	9d0d      	ldr	r5, [sp, #52]	; 0x34
    55e0:	701c      	strb	r4, [r3, #0]
    55e2:	4293      	cmp	r3, r2
    55e4:	d0ab      	beq.n	553e <_dtoa_r+0xa92>
    55e6:	2300      	movs	r3, #0
    55e8:	220a      	movs	r2, #10
    55ea:	9905      	ldr	r1, [sp, #20]
    55ec:	9804      	ldr	r0, [sp, #16]
    55ee:	f7fe ff18 	bl	4422 <__multadd>
    55f2:	2300      	movs	r3, #0
    55f4:	9005      	str	r0, [sp, #20]
    55f6:	220a      	movs	r2, #10
    55f8:	0039      	movs	r1, r7
    55fa:	9804      	ldr	r0, [sp, #16]
    55fc:	42b7      	cmp	r7, r6
    55fe:	d106      	bne.n	560e <_dtoa_r+0xb62>
    5600:	f7fe ff0f 	bl	4422 <__multadd>
    5604:	0007      	movs	r7, r0
    5606:	0006      	movs	r6, r0
    5608:	9b0d      	ldr	r3, [sp, #52]	; 0x34
    560a:	930b      	str	r3, [sp, #44]	; 0x2c
    560c:	e6fc      	b.n	5408 <_dtoa_r+0x95c>
    560e:	f7fe ff08 	bl	4422 <__multadd>
    5612:	0031      	movs	r1, r6
    5614:	0007      	movs	r7, r0
    5616:	2300      	movs	r3, #0
    5618:	220a      	movs	r2, #10
    561a:	9804      	ldr	r0, [sp, #16]
    561c:	f7fe ff01 	bl	4422 <__multadd>
    5620:	0006      	movs	r6, r0
    5622:	e7f1      	b.n	5608 <_dtoa_r+0xb5c>
    5624:	2300      	movs	r3, #0
    5626:	220a      	movs	r2, #10
    5628:	9905      	ldr	r1, [sp, #20]
    562a:	9804      	ldr	r0, [sp, #16]
    562c:	f7fe fef9 	bl	4422 <__multadd>
    5630:	9005      	str	r0, [sp, #20]
    5632:	e771      	b.n	5518 <_dtoa_r+0xa6c>
    5634:	9a0a      	ldr	r2, [sp, #40]	; 0x28
    5636:	429a      	cmp	r2, r3
    5638:	d105      	bne.n	5646 <_dtoa_r+0xb9a>
    563a:	9b03      	ldr	r3, [sp, #12]
    563c:	3301      	adds	r3, #1
    563e:	9303      	str	r3, [sp, #12]
    5640:	2331      	movs	r3, #49	; 0x31
    5642:	7013      	strb	r3, [r2, #0]
    5644:	e73e      	b.n	54c4 <_dtoa_r+0xa18>
    5646:	001d      	movs	r5, r3
    5648:	e7b4      	b.n	55b4 <_dtoa_r+0xb08>
    564a:	4b0a      	ldr	r3, [pc, #40]	; (5674 <_dtoa_r+0xbc8>)
    564c:	9a26      	ldr	r2, [sp, #152]	; 0x98
    564e:	930a      	str	r3, [sp, #40]	; 0x28
    5650:	4b09      	ldr	r3, [pc, #36]	; (5678 <_dtoa_r+0xbcc>)
    5652:	2a00      	cmp	r2, #0
    5654:	d001      	beq.n	565a <_dtoa_r+0xbae>
    5656:	9a26      	ldr	r2, [sp, #152]	; 0x98
    5658:	6013      	str	r3, [r2, #0]
    565a:	980a      	ldr	r0, [sp, #40]	; 0x28
    565c:	b01d      	add	sp, #116	; 0x74
    565e:	bdf0      	pop	{r4, r5, r6, r7, pc}
    5660:	9b0d      	ldr	r3, [sp, #52]	; 0x34
    5662:	2b00      	cmp	r3, #0
    5664:	dd00      	ble.n	5668 <_dtoa_r+0xbbc>
    5666:	e756      	b.n	5516 <_dtoa_r+0xa6a>
    5668:	9b22      	ldr	r3, [sp, #136]	; 0x88
    566a:	2b02      	cmp	r3, #2
    566c:	dc00      	bgt.n	5670 <_dtoa_r+0xbc4>
    566e:	e752      	b.n	5516 <_dtoa_r+0xa6a>
    5670:	e713      	b.n	549a <_dtoa_r+0x9ee>
    5672:	46c0      	nop			; (mov r8, r8)
    5674:	0000628c 	.word	0x0000628c
    5678:	00006294 	.word	0x00006294

0000567c <__gnu_thumb1_case_uqi>:
    567c:	b402      	push	{r1}
    567e:	4671      	mov	r1, lr
    5680:	0849      	lsrs	r1, r1, #1
    5682:	0049      	lsls	r1, r1, #1
    5684:	5c09      	ldrb	r1, [r1, r0]
    5686:	0049      	lsls	r1, r1, #1
    5688:	448e      	add	lr, r1
    568a:	bc02      	pop	{r1}
    568c:	4770      	bx	lr
    568e:	46c0      	nop			; (mov r8, r8)

00005690 <__aeabi_dadd>:
    5690:	b5f8      	push	{r3, r4, r5, r6, r7, lr}
    5692:	4645      	mov	r5, r8
    5694:	46de      	mov	lr, fp
    5696:	4657      	mov	r7, sl
    5698:	464e      	mov	r6, r9
    569a:	030c      	lsls	r4, r1, #12
    569c:	b5e0      	push	{r5, r6, r7, lr}
    569e:	004e      	lsls	r6, r1, #1
    56a0:	0fc9      	lsrs	r1, r1, #31
    56a2:	4688      	mov	r8, r1
    56a4:	000d      	movs	r5, r1
    56a6:	0a61      	lsrs	r1, r4, #9
    56a8:	0f44      	lsrs	r4, r0, #29
    56aa:	430c      	orrs	r4, r1
    56ac:	00c7      	lsls	r7, r0, #3
    56ae:	0319      	lsls	r1, r3, #12
    56b0:	0058      	lsls	r0, r3, #1
    56b2:	0fdb      	lsrs	r3, r3, #31
    56b4:	469b      	mov	fp, r3
    56b6:	0a4b      	lsrs	r3, r1, #9
    56b8:	0f51      	lsrs	r1, r2, #29
    56ba:	430b      	orrs	r3, r1
    56bc:	0d76      	lsrs	r6, r6, #21
    56be:	0d40      	lsrs	r0, r0, #21
    56c0:	0019      	movs	r1, r3
    56c2:	00d2      	lsls	r2, r2, #3
    56c4:	45d8      	cmp	r8, fp
    56c6:	d100      	bne.n	56ca <__aeabi_dadd+0x3a>
    56c8:	e0ae      	b.n	5828 <__aeabi_dadd+0x198>
    56ca:	1a35      	subs	r5, r6, r0
    56cc:	2d00      	cmp	r5, #0
    56ce:	dc00      	bgt.n	56d2 <__aeabi_dadd+0x42>
    56d0:	e0f6      	b.n	58c0 <__aeabi_dadd+0x230>
    56d2:	2800      	cmp	r0, #0
    56d4:	d10f      	bne.n	56f6 <__aeabi_dadd+0x66>
    56d6:	4313      	orrs	r3, r2
    56d8:	d100      	bne.n	56dc <__aeabi_dadd+0x4c>
    56da:	e0db      	b.n	5894 <__aeabi_dadd+0x204>
    56dc:	1e6b      	subs	r3, r5, #1
    56de:	2b00      	cmp	r3, #0
    56e0:	d000      	beq.n	56e4 <__aeabi_dadd+0x54>
    56e2:	e137      	b.n	5954 <__aeabi_dadd+0x2c4>
    56e4:	1aba      	subs	r2, r7, r2
    56e6:	4297      	cmp	r7, r2
    56e8:	41bf      	sbcs	r7, r7
    56ea:	1a64      	subs	r4, r4, r1
    56ec:	427f      	negs	r7, r7
    56ee:	1be4      	subs	r4, r4, r7
    56f0:	2601      	movs	r6, #1
    56f2:	0017      	movs	r7, r2
    56f4:	e024      	b.n	5740 <__aeabi_dadd+0xb0>
    56f6:	4bc6      	ldr	r3, [pc, #792]	; (5a10 <__aeabi_dadd+0x380>)
    56f8:	429e      	cmp	r6, r3
    56fa:	d04d      	beq.n	5798 <__aeabi_dadd+0x108>
    56fc:	2380      	movs	r3, #128	; 0x80
    56fe:	041b      	lsls	r3, r3, #16
    5700:	4319      	orrs	r1, r3
    5702:	2d38      	cmp	r5, #56	; 0x38
    5704:	dd00      	ble.n	5708 <__aeabi_dadd+0x78>
    5706:	e107      	b.n	5918 <__aeabi_dadd+0x288>
    5708:	2d1f      	cmp	r5, #31
    570a:	dd00      	ble.n	570e <__aeabi_dadd+0x7e>
    570c:	e138      	b.n	5980 <__aeabi_dadd+0x2f0>
    570e:	2020      	movs	r0, #32
    5710:	1b43      	subs	r3, r0, r5
    5712:	469a      	mov	sl, r3
    5714:	000b      	movs	r3, r1
    5716:	4650      	mov	r0, sl
    5718:	4083      	lsls	r3, r0
    571a:	4699      	mov	r9, r3
    571c:	0013      	movs	r3, r2
    571e:	4648      	mov	r0, r9
    5720:	40eb      	lsrs	r3, r5
    5722:	4318      	orrs	r0, r3
    5724:	0003      	movs	r3, r0
    5726:	4650      	mov	r0, sl
    5728:	4082      	lsls	r2, r0
    572a:	1e50      	subs	r0, r2, #1
    572c:	4182      	sbcs	r2, r0
    572e:	40e9      	lsrs	r1, r5
    5730:	431a      	orrs	r2, r3
    5732:	1aba      	subs	r2, r7, r2
    5734:	1a61      	subs	r1, r4, r1
    5736:	4297      	cmp	r7, r2
    5738:	41a4      	sbcs	r4, r4
    573a:	0017      	movs	r7, r2
    573c:	4264      	negs	r4, r4
    573e:	1b0c      	subs	r4, r1, r4
    5740:	0223      	lsls	r3, r4, #8
    5742:	d562      	bpl.n	580a <__aeabi_dadd+0x17a>
    5744:	0264      	lsls	r4, r4, #9
    5746:	0a65      	lsrs	r5, r4, #9
    5748:	2d00      	cmp	r5, #0
    574a:	d100      	bne.n	574e <__aeabi_dadd+0xbe>
    574c:	e0df      	b.n	590e <__aeabi_dadd+0x27e>
    574e:	0028      	movs	r0, r5
    5750:	f7fe fa28 	bl	3ba4 <__clzsi2>
    5754:	0003      	movs	r3, r0
    5756:	3b08      	subs	r3, #8
    5758:	2b1f      	cmp	r3, #31
    575a:	dd00      	ble.n	575e <__aeabi_dadd+0xce>
    575c:	e0d2      	b.n	5904 <__aeabi_dadd+0x274>
    575e:	2220      	movs	r2, #32
    5760:	003c      	movs	r4, r7
    5762:	1ad2      	subs	r2, r2, r3
    5764:	409d      	lsls	r5, r3
    5766:	40d4      	lsrs	r4, r2
    5768:	409f      	lsls	r7, r3
    576a:	4325      	orrs	r5, r4
    576c:	429e      	cmp	r6, r3
    576e:	dd00      	ble.n	5772 <__aeabi_dadd+0xe2>
    5770:	e0c4      	b.n	58fc <__aeabi_dadd+0x26c>
    5772:	1b9e      	subs	r6, r3, r6
    5774:	1c73      	adds	r3, r6, #1
    5776:	2b1f      	cmp	r3, #31
    5778:	dd00      	ble.n	577c <__aeabi_dadd+0xec>
    577a:	e0f1      	b.n	5960 <__aeabi_dadd+0x2d0>
    577c:	2220      	movs	r2, #32
    577e:	0038      	movs	r0, r7
    5780:	0029      	movs	r1, r5
    5782:	1ad2      	subs	r2, r2, r3
    5784:	40d8      	lsrs	r0, r3
    5786:	4091      	lsls	r1, r2
    5788:	4097      	lsls	r7, r2
    578a:	002c      	movs	r4, r5
    578c:	4301      	orrs	r1, r0
    578e:	1e78      	subs	r0, r7, #1
    5790:	4187      	sbcs	r7, r0
    5792:	40dc      	lsrs	r4, r3
    5794:	2600      	movs	r6, #0
    5796:	430f      	orrs	r7, r1
    5798:	077b      	lsls	r3, r7, #29
    579a:	d009      	beq.n	57b0 <__aeabi_dadd+0x120>
    579c:	230f      	movs	r3, #15
    579e:	403b      	ands	r3, r7
    57a0:	2b04      	cmp	r3, #4
    57a2:	d005      	beq.n	57b0 <__aeabi_dadd+0x120>
    57a4:	1d3b      	adds	r3, r7, #4
    57a6:	42bb      	cmp	r3, r7
    57a8:	41bf      	sbcs	r7, r7
    57aa:	427f      	negs	r7, r7
    57ac:	19e4      	adds	r4, r4, r7
    57ae:	001f      	movs	r7, r3
    57b0:	0223      	lsls	r3, r4, #8
    57b2:	d52c      	bpl.n	580e <__aeabi_dadd+0x17e>
    57b4:	4b96      	ldr	r3, [pc, #600]	; (5a10 <__aeabi_dadd+0x380>)
    57b6:	3601      	adds	r6, #1
    57b8:	429e      	cmp	r6, r3
    57ba:	d100      	bne.n	57be <__aeabi_dadd+0x12e>
    57bc:	e09a      	b.n	58f4 <__aeabi_dadd+0x264>
    57be:	4645      	mov	r5, r8
    57c0:	4b94      	ldr	r3, [pc, #592]	; (5a14 <__aeabi_dadd+0x384>)
    57c2:	08ff      	lsrs	r7, r7, #3
    57c4:	401c      	ands	r4, r3
    57c6:	0760      	lsls	r0, r4, #29
    57c8:	0576      	lsls	r6, r6, #21
    57ca:	0264      	lsls	r4, r4, #9
    57cc:	4307      	orrs	r7, r0
    57ce:	0b24      	lsrs	r4, r4, #12
    57d0:	0d76      	lsrs	r6, r6, #21
    57d2:	2100      	movs	r1, #0
    57d4:	0324      	lsls	r4, r4, #12
    57d6:	0b23      	lsrs	r3, r4, #12
    57d8:	0d0c      	lsrs	r4, r1, #20
    57da:	4a8f      	ldr	r2, [pc, #572]	; (5a18 <__aeabi_dadd+0x388>)
    57dc:	0524      	lsls	r4, r4, #20
    57de:	431c      	orrs	r4, r3
    57e0:	4014      	ands	r4, r2
    57e2:	0533      	lsls	r3, r6, #20
    57e4:	4323      	orrs	r3, r4
    57e6:	005b      	lsls	r3, r3, #1
    57e8:	07ed      	lsls	r5, r5, #31
    57ea:	085b      	lsrs	r3, r3, #1
    57ec:	432b      	orrs	r3, r5
    57ee:	0038      	movs	r0, r7
    57f0:	0019      	movs	r1, r3
    57f2:	bc3c      	pop	{r2, r3, r4, r5}
    57f4:	4690      	mov	r8, r2
    57f6:	4699      	mov	r9, r3
    57f8:	46a2      	mov	sl, r4
    57fa:	46ab      	mov	fp, r5
    57fc:	bdf8      	pop	{r3, r4, r5, r6, r7, pc}
    57fe:	4664      	mov	r4, ip
    5800:	4304      	orrs	r4, r0
    5802:	d100      	bne.n	5806 <__aeabi_dadd+0x176>
    5804:	e211      	b.n	5c2a <__aeabi_dadd+0x59a>
    5806:	0004      	movs	r4, r0
    5808:	4667      	mov	r7, ip
    580a:	077b      	lsls	r3, r7, #29
    580c:	d1c6      	bne.n	579c <__aeabi_dadd+0x10c>
    580e:	4645      	mov	r5, r8
    5810:	0760      	lsls	r0, r4, #29
    5812:	08ff      	lsrs	r7, r7, #3
    5814:	4307      	orrs	r7, r0
    5816:	08e4      	lsrs	r4, r4, #3
    5818:	4b7d      	ldr	r3, [pc, #500]	; (5a10 <__aeabi_dadd+0x380>)
    581a:	429e      	cmp	r6, r3
    581c:	d030      	beq.n	5880 <__aeabi_dadd+0x1f0>
    581e:	0324      	lsls	r4, r4, #12
    5820:	0576      	lsls	r6, r6, #21
    5822:	0b24      	lsrs	r4, r4, #12
    5824:	0d76      	lsrs	r6, r6, #21
    5826:	e7d4      	b.n	57d2 <__aeabi_dadd+0x142>
    5828:	1a33      	subs	r3, r6, r0
    582a:	469a      	mov	sl, r3
    582c:	2b00      	cmp	r3, #0
    582e:	dd78      	ble.n	5922 <__aeabi_dadd+0x292>
    5830:	2800      	cmp	r0, #0
    5832:	d031      	beq.n	5898 <__aeabi_dadd+0x208>
    5834:	4876      	ldr	r0, [pc, #472]	; (5a10 <__aeabi_dadd+0x380>)
    5836:	4286      	cmp	r6, r0
    5838:	d0ae      	beq.n	5798 <__aeabi_dadd+0x108>
    583a:	2080      	movs	r0, #128	; 0x80
    583c:	0400      	lsls	r0, r0, #16
    583e:	4301      	orrs	r1, r0
    5840:	4653      	mov	r3, sl
    5842:	2b38      	cmp	r3, #56	; 0x38
    5844:	dc00      	bgt.n	5848 <__aeabi_dadd+0x1b8>
    5846:	e0e9      	b.n	5a1c <__aeabi_dadd+0x38c>
    5848:	430a      	orrs	r2, r1
    584a:	1e51      	subs	r1, r2, #1
    584c:	418a      	sbcs	r2, r1
    584e:	2100      	movs	r1, #0
    5850:	19d2      	adds	r2, r2, r7
    5852:	42ba      	cmp	r2, r7
    5854:	41bf      	sbcs	r7, r7
    5856:	1909      	adds	r1, r1, r4
    5858:	427c      	negs	r4, r7
    585a:	0017      	movs	r7, r2
    585c:	190c      	adds	r4, r1, r4
    585e:	0223      	lsls	r3, r4, #8
    5860:	d5d3      	bpl.n	580a <__aeabi_dadd+0x17a>
    5862:	4b6b      	ldr	r3, [pc, #428]	; (5a10 <__aeabi_dadd+0x380>)
    5864:	3601      	adds	r6, #1
    5866:	429e      	cmp	r6, r3
    5868:	d100      	bne.n	586c <__aeabi_dadd+0x1dc>
    586a:	e13a      	b.n	5ae2 <__aeabi_dadd+0x452>
    586c:	2001      	movs	r0, #1
    586e:	4b69      	ldr	r3, [pc, #420]	; (5a14 <__aeabi_dadd+0x384>)
    5870:	401c      	ands	r4, r3
    5872:	087b      	lsrs	r3, r7, #1
    5874:	4007      	ands	r7, r0
    5876:	431f      	orrs	r7, r3
    5878:	07e0      	lsls	r0, r4, #31
    587a:	4307      	orrs	r7, r0
    587c:	0864      	lsrs	r4, r4, #1
    587e:	e78b      	b.n	5798 <__aeabi_dadd+0x108>
    5880:	0023      	movs	r3, r4
    5882:	433b      	orrs	r3, r7
    5884:	d100      	bne.n	5888 <__aeabi_dadd+0x1f8>
    5886:	e1cb      	b.n	5c20 <__aeabi_dadd+0x590>
    5888:	2280      	movs	r2, #128	; 0x80
    588a:	0312      	lsls	r2, r2, #12
    588c:	4314      	orrs	r4, r2
    588e:	0324      	lsls	r4, r4, #12
    5890:	0b24      	lsrs	r4, r4, #12
    5892:	e79e      	b.n	57d2 <__aeabi_dadd+0x142>
    5894:	002e      	movs	r6, r5
    5896:	e77f      	b.n	5798 <__aeabi_dadd+0x108>
    5898:	0008      	movs	r0, r1
    589a:	4310      	orrs	r0, r2
    589c:	d100      	bne.n	58a0 <__aeabi_dadd+0x210>
    589e:	e0b4      	b.n	5a0a <__aeabi_dadd+0x37a>
    58a0:	1e58      	subs	r0, r3, #1
    58a2:	2800      	cmp	r0, #0
    58a4:	d000      	beq.n	58a8 <__aeabi_dadd+0x218>
    58a6:	e0de      	b.n	5a66 <__aeabi_dadd+0x3d6>
    58a8:	18ba      	adds	r2, r7, r2
    58aa:	42ba      	cmp	r2, r7
    58ac:	419b      	sbcs	r3, r3
    58ae:	1864      	adds	r4, r4, r1
    58b0:	425b      	negs	r3, r3
    58b2:	18e4      	adds	r4, r4, r3
    58b4:	0017      	movs	r7, r2
    58b6:	2601      	movs	r6, #1
    58b8:	0223      	lsls	r3, r4, #8
    58ba:	d5a6      	bpl.n	580a <__aeabi_dadd+0x17a>
    58bc:	2602      	movs	r6, #2
    58be:	e7d5      	b.n	586c <__aeabi_dadd+0x1dc>
    58c0:	2d00      	cmp	r5, #0
    58c2:	d16e      	bne.n	59a2 <__aeabi_dadd+0x312>
    58c4:	1c70      	adds	r0, r6, #1
    58c6:	0540      	lsls	r0, r0, #21
    58c8:	0d40      	lsrs	r0, r0, #21
    58ca:	2801      	cmp	r0, #1
    58cc:	dc00      	bgt.n	58d0 <__aeabi_dadd+0x240>
    58ce:	e0f9      	b.n	5ac4 <__aeabi_dadd+0x434>
    58d0:	1ab8      	subs	r0, r7, r2
    58d2:	4684      	mov	ip, r0
    58d4:	4287      	cmp	r7, r0
    58d6:	4180      	sbcs	r0, r0
    58d8:	1ae5      	subs	r5, r4, r3
    58da:	4240      	negs	r0, r0
    58dc:	1a2d      	subs	r5, r5, r0
    58de:	0228      	lsls	r0, r5, #8
    58e0:	d400      	bmi.n	58e4 <__aeabi_dadd+0x254>
    58e2:	e089      	b.n	59f8 <__aeabi_dadd+0x368>
    58e4:	1bd7      	subs	r7, r2, r7
    58e6:	42ba      	cmp	r2, r7
    58e8:	4192      	sbcs	r2, r2
    58ea:	1b1c      	subs	r4, r3, r4
    58ec:	4252      	negs	r2, r2
    58ee:	1aa5      	subs	r5, r4, r2
    58f0:	46d8      	mov	r8, fp
    58f2:	e729      	b.n	5748 <__aeabi_dadd+0xb8>
    58f4:	4645      	mov	r5, r8
    58f6:	2400      	movs	r4, #0
    58f8:	2700      	movs	r7, #0
    58fa:	e76a      	b.n	57d2 <__aeabi_dadd+0x142>
    58fc:	4c45      	ldr	r4, [pc, #276]	; (5a14 <__aeabi_dadd+0x384>)
    58fe:	1af6      	subs	r6, r6, r3
    5900:	402c      	ands	r4, r5
    5902:	e749      	b.n	5798 <__aeabi_dadd+0x108>
    5904:	003d      	movs	r5, r7
    5906:	3828      	subs	r0, #40	; 0x28
    5908:	4085      	lsls	r5, r0
    590a:	2700      	movs	r7, #0
    590c:	e72e      	b.n	576c <__aeabi_dadd+0xdc>
    590e:	0038      	movs	r0, r7
    5910:	f7fe f948 	bl	3ba4 <__clzsi2>
    5914:	3020      	adds	r0, #32
    5916:	e71d      	b.n	5754 <__aeabi_dadd+0xc4>
    5918:	430a      	orrs	r2, r1
    591a:	1e51      	subs	r1, r2, #1
    591c:	418a      	sbcs	r2, r1
    591e:	2100      	movs	r1, #0
    5920:	e707      	b.n	5732 <__aeabi_dadd+0xa2>
    5922:	2b00      	cmp	r3, #0
    5924:	d000      	beq.n	5928 <__aeabi_dadd+0x298>
    5926:	e0f3      	b.n	5b10 <__aeabi_dadd+0x480>
    5928:	1c70      	adds	r0, r6, #1
    592a:	0543      	lsls	r3, r0, #21
    592c:	0d5b      	lsrs	r3, r3, #21
    592e:	2b01      	cmp	r3, #1
    5930:	dc00      	bgt.n	5934 <__aeabi_dadd+0x2a4>
    5932:	e0ad      	b.n	5a90 <__aeabi_dadd+0x400>
    5934:	4b36      	ldr	r3, [pc, #216]	; (5a10 <__aeabi_dadd+0x380>)
    5936:	4298      	cmp	r0, r3
    5938:	d100      	bne.n	593c <__aeabi_dadd+0x2ac>
    593a:	e0d1      	b.n	5ae0 <__aeabi_dadd+0x450>
    593c:	18ba      	adds	r2, r7, r2
    593e:	42ba      	cmp	r2, r7
    5940:	41bf      	sbcs	r7, r7
    5942:	1864      	adds	r4, r4, r1
    5944:	427f      	negs	r7, r7
    5946:	19e4      	adds	r4, r4, r7
    5948:	07e7      	lsls	r7, r4, #31
    594a:	0852      	lsrs	r2, r2, #1
    594c:	4317      	orrs	r7, r2
    594e:	0864      	lsrs	r4, r4, #1
    5950:	0006      	movs	r6, r0
    5952:	e721      	b.n	5798 <__aeabi_dadd+0x108>
    5954:	482e      	ldr	r0, [pc, #184]	; (5a10 <__aeabi_dadd+0x380>)
    5956:	4285      	cmp	r5, r0
    5958:	d100      	bne.n	595c <__aeabi_dadd+0x2cc>
    595a:	e093      	b.n	5a84 <__aeabi_dadd+0x3f4>
    595c:	001d      	movs	r5, r3
    595e:	e6d0      	b.n	5702 <__aeabi_dadd+0x72>
    5960:	0029      	movs	r1, r5
    5962:	3e1f      	subs	r6, #31
    5964:	40f1      	lsrs	r1, r6
    5966:	2b20      	cmp	r3, #32
    5968:	d100      	bne.n	596c <__aeabi_dadd+0x2dc>
    596a:	e08d      	b.n	5a88 <__aeabi_dadd+0x3f8>
    596c:	2240      	movs	r2, #64	; 0x40
    596e:	1ad3      	subs	r3, r2, r3
    5970:	409d      	lsls	r5, r3
    5972:	432f      	orrs	r7, r5
    5974:	1e7d      	subs	r5, r7, #1
    5976:	41af      	sbcs	r7, r5
    5978:	2400      	movs	r4, #0
    597a:	430f      	orrs	r7, r1
    597c:	2600      	movs	r6, #0
    597e:	e744      	b.n	580a <__aeabi_dadd+0x17a>
    5980:	002b      	movs	r3, r5
    5982:	0008      	movs	r0, r1
    5984:	3b20      	subs	r3, #32
    5986:	40d8      	lsrs	r0, r3
    5988:	0003      	movs	r3, r0
    598a:	2d20      	cmp	r5, #32
    598c:	d100      	bne.n	5990 <__aeabi_dadd+0x300>
    598e:	e07d      	b.n	5a8c <__aeabi_dadd+0x3fc>
    5990:	2040      	movs	r0, #64	; 0x40
    5992:	1b45      	subs	r5, r0, r5
    5994:	40a9      	lsls	r1, r5
    5996:	430a      	orrs	r2, r1
    5998:	1e51      	subs	r1, r2, #1
    599a:	418a      	sbcs	r2, r1
    599c:	2100      	movs	r1, #0
    599e:	431a      	orrs	r2, r3
    59a0:	e6c7      	b.n	5732 <__aeabi_dadd+0xa2>
    59a2:	2e00      	cmp	r6, #0
    59a4:	d050      	beq.n	5a48 <__aeabi_dadd+0x3b8>
    59a6:	4e1a      	ldr	r6, [pc, #104]	; (5a10 <__aeabi_dadd+0x380>)
    59a8:	42b0      	cmp	r0, r6
    59aa:	d057      	beq.n	5a5c <__aeabi_dadd+0x3cc>
    59ac:	2680      	movs	r6, #128	; 0x80
    59ae:	426b      	negs	r3, r5
    59b0:	4699      	mov	r9, r3
    59b2:	0436      	lsls	r6, r6, #16
    59b4:	4334      	orrs	r4, r6
    59b6:	464b      	mov	r3, r9
    59b8:	2b38      	cmp	r3, #56	; 0x38
    59ba:	dd00      	ble.n	59be <__aeabi_dadd+0x32e>
    59bc:	e0d6      	b.n	5b6c <__aeabi_dadd+0x4dc>
    59be:	2b1f      	cmp	r3, #31
    59c0:	dd00      	ble.n	59c4 <__aeabi_dadd+0x334>
    59c2:	e135      	b.n	5c30 <__aeabi_dadd+0x5a0>
    59c4:	2620      	movs	r6, #32
    59c6:	1af5      	subs	r5, r6, r3
    59c8:	0026      	movs	r6, r4
    59ca:	40ae      	lsls	r6, r5
    59cc:	46b2      	mov	sl, r6
    59ce:	003e      	movs	r6, r7
    59d0:	40de      	lsrs	r6, r3
    59d2:	46ac      	mov	ip, r5
    59d4:	0035      	movs	r5, r6
    59d6:	4656      	mov	r6, sl
    59d8:	432e      	orrs	r6, r5
    59da:	4665      	mov	r5, ip
    59dc:	40af      	lsls	r7, r5
    59de:	1e7d      	subs	r5, r7, #1
    59e0:	41af      	sbcs	r7, r5
    59e2:	40dc      	lsrs	r4, r3
    59e4:	4337      	orrs	r7, r6
    59e6:	1bd7      	subs	r7, r2, r7
    59e8:	42ba      	cmp	r2, r7
    59ea:	4192      	sbcs	r2, r2
    59ec:	1b0c      	subs	r4, r1, r4
    59ee:	4252      	negs	r2, r2
    59f0:	1aa4      	subs	r4, r4, r2
    59f2:	0006      	movs	r6, r0
    59f4:	46d8      	mov	r8, fp
    59f6:	e6a3      	b.n	5740 <__aeabi_dadd+0xb0>
    59f8:	4664      	mov	r4, ip
    59fa:	4667      	mov	r7, ip
    59fc:	432c      	orrs	r4, r5
    59fe:	d000      	beq.n	5a02 <__aeabi_dadd+0x372>
    5a00:	e6a2      	b.n	5748 <__aeabi_dadd+0xb8>
    5a02:	2500      	movs	r5, #0
    5a04:	2600      	movs	r6, #0
    5a06:	2700      	movs	r7, #0
    5a08:	e706      	b.n	5818 <__aeabi_dadd+0x188>
    5a0a:	001e      	movs	r6, r3
    5a0c:	e6c4      	b.n	5798 <__aeabi_dadd+0x108>
    5a0e:	46c0      	nop			; (mov r8, r8)
    5a10:	000007ff 	.word	0x000007ff
    5a14:	ff7fffff 	.word	0xff7fffff
    5a18:	800fffff 	.word	0x800fffff
    5a1c:	2b1f      	cmp	r3, #31
    5a1e:	dc63      	bgt.n	5ae8 <__aeabi_dadd+0x458>
    5a20:	2020      	movs	r0, #32
    5a22:	1ac3      	subs	r3, r0, r3
    5a24:	0008      	movs	r0, r1
    5a26:	4098      	lsls	r0, r3
    5a28:	469c      	mov	ip, r3
    5a2a:	4683      	mov	fp, r0
    5a2c:	4653      	mov	r3, sl
    5a2e:	0010      	movs	r0, r2
    5a30:	40d8      	lsrs	r0, r3
    5a32:	0003      	movs	r3, r0
    5a34:	4658      	mov	r0, fp
    5a36:	4318      	orrs	r0, r3
    5a38:	4663      	mov	r3, ip
    5a3a:	409a      	lsls	r2, r3
    5a3c:	1e53      	subs	r3, r2, #1
    5a3e:	419a      	sbcs	r2, r3
    5a40:	4653      	mov	r3, sl
    5a42:	4302      	orrs	r2, r0
    5a44:	40d9      	lsrs	r1, r3
    5a46:	e703      	b.n	5850 <__aeabi_dadd+0x1c0>
    5a48:	0026      	movs	r6, r4
    5a4a:	433e      	orrs	r6, r7
    5a4c:	d006      	beq.n	5a5c <__aeabi_dadd+0x3cc>
    5a4e:	43eb      	mvns	r3, r5
    5a50:	4699      	mov	r9, r3
    5a52:	2b00      	cmp	r3, #0
    5a54:	d0c7      	beq.n	59e6 <__aeabi_dadd+0x356>
    5a56:	4e94      	ldr	r6, [pc, #592]	; (5ca8 <__aeabi_dadd+0x618>)
    5a58:	42b0      	cmp	r0, r6
    5a5a:	d1ac      	bne.n	59b6 <__aeabi_dadd+0x326>
    5a5c:	000c      	movs	r4, r1
    5a5e:	0017      	movs	r7, r2
    5a60:	0006      	movs	r6, r0
    5a62:	46d8      	mov	r8, fp
    5a64:	e698      	b.n	5798 <__aeabi_dadd+0x108>
    5a66:	4b90      	ldr	r3, [pc, #576]	; (5ca8 <__aeabi_dadd+0x618>)
    5a68:	459a      	cmp	sl, r3
    5a6a:	d00b      	beq.n	5a84 <__aeabi_dadd+0x3f4>
    5a6c:	4682      	mov	sl, r0
    5a6e:	e6e7      	b.n	5840 <__aeabi_dadd+0x1b0>
    5a70:	2800      	cmp	r0, #0
    5a72:	d000      	beq.n	5a76 <__aeabi_dadd+0x3e6>
    5a74:	e09e      	b.n	5bb4 <__aeabi_dadd+0x524>
    5a76:	0018      	movs	r0, r3
    5a78:	4310      	orrs	r0, r2
    5a7a:	d100      	bne.n	5a7e <__aeabi_dadd+0x3ee>
    5a7c:	e0e9      	b.n	5c52 <__aeabi_dadd+0x5c2>
    5a7e:	001c      	movs	r4, r3
    5a80:	0017      	movs	r7, r2
    5a82:	46d8      	mov	r8, fp
    5a84:	4e88      	ldr	r6, [pc, #544]	; (5ca8 <__aeabi_dadd+0x618>)
    5a86:	e687      	b.n	5798 <__aeabi_dadd+0x108>
    5a88:	2500      	movs	r5, #0
    5a8a:	e772      	b.n	5972 <__aeabi_dadd+0x2e2>
    5a8c:	2100      	movs	r1, #0
    5a8e:	e782      	b.n	5996 <__aeabi_dadd+0x306>
    5a90:	0023      	movs	r3, r4
    5a92:	433b      	orrs	r3, r7
    5a94:	2e00      	cmp	r6, #0
    5a96:	d000      	beq.n	5a9a <__aeabi_dadd+0x40a>
    5a98:	e0ab      	b.n	5bf2 <__aeabi_dadd+0x562>
    5a9a:	2b00      	cmp	r3, #0
    5a9c:	d100      	bne.n	5aa0 <__aeabi_dadd+0x410>
    5a9e:	e0e7      	b.n	5c70 <__aeabi_dadd+0x5e0>
    5aa0:	000b      	movs	r3, r1
    5aa2:	4313      	orrs	r3, r2
    5aa4:	d100      	bne.n	5aa8 <__aeabi_dadd+0x418>
    5aa6:	e677      	b.n	5798 <__aeabi_dadd+0x108>
    5aa8:	18ba      	adds	r2, r7, r2
    5aaa:	42ba      	cmp	r2, r7
    5aac:	41bf      	sbcs	r7, r7
    5aae:	1864      	adds	r4, r4, r1
    5ab0:	427f      	negs	r7, r7
    5ab2:	19e4      	adds	r4, r4, r7
    5ab4:	0223      	lsls	r3, r4, #8
    5ab6:	d400      	bmi.n	5aba <__aeabi_dadd+0x42a>
    5ab8:	e0f2      	b.n	5ca0 <__aeabi_dadd+0x610>
    5aba:	4b7c      	ldr	r3, [pc, #496]	; (5cac <__aeabi_dadd+0x61c>)
    5abc:	0017      	movs	r7, r2
    5abe:	401c      	ands	r4, r3
    5ac0:	0006      	movs	r6, r0
    5ac2:	e669      	b.n	5798 <__aeabi_dadd+0x108>
    5ac4:	0020      	movs	r0, r4
    5ac6:	4338      	orrs	r0, r7
    5ac8:	2e00      	cmp	r6, #0
    5aca:	d1d1      	bne.n	5a70 <__aeabi_dadd+0x3e0>
    5acc:	2800      	cmp	r0, #0
    5ace:	d15b      	bne.n	5b88 <__aeabi_dadd+0x4f8>
    5ad0:	001c      	movs	r4, r3
    5ad2:	4314      	orrs	r4, r2
    5ad4:	d100      	bne.n	5ad8 <__aeabi_dadd+0x448>
    5ad6:	e0a8      	b.n	5c2a <__aeabi_dadd+0x59a>
    5ad8:	001c      	movs	r4, r3
    5ada:	0017      	movs	r7, r2
    5adc:	46d8      	mov	r8, fp
    5ade:	e65b      	b.n	5798 <__aeabi_dadd+0x108>
    5ae0:	0006      	movs	r6, r0
    5ae2:	2400      	movs	r4, #0
    5ae4:	2700      	movs	r7, #0
    5ae6:	e697      	b.n	5818 <__aeabi_dadd+0x188>
    5ae8:	4650      	mov	r0, sl
    5aea:	000b      	movs	r3, r1
    5aec:	3820      	subs	r0, #32
    5aee:	40c3      	lsrs	r3, r0
    5af0:	4699      	mov	r9, r3
    5af2:	4653      	mov	r3, sl
    5af4:	2b20      	cmp	r3, #32
    5af6:	d100      	bne.n	5afa <__aeabi_dadd+0x46a>
    5af8:	e095      	b.n	5c26 <__aeabi_dadd+0x596>
    5afa:	2340      	movs	r3, #64	; 0x40
    5afc:	4650      	mov	r0, sl
    5afe:	1a1b      	subs	r3, r3, r0
    5b00:	4099      	lsls	r1, r3
    5b02:	430a      	orrs	r2, r1
    5b04:	1e51      	subs	r1, r2, #1
    5b06:	418a      	sbcs	r2, r1
    5b08:	464b      	mov	r3, r9
    5b0a:	2100      	movs	r1, #0
    5b0c:	431a      	orrs	r2, r3
    5b0e:	e69f      	b.n	5850 <__aeabi_dadd+0x1c0>
    5b10:	2e00      	cmp	r6, #0
    5b12:	d130      	bne.n	5b76 <__aeabi_dadd+0x4e6>
    5b14:	0026      	movs	r6, r4
    5b16:	433e      	orrs	r6, r7
    5b18:	d067      	beq.n	5bea <__aeabi_dadd+0x55a>
    5b1a:	43db      	mvns	r3, r3
    5b1c:	469a      	mov	sl, r3
    5b1e:	2b00      	cmp	r3, #0
    5b20:	d01c      	beq.n	5b5c <__aeabi_dadd+0x4cc>
    5b22:	4e61      	ldr	r6, [pc, #388]	; (5ca8 <__aeabi_dadd+0x618>)
    5b24:	42b0      	cmp	r0, r6
    5b26:	d060      	beq.n	5bea <__aeabi_dadd+0x55a>
    5b28:	4653      	mov	r3, sl
    5b2a:	2b38      	cmp	r3, #56	; 0x38
    5b2c:	dd00      	ble.n	5b30 <__aeabi_dadd+0x4a0>
    5b2e:	e096      	b.n	5c5e <__aeabi_dadd+0x5ce>
    5b30:	2b1f      	cmp	r3, #31
    5b32:	dd00      	ble.n	5b36 <__aeabi_dadd+0x4a6>
    5b34:	e09f      	b.n	5c76 <__aeabi_dadd+0x5e6>
    5b36:	2620      	movs	r6, #32
    5b38:	1af3      	subs	r3, r6, r3
    5b3a:	0026      	movs	r6, r4
    5b3c:	409e      	lsls	r6, r3
    5b3e:	469c      	mov	ip, r3
    5b40:	46b3      	mov	fp, r6
    5b42:	4653      	mov	r3, sl
    5b44:	003e      	movs	r6, r7
    5b46:	40de      	lsrs	r6, r3
    5b48:	0033      	movs	r3, r6
    5b4a:	465e      	mov	r6, fp
    5b4c:	431e      	orrs	r6, r3
    5b4e:	4663      	mov	r3, ip
    5b50:	409f      	lsls	r7, r3
    5b52:	1e7b      	subs	r3, r7, #1
    5b54:	419f      	sbcs	r7, r3
    5b56:	4653      	mov	r3, sl
    5b58:	40dc      	lsrs	r4, r3
    5b5a:	4337      	orrs	r7, r6
    5b5c:	18bf      	adds	r7, r7, r2
    5b5e:	4297      	cmp	r7, r2
    5b60:	4192      	sbcs	r2, r2
    5b62:	1864      	adds	r4, r4, r1
    5b64:	4252      	negs	r2, r2
    5b66:	18a4      	adds	r4, r4, r2
    5b68:	0006      	movs	r6, r0
    5b6a:	e678      	b.n	585e <__aeabi_dadd+0x1ce>
    5b6c:	4327      	orrs	r7, r4
    5b6e:	1e7c      	subs	r4, r7, #1
    5b70:	41a7      	sbcs	r7, r4
    5b72:	2400      	movs	r4, #0
    5b74:	e737      	b.n	59e6 <__aeabi_dadd+0x356>
    5b76:	4e4c      	ldr	r6, [pc, #304]	; (5ca8 <__aeabi_dadd+0x618>)
    5b78:	42b0      	cmp	r0, r6
    5b7a:	d036      	beq.n	5bea <__aeabi_dadd+0x55a>
    5b7c:	2680      	movs	r6, #128	; 0x80
    5b7e:	425b      	negs	r3, r3
    5b80:	0436      	lsls	r6, r6, #16
    5b82:	469a      	mov	sl, r3
    5b84:	4334      	orrs	r4, r6
    5b86:	e7cf      	b.n	5b28 <__aeabi_dadd+0x498>
    5b88:	0018      	movs	r0, r3
    5b8a:	4310      	orrs	r0, r2
    5b8c:	d100      	bne.n	5b90 <__aeabi_dadd+0x500>
    5b8e:	e603      	b.n	5798 <__aeabi_dadd+0x108>
    5b90:	1ab8      	subs	r0, r7, r2
    5b92:	4684      	mov	ip, r0
    5b94:	4567      	cmp	r7, ip
    5b96:	41ad      	sbcs	r5, r5
    5b98:	1ae0      	subs	r0, r4, r3
    5b9a:	426d      	negs	r5, r5
    5b9c:	1b40      	subs	r0, r0, r5
    5b9e:	0205      	lsls	r5, r0, #8
    5ba0:	d400      	bmi.n	5ba4 <__aeabi_dadd+0x514>
    5ba2:	e62c      	b.n	57fe <__aeabi_dadd+0x16e>
    5ba4:	1bd7      	subs	r7, r2, r7
    5ba6:	42ba      	cmp	r2, r7
    5ba8:	4192      	sbcs	r2, r2
    5baa:	1b1c      	subs	r4, r3, r4
    5bac:	4252      	negs	r2, r2
    5bae:	1aa4      	subs	r4, r4, r2
    5bb0:	46d8      	mov	r8, fp
    5bb2:	e5f1      	b.n	5798 <__aeabi_dadd+0x108>
    5bb4:	0018      	movs	r0, r3
    5bb6:	4310      	orrs	r0, r2
    5bb8:	d100      	bne.n	5bbc <__aeabi_dadd+0x52c>
    5bba:	e763      	b.n	5a84 <__aeabi_dadd+0x3f4>
    5bbc:	08f8      	lsrs	r0, r7, #3
    5bbe:	0767      	lsls	r7, r4, #29
    5bc0:	4307      	orrs	r7, r0
    5bc2:	2080      	movs	r0, #128	; 0x80
    5bc4:	08e4      	lsrs	r4, r4, #3
    5bc6:	0300      	lsls	r0, r0, #12
    5bc8:	4204      	tst	r4, r0
    5bca:	d008      	beq.n	5bde <__aeabi_dadd+0x54e>
    5bcc:	08dd      	lsrs	r5, r3, #3
    5bce:	4205      	tst	r5, r0
    5bd0:	d105      	bne.n	5bde <__aeabi_dadd+0x54e>
    5bd2:	08d2      	lsrs	r2, r2, #3
    5bd4:	0759      	lsls	r1, r3, #29
    5bd6:	4311      	orrs	r1, r2
    5bd8:	000f      	movs	r7, r1
    5bda:	002c      	movs	r4, r5
    5bdc:	46d8      	mov	r8, fp
    5bde:	0f7b      	lsrs	r3, r7, #29
    5be0:	00e4      	lsls	r4, r4, #3
    5be2:	431c      	orrs	r4, r3
    5be4:	00ff      	lsls	r7, r7, #3
    5be6:	4e30      	ldr	r6, [pc, #192]	; (5ca8 <__aeabi_dadd+0x618>)
    5be8:	e5d6      	b.n	5798 <__aeabi_dadd+0x108>
    5bea:	000c      	movs	r4, r1
    5bec:	0017      	movs	r7, r2
    5bee:	0006      	movs	r6, r0
    5bf0:	e5d2      	b.n	5798 <__aeabi_dadd+0x108>
    5bf2:	2b00      	cmp	r3, #0
    5bf4:	d038      	beq.n	5c68 <__aeabi_dadd+0x5d8>
    5bf6:	000b      	movs	r3, r1
    5bf8:	4313      	orrs	r3, r2
    5bfa:	d100      	bne.n	5bfe <__aeabi_dadd+0x56e>
    5bfc:	e742      	b.n	5a84 <__aeabi_dadd+0x3f4>
    5bfe:	08f8      	lsrs	r0, r7, #3
    5c00:	0767      	lsls	r7, r4, #29
    5c02:	4307      	orrs	r7, r0
    5c04:	2080      	movs	r0, #128	; 0x80
    5c06:	08e4      	lsrs	r4, r4, #3
    5c08:	0300      	lsls	r0, r0, #12
    5c0a:	4204      	tst	r4, r0
    5c0c:	d0e7      	beq.n	5bde <__aeabi_dadd+0x54e>
    5c0e:	08cb      	lsrs	r3, r1, #3
    5c10:	4203      	tst	r3, r0
    5c12:	d1e4      	bne.n	5bde <__aeabi_dadd+0x54e>
    5c14:	08d2      	lsrs	r2, r2, #3
    5c16:	0749      	lsls	r1, r1, #29
    5c18:	4311      	orrs	r1, r2
    5c1a:	000f      	movs	r7, r1
    5c1c:	001c      	movs	r4, r3
    5c1e:	e7de      	b.n	5bde <__aeabi_dadd+0x54e>
    5c20:	2700      	movs	r7, #0
    5c22:	2400      	movs	r4, #0
    5c24:	e5d5      	b.n	57d2 <__aeabi_dadd+0x142>
    5c26:	2100      	movs	r1, #0
    5c28:	e76b      	b.n	5b02 <__aeabi_dadd+0x472>
    5c2a:	2500      	movs	r5, #0
    5c2c:	2700      	movs	r7, #0
    5c2e:	e5f3      	b.n	5818 <__aeabi_dadd+0x188>
    5c30:	464e      	mov	r6, r9
    5c32:	0025      	movs	r5, r4
    5c34:	3e20      	subs	r6, #32
    5c36:	40f5      	lsrs	r5, r6
    5c38:	464b      	mov	r3, r9
    5c3a:	002e      	movs	r6, r5
    5c3c:	2b20      	cmp	r3, #32
    5c3e:	d02d      	beq.n	5c9c <__aeabi_dadd+0x60c>
    5c40:	2540      	movs	r5, #64	; 0x40
    5c42:	1aed      	subs	r5, r5, r3
    5c44:	40ac      	lsls	r4, r5
    5c46:	4327      	orrs	r7, r4
    5c48:	1e7c      	subs	r4, r7, #1
    5c4a:	41a7      	sbcs	r7, r4
    5c4c:	2400      	movs	r4, #0
    5c4e:	4337      	orrs	r7, r6
    5c50:	e6c9      	b.n	59e6 <__aeabi_dadd+0x356>
    5c52:	2480      	movs	r4, #128	; 0x80
    5c54:	2500      	movs	r5, #0
    5c56:	0324      	lsls	r4, r4, #12
    5c58:	4e13      	ldr	r6, [pc, #76]	; (5ca8 <__aeabi_dadd+0x618>)
    5c5a:	2700      	movs	r7, #0
    5c5c:	e5dc      	b.n	5818 <__aeabi_dadd+0x188>
    5c5e:	4327      	orrs	r7, r4
    5c60:	1e7c      	subs	r4, r7, #1
    5c62:	41a7      	sbcs	r7, r4
    5c64:	2400      	movs	r4, #0
    5c66:	e779      	b.n	5b5c <__aeabi_dadd+0x4cc>
    5c68:	000c      	movs	r4, r1
    5c6a:	0017      	movs	r7, r2
    5c6c:	4e0e      	ldr	r6, [pc, #56]	; (5ca8 <__aeabi_dadd+0x618>)
    5c6e:	e593      	b.n	5798 <__aeabi_dadd+0x108>
    5c70:	000c      	movs	r4, r1
    5c72:	0017      	movs	r7, r2
    5c74:	e590      	b.n	5798 <__aeabi_dadd+0x108>
    5c76:	4656      	mov	r6, sl
    5c78:	0023      	movs	r3, r4
    5c7a:	3e20      	subs	r6, #32
    5c7c:	40f3      	lsrs	r3, r6
    5c7e:	4699      	mov	r9, r3
    5c80:	4653      	mov	r3, sl
    5c82:	2b20      	cmp	r3, #32
    5c84:	d00e      	beq.n	5ca4 <__aeabi_dadd+0x614>
    5c86:	2340      	movs	r3, #64	; 0x40
    5c88:	4656      	mov	r6, sl
    5c8a:	1b9b      	subs	r3, r3, r6
    5c8c:	409c      	lsls	r4, r3
    5c8e:	4327      	orrs	r7, r4
    5c90:	1e7c      	subs	r4, r7, #1
    5c92:	41a7      	sbcs	r7, r4
    5c94:	464b      	mov	r3, r9
    5c96:	2400      	movs	r4, #0
    5c98:	431f      	orrs	r7, r3
    5c9a:	e75f      	b.n	5b5c <__aeabi_dadd+0x4cc>
    5c9c:	2400      	movs	r4, #0
    5c9e:	e7d2      	b.n	5c46 <__aeabi_dadd+0x5b6>
    5ca0:	0017      	movs	r7, r2
    5ca2:	e5b2      	b.n	580a <__aeabi_dadd+0x17a>
    5ca4:	2400      	movs	r4, #0
    5ca6:	e7f2      	b.n	5c8e <__aeabi_dadd+0x5fe>
    5ca8:	000007ff 	.word	0x000007ff
    5cac:	ff7fffff 	.word	0xff7fffff
    5cb0:	682f2e2e 	.word	0x682f2e2e
    5cb4:	732f6c61 	.word	0x732f6c61
    5cb8:	682f6372 	.word	0x682f6372
    5cbc:	615f6c61 	.word	0x615f6c61
    5cc0:	735f6364 	.word	0x735f6364
    5cc4:	2e636e79 	.word	0x2e636e79
    5cc8:	00000063 	.word	0x00000063
    5ccc:	682f2e2e 	.word	0x682f2e2e
    5cd0:	732f6c61 	.word	0x732f6c61
    5cd4:	682f6372 	.word	0x682f6372
    5cd8:	635f6c61 	.word	0x635f6c61
    5cdc:	615f6e61 	.word	0x615f6e61
    5ce0:	636e7973 	.word	0x636e7973
    5ce4:	0000632e 	.word	0x0000632e
    5ce8:	682f2e2e 	.word	0x682f2e2e
    5cec:	732f6c61 	.word	0x732f6c61
    5cf0:	682f6372 	.word	0x682f6372
    5cf4:	695f6c61 	.word	0x695f6c61
    5cf8:	00632e6f 	.word	0x00632e6f
    5cfc:	682f2e2e 	.word	0x682f2e2e
    5d00:	732f6c61 	.word	0x732f6c61
    5d04:	682f6372 	.word	0x682f6372
    5d08:	735f6c61 	.word	0x735f6c61
    5d0c:	6d5f6970 	.word	0x6d5f6970
    5d10:	6e79735f 	.word	0x6e79735f
    5d14:	00632e63 	.word	0x00632e63
    5d18:	682f2e2e 	.word	0x682f2e2e
    5d1c:	732f6c61 	.word	0x732f6c61
    5d20:	682f6372 	.word	0x682f6372
    5d24:	745f6c61 	.word	0x745f6c61
    5d28:	5f706d65 	.word	0x5f706d65
    5d2c:	636e7973 	.word	0x636e7973
    5d30:	0000632e 	.word	0x0000632e
    5d34:	682f2e2e 	.word	0x682f2e2e
    5d38:	732f6c61 	.word	0x732f6c61
    5d3c:	682f6372 	.word	0x682f6372
    5d40:	755f6c61 	.word	0x755f6c61
    5d44:	74726173 	.word	0x74726173
    5d48:	7973615f 	.word	0x7973615f
    5d4c:	632e636e 	.word	0x632e636e
    5d50:	00000000 	.word	0x00000000
    5d54:	682f2e2e 	.word	0x682f2e2e
    5d58:	752f6c61 	.word	0x752f6c61
    5d5c:	736c6974 	.word	0x736c6974
    5d60:	6372732f 	.word	0x6372732f
    5d64:	6974752f 	.word	0x6974752f
    5d68:	725f736c 	.word	0x725f736c
    5d6c:	62676e69 	.word	0x62676e69
    5d70:	65666675 	.word	0x65666675
    5d74:	00632e72 	.word	0x00632e72

00005d78 <_adcs>:
    5d78:	05000000 18000000 00000000 00000000     ................
	...
    5d94:	682f2e2e 612f6c70 682f6364 615f6c70     ../hpl/adc/hpl_a
    5da4:	632e6364 00000000 682f2e2e 732f6c70     dc.c....../hpl/s
    5db4:	6f637265 70682f6d 65735f6c 6d6f6372     ercom/hpl_sercom
    5dc4:	0000632e                                .c..

00005dc8 <crc15Table>:
    5dc8:	c5990000 0b32ceab 1d56d8cf d3fd1664     ......2...V.d...
    5dd8:	319ef407 ff353aac e9512cc8 27fae263     ...1.:5..,Q.c..'
    5de8:	680ead97 a6a5633c b0c17558 7e6abbf3     ...h<c..Xu....j~
    5df8:	9c095990 52a2973b 44c6815f 8a6d4ff4     .Y..;..R_..D.Om.
    5e08:	9eb75b2e 501c9585 467883e1 88d34d4a     .[.....P..xFJM..
    5e18:	6ab0af29 a41b6182 b27f77e6 7cd4b94d     )..j.a...w..M..|
    5e28:	3320f6b9 fd8b3812 ebef2e76 2544e0dd     .. 3.8..v.....D%
    5e38:	c72702be 098ccc15 1fe8da71 d14314da     ..'.....q.....C.
    5e48:	365cf3c5 f8f73d6e ee932b0a 2038e5a1     ..\6n=...+....8 
    5e58:	c25b07c2 0cf0c969 1a94df0d d43f11a6     ..[.i.........?.
    5e68:	9bcb5e52 556090f9 4304869d 8daf4836     R^....`U...C6H..
    5e78:	6fccaa55 a16764fe b703729a 79a8bc31     U..o.dg..r..1..y
    5e88:	6d72a8eb a3d96640 b5bd7024 7b16be8f     ..rm@f..$p.....{
    5e98:	99755cec 57de9247 41ba8423 8f114a88     .\u.G..W#..A.J..
    5ea8:	c0e5057c 0e4ecbd7 182addb3 d6811318     |.....N...*.....
    5eb8:	34e2f17b fa493fd0 ec2d29b4 2286e71f     {..4.?I..)-...."
    5ec8:	678aa213 a9216cb8 bf457adc 71eeb477     ...g.l!..zE.w..q
    5ed8:	938d5614 5d2698bf 4b428edb 85e94070     .V....&]..BKp@..
    5ee8:	ca1d0f84 04b6c12f 12d2d74b dc7919e0     ..../...K.....y.
    5ef8:	3e1afb83 f0b13528 e6d5234c 287eede7     ...>(5..L#....~(
    5f08:	3ca4f93d f20f3796 e46b21f2 2ac0ef59     =..<.7...!k.Y..*
    5f18:	c8a30d3a 0608c391 106cd5f5 dec71b5e     :.........l.^...
    5f28:	913354aa 5f989a01 49fc8c65 875742ce     .T3...._e..I.BW.
    5f38:	6534a0ad ab9f6e06 bdfb7862 7350b6c9     ..4e.n..bx....Ps
    5f48:	944f51d6 5ae49f7d 4c808919 822b47b2     .QO.}..Z...L.G+.
    5f58:	6048a5d1 aee36b7a b8877d1e 762cb3b5     ..H`zk...}....,v
    5f68:	39d8fc41 f77332ea e117248e 2fbcea25     A..9.2s..$..%../
    5f78:	cddf0846 0374c6ed 1510d089 dbbb1e22     F.....t....."...
    5f88:	cf610af8 01cac453 17aed237 d9051c9c     ..a.S...7.......
    5f98:	3b66feff f5cd3054 e3a92630 2d02e89b     ..f;T0..0&.....-
    5fa8:	62f6a76f ac5d69c4 ba397fa0 7492b10b     o..b.i]...9....t
    5fb8:	96f15368 585a9dc3 4e3e8ba7 8095450c     hS....ZX..>N.E..
    5fc8:	00006005 616c6552 65742079 00007473     .`..Relay test..
    5fd8:	6f727245 4e203a72 7573206f 63206863     Error: No such c
    5fe8:	616d6d6f 0000646e 00001fd8 00001fa8     ommand..........
    5ff8:	00001fba 00001efc 00001fba 00001f9e     ................
    6008:	00001fba 00001efc 00001fa8 00001fa8     ................
    6018:	00001f9e 00001efc 00001f04 00001f04     ................
    6028:	00001f04 00001fc0 00001fa8 00001fa8     ................
    6038:	00001f7c 00002060 00001f7c 00001f9e     |...` ..|.......
    6048:	00001f7c 00002060 00001fa8 00001fa8     |...` ..........
    6058:	00001f9e 00002060 00001f04 00001f04     ....` ..........
    6068:	00001f04 0000206a 00002208 00002158     ....j ..."..X!..
    6078:	00002158 00002156 000021fa 000021fa     X!..V!...!...!..
    6088:	000021f0 00002156 000021fa 000021f0     .!..V!...!...!..
    6098:	000021fa 00002156 00002200 00002200     .!..V!..."..."..
    60a8:	00002200 00002290 00002918 000028fa     ."..."...)...(..
    60b8:	000028b4 000027d2 000028b4 000028ec     .(...'...(...(..
    60c8:	000028b4 000027d2 000028fa 000028fa     .(...'...(...(..
    60d8:	000028ec 000027d2 000027ca 000027ca     .(...'...'...'..
    60e8:	000027ca 00002b30 00002f78 00002e38     .'..0+..x/..8...
    60f8:	00002e38 00002e34 00002f50 00002f50     8...4...P/..P/..
    6108:	00002f42 00002e34 00002f50 00002f42     B/..4...P/..B/..
    6118:	00002f50 00002e34 00002f58 00002f58     P/..4...X/..X/..
    6128:	00002f58 0000315c                       X/..\1..

00006130 <__sf_fake_stderr>:
	...

00006150 <__sf_fake_stdin>:
	...

00006170 <__sf_fake_stdout>:
	...

00006190 <__mprec_bigtens>:
    6190:	37e08000 4341c379 b5056e17 4693b8b5     ...7y.AC.n.....F
    61a0:	e93ff9f5 4d384f03 f9301d32 5a827748     ..?..O8M2.0.Hw.Z
    61b0:	7f73bf3c 75154fdd                       <.s..O.u

000061b8 <__mprec_tens>:
    61b8:	00000000 3ff00000 00000000 40240000     .......?......$@
    61c8:	00000000 40590000 00000000 408f4000     ......Y@.....@.@
    61d8:	00000000 40c38800 00000000 40f86a00     .......@.....j.@
    61e8:	00000000 412e8480 00000000 416312d0     .......A......cA
    61f8:	00000000 4197d784 00000000 41cdcd65     .......A....e..A
    6208:	20000000 4202a05f e8000000 42374876     ... _..B....vH7B
    6218:	a2000000 426d1a94 e5400000 42a2309c     ......mB..@..0.B
    6228:	1e900000 42d6bcc4 26340000 430c6bf5     .......B..4&.k.C
    6238:	37e08000 4341c379 85d8a000 43763457     ...7y.AC....W4vC
    6248:	674ec800 43abc16d 60913d00 43e158e4     ..Ngm..C.=.`.X.C
    6258:	78b58c40 4415af1d d6e2ef50 444b1ae4     @..x...DP.....KD
    6268:	064dd592 4480f0cf c7e14af6 44b52d02     ..M....D.J...-.D
    6278:	79d99db4 44ea7843                       ...yCx.D

00006280 <p05.6047>:
    6280:	00000005 00000019 0000007d 69666e49     ........}...Infi
    6290:	7974696e 4e614e00 00003000              nity.NaN.0..

0000629c <_init>:
    629c:	b5f8      	push	{r3, r4, r5, r6, r7, lr}
    629e:	46c0      	nop			; (mov r8, r8)
    62a0:	bcf8      	pop	{r3, r4, r5, r6, r7}
    62a2:	bc08      	pop	{r3}
    62a4:	469e      	mov	lr, r3
    62a6:	4770      	bx	lr

000062a8 <__init_array_start>:
    62a8:	000000e5 	.word	0x000000e5

000062ac <_fini>:
    62ac:	b5f8      	push	{r3, r4, r5, r6, r7, lr}
    62ae:	46c0      	nop			; (mov r8, r8)
    62b0:	bcf8      	pop	{r3, r4, r5, r6, r7}
    62b2:	bc08      	pop	{r3}
    62b4:	469e      	mov	lr, r3
    62b6:	4770      	bx	lr

000062b8 <__fini_array_start>:
    62b8:	000000bd 	.word	0x000000bd
